
yocto:     file format elf32-i386


Disassembly of section .plt:

080482a0 <read@plt-0x10>:
 80482a0:	ff 35 34 95 04 08    	push   DWORD PTR ds:0x8049534
 80482a6:	ff 25 38 95 04 08    	jmp    DWORD PTR ds:0x8049538
 80482ac:	00 00                	add    BYTE PTR [eax],al
	...

080482b0 <read@plt>:
 80482b0:	ff 25 3c 95 04 08    	jmp    DWORD PTR ds:0x804953c
 80482b6:	68 00 00 00 00       	push   0x0
 80482bb:	e9 e0 ff ff ff       	jmp    80482a0 <read@plt-0x10>

080482c0 <strchr@plt>:
 80482c0:	ff 25 40 95 04 08    	jmp    DWORD PTR ds:0x8049540
 80482c6:	68 08 00 00 00       	push   0x8
 80482cb:	e9 d0 ff ff ff       	jmp    80482a0 <read@plt-0x10>

080482d0 <setvbuf@plt>:
 80482d0:	ff 25 44 95 04 08    	jmp    DWORD PTR ds:0x8049544
 80482d6:	68 10 00 00 00       	push   0x10
 80482db:	e9 c0 ff ff ff       	jmp    80482a0 <read@plt-0x10>

080482e0 <atoi@plt>:
 80482e0:	ff 25 48 95 04 08    	jmp    DWORD PTR ds:0x8049548
 80482e6:	68 18 00 00 00       	push   0x18
 80482eb:	e9 b0 ff ff ff       	jmp    80482a0 <read@plt-0x10>

080482f0 <shutdown@plt>:
 80482f0:	ff 25 4c 95 04 08    	jmp    DWORD PTR ds:0x804954c
 80482f6:	68 20 00 00 00       	push   0x20
 80482fb:	e9 a0 ff ff ff       	jmp    80482a0 <read@plt-0x10>

Disassembly of section .text:

08048300 <_start>:
 8048300:	55                   	push   ebp
 8048301:	89 e5                	mov    ebp,esp
 8048303:	83 ec 18             	sub    esp,0x18
 8048306:	c7 45 f0 00 00 00 00 	mov    DWORD PTR [ebp-0x10],0x0
 804830d:	8b 45 f0             	mov    eax,DWORD PTR [ebp-0x10]
 8048310:	89 45 f4             	mov    DWORD PTR [ebp-0xc],eax
 8048313:	8b 45 f4             	mov    eax,DWORD PTR [ebp-0xc]
 8048316:	89 45 ec             	mov    DWORD PTR [ebp-0x14],eax
 8048319:	a1 80 95 04 08       	mov    eax,ds:0x8049580
 804831e:	6a 00                	push   0x0
 8048320:	6a 02                	push   0x2
 8048322:	6a 00                	push   0x0
 8048324:	50                   	push   eax
 8048325:	e8 a6 ff ff ff       	call   80482d0 <setvbuf@plt>
 804832a:	83 c4 10             	add    esp,0x10
 804832d:	83 ec 04             	sub    esp,0x4
 8048330:	6a 50                	push   0x50
 8048332:	68 c0 95 04 08       	push   0x80495c0
 8048337:	6a 00                	push   0x0
 8048339:	e8 72 ff ff ff       	call   80482b0 <read@plt>
 804833e:	83 c4 10             	add    esp,0x10
 8048341:	c6 05 0f 96 04 08 00 	mov    BYTE PTR ds:0x804960f,0x0
 8048348:	83 ec 08             	sub    esp,0x8
 804834b:	6a 00                	push   0x0
 804834d:	6a 00                	push   0x0
 804834f:	e8 9c ff ff ff       	call   80482f0 <shutdown@plt>
 8048354:	83 c4 10             	add    esp,0x10
 8048357:	83 ec 08             	sub    esp,0x8
 804835a:	6a 00                	push   0x0
 804835c:	6a 01                	push   0x1
 804835e:	e8 8d ff ff ff       	call   80482f0 <shutdown@plt>
 8048363:	83 c4 10             	add    esp,0x10
 8048366:	83 ec 08             	sub    esp,0x8
 8048369:	6a 00                	push   0x0
 804836b:	6a 02                	push   0x2
 804836d:	e8 7e ff ff ff       	call   80482f0 <shutdown@plt>
 8048372:	83 c4 10             	add    esp,0x10
 8048375:	83 ec 0c             	sub    esp,0xc
 8048378:	68 c0 95 04 08       	push   0x80495c0
 804837d:	e8 5e ff ff ff       	call   80482e0 <atoi@plt>
 8048382:	83 c4 10             	add    esp,0x10
 8048385:	89 45 ec             	mov    DWORD PTR [ebp-0x14],eax
 8048388:	83 ec 08             	sub    esp,0x8
 804838b:	6a 2e                	push   0x2e
 804838d:	68 c0 95 04 08       	push   0x80495c0
 8048392:	e8 29 ff ff ff       	call   80482c0 <strchr@plt>
 8048397:	83 c4 10             	add    esp,0x10
 804839a:	89 45 e8             	mov    DWORD PTR [ebp-0x18],eax
 804839d:	83 7d e8 00          	cmp    DWORD PTR [ebp-0x18],0x0
 80483a1:	74 15                	je     80483b8 <_start+0xb8>
 80483a3:	8b 45 e8             	mov    eax,DWORD PTR [ebp-0x18]
 80483a6:	83 c0 01             	add    eax,0x1
 80483a9:	83 ec 0c             	sub    esp,0xc
 80483ac:	50                   	push   eax
 80483ad:	e8 2e ff ff ff       	call   80482e0 <atoi@plt>
 80483b2:	83 c4 10             	add    esp,0x10
 80483b5:	89 45 f4             	mov    DWORD PTR [ebp-0xc],eax
 80483b8:	8b 45 e8             	mov    eax,DWORD PTR [ebp-0x18]
 80483bb:	83 c0 01             	add    eax,0x1
 80483be:	83 ec 08             	sub    esp,0x8
 80483c1:	6a 2e                	push   0x2e
 80483c3:	50                   	push   eax
 80483c4:	e8 f7 fe ff ff       	call   80482c0 <strchr@plt>
 80483c9:	83 c4 10             	add    esp,0x10
 80483cc:	89 45 e8             	mov    DWORD PTR [ebp-0x18],eax
 80483cf:	83 7d e8 00          	cmp    DWORD PTR [ebp-0x18],0x0
 80483d3:	74 15                	je     80483ea <_start+0xea>
 80483d5:	8b 45 e8             	mov    eax,DWORD PTR [ebp-0x18]
 80483d8:	83 c0 01             	add    eax,0x1
 80483db:	83 ec 0c             	sub    esp,0xc
 80483de:	50                   	push   eax
 80483df:	e8 fc fe ff ff       	call   80482e0 <atoi@plt>
 80483e4:	83 c4 10             	add    esp,0x10
 80483e7:	89 45 f0             	mov    DWORD PTR [ebp-0x10],eax
 80483ea:	8b 45 ec             	mov    eax,DWORD PTR [ebp-0x14]
 80483ed:	8b 55 f4             	mov    edx,DWORD PTR [ebp-0xc]
 80483f0:	8b 4d f0             	mov    ecx,DWORD PTR [ebp-0x10]
 80483f3:	50                   	push   eax
 80483f4:	52                   	push   edx
 80483f5:	ff e1                	jmp    ecx
 80483f7:	b8 00 00 00 00       	mov    eax,0x0
 80483fc:	c9                   	leave  
 80483fd:	c3                   	ret    
