
simple_note:     file format elf64-x86-64


Disassembly of section .init:

0000000000400668 <_init>:
  400668:	48 83 ec 08          	sub    rsp,0x8
  40066c:	48 8b 05 85 19 20 00 	mov    rax,QWORD PTR [rip+0x201985]        # 601ff8 <_DYNAMIC+0x1d0>
  400673:	48 85 c0             	test   rax,rax
  400676:	74 05                	je     40067d <_init+0x15>
  400678:	e8 c3 00 00 00       	call   400740 <exit@plt+0x10>
  40067d:	48 83 c4 08          	add    rsp,0x8
  400681:	c3                   	ret    

Disassembly of section .plt:

0000000000400690 <free@plt-0x10>:
  400690:	ff 35 72 19 20 00    	push   QWORD PTR [rip+0x201972]        # 602008 <_GLOBAL_OFFSET_TABLE_+0x8>
  400696:	ff 25 74 19 20 00    	jmp    QWORD PTR [rip+0x201974]        # 602010 <_GLOBAL_OFFSET_TABLE_+0x10>
  40069c:	0f 1f 40 00          	nop    DWORD PTR [rax+0x0]

00000000004006a0 <free@plt>:
  4006a0:	ff 25 72 19 20 00    	jmp    QWORD PTR [rip+0x201972]        # 602018 <_GLOBAL_OFFSET_TABLE_+0x18>
  4006a6:	68 00 00 00 00       	push   0x0
  4006ab:	e9 e0 ff ff ff       	jmp    400690 <_init+0x28>

00000000004006b0 <puts@plt>:
  4006b0:	ff 25 6a 19 20 00    	jmp    QWORD PTR [rip+0x20196a]        # 602020 <_GLOBAL_OFFSET_TABLE_+0x20>
  4006b6:	68 01 00 00 00       	push   0x1
  4006bb:	e9 d0 ff ff ff       	jmp    400690 <_init+0x28>

00000000004006c0 <strlen@plt>:
  4006c0:	ff 25 62 19 20 00    	jmp    QWORD PTR [rip+0x201962]        # 602028 <_GLOBAL_OFFSET_TABLE_+0x28>
  4006c6:	68 02 00 00 00       	push   0x2
  4006cb:	e9 c0 ff ff ff       	jmp    400690 <_init+0x28>

00000000004006d0 <__stack_chk_fail@plt>:
  4006d0:	ff 25 5a 19 20 00    	jmp    QWORD PTR [rip+0x20195a]        # 602030 <_GLOBAL_OFFSET_TABLE_+0x30>
  4006d6:	68 03 00 00 00       	push   0x3
  4006db:	e9 b0 ff ff ff       	jmp    400690 <_init+0x28>

00000000004006e0 <read@plt>:
  4006e0:	ff 25 52 19 20 00    	jmp    QWORD PTR [rip+0x201952]        # 602038 <_GLOBAL_OFFSET_TABLE_+0x38>
  4006e6:	68 04 00 00 00       	push   0x4
  4006eb:	e9 a0 ff ff ff       	jmp    400690 <_init+0x28>

00000000004006f0 <__libc_start_main@plt>:
  4006f0:	ff 25 4a 19 20 00    	jmp    QWORD PTR [rip+0x20194a]        # 602040 <_GLOBAL_OFFSET_TABLE_+0x40>
  4006f6:	68 05 00 00 00       	push   0x5
  4006fb:	e9 90 ff ff ff       	jmp    400690 <_init+0x28>

0000000000400700 <malloc@plt>:
  400700:	ff 25 42 19 20 00    	jmp    QWORD PTR [rip+0x201942]        # 602048 <_GLOBAL_OFFSET_TABLE_+0x48>
  400706:	68 06 00 00 00       	push   0x6
  40070b:	e9 80 ff ff ff       	jmp    400690 <_init+0x28>

0000000000400710 <setvbuf@plt>:
  400710:	ff 25 3a 19 20 00    	jmp    QWORD PTR [rip+0x20193a]        # 602050 <_GLOBAL_OFFSET_TABLE_+0x50>
  400716:	68 07 00 00 00       	push   0x7
  40071b:	e9 70 ff ff ff       	jmp    400690 <_init+0x28>

0000000000400720 <atoi@plt>:
  400720:	ff 25 32 19 20 00    	jmp    QWORD PTR [rip+0x201932]        # 602058 <_GLOBAL_OFFSET_TABLE_+0x58>
  400726:	68 08 00 00 00       	push   0x8
  40072b:	e9 60 ff ff ff       	jmp    400690 <_init+0x28>

0000000000400730 <exit@plt>:
  400730:	ff 25 2a 19 20 00    	jmp    QWORD PTR [rip+0x20192a]        # 602060 <_GLOBAL_OFFSET_TABLE_+0x60>
  400736:	68 09 00 00 00       	push   0x9
  40073b:	e9 50 ff ff ff       	jmp    400690 <_init+0x28>

Disassembly of section .plt.got:

0000000000400740 <.plt.got>:
  400740:	ff 25 b2 18 20 00    	jmp    QWORD PTR [rip+0x2018b2]        # 601ff8 <_DYNAMIC+0x1d0>
  400746:	66 90                	xchg   ax,ax

Disassembly of section .text:

0000000000400750 <_start>:
  400750:	31 ed                	xor    ebp,ebp
  400752:	49 89 d1             	mov    r9,rdx
  400755:	5e                   	pop    rsi
  400756:	48 89 e2             	mov    rdx,rsp
  400759:	48 83 e4 f0          	and    rsp,0xfffffffffffffff0
  40075d:	50                   	push   rax
  40075e:	54                   	push   rsp
  40075f:	49 c7 c0 90 0c 40 00 	mov    r8,0x400c90
  400766:	48 c7 c1 20 0c 40 00 	mov    rcx,0x400c20
  40076d:	48 c7 c7 a8 0b 40 00 	mov    rdi,0x400ba8
  400774:	e8 77 ff ff ff       	call   4006f0 <__libc_start_main@plt>
  400779:	f4                   	hlt    
  40077a:	66 0f 1f 44 00 00    	nop    WORD PTR [rax+rax*1+0x0]

0000000000400780 <deregister_tm_clones>:
  400780:	b8 7f 20 60 00       	mov    eax,0x60207f
  400785:	55                   	push   rbp
  400786:	48 2d 78 20 60 00    	sub    rax,0x602078
  40078c:	48 83 f8 0e          	cmp    rax,0xe
  400790:	48 89 e5             	mov    rbp,rsp
  400793:	76 1b                	jbe    4007b0 <deregister_tm_clones+0x30>
  400795:	b8 00 00 00 00       	mov    eax,0x0
  40079a:	48 85 c0             	test   rax,rax
  40079d:	74 11                	je     4007b0 <deregister_tm_clones+0x30>
  40079f:	5d                   	pop    rbp
  4007a0:	bf 78 20 60 00       	mov    edi,0x602078
  4007a5:	ff e0                	jmp    rax
  4007a7:	66 0f 1f 84 00 00 00 	nop    WORD PTR [rax+rax*1+0x0]
  4007ae:	00 00 
  4007b0:	5d                   	pop    rbp
  4007b1:	c3                   	ret    
  4007b2:	0f 1f 40 00          	nop    DWORD PTR [rax+0x0]
  4007b6:	66 2e 0f 1f 84 00 00 	nop    WORD PTR cs:[rax+rax*1+0x0]
  4007bd:	00 00 00 

00000000004007c0 <register_tm_clones>:
  4007c0:	be 78 20 60 00       	mov    esi,0x602078
  4007c5:	55                   	push   rbp
  4007c6:	48 81 ee 78 20 60 00 	sub    rsi,0x602078
  4007cd:	48 c1 fe 03          	sar    rsi,0x3
  4007d1:	48 89 e5             	mov    rbp,rsp
  4007d4:	48 89 f0             	mov    rax,rsi
  4007d7:	48 c1 e8 3f          	shr    rax,0x3f
  4007db:	48 01 c6             	add    rsi,rax
  4007de:	48 d1 fe             	sar    rsi,1
  4007e1:	74 15                	je     4007f8 <register_tm_clones+0x38>
  4007e3:	b8 00 00 00 00       	mov    eax,0x0
  4007e8:	48 85 c0             	test   rax,rax
  4007eb:	74 0b                	je     4007f8 <register_tm_clones+0x38>
  4007ed:	5d                   	pop    rbp
  4007ee:	bf 78 20 60 00       	mov    edi,0x602078
  4007f3:	ff e0                	jmp    rax
  4007f5:	0f 1f 00             	nop    DWORD PTR [rax]
  4007f8:	5d                   	pop    rbp
  4007f9:	c3                   	ret    
  4007fa:	66 0f 1f 44 00 00    	nop    WORD PTR [rax+rax*1+0x0]

0000000000400800 <__do_global_dtors_aux>:
  400800:	80 3d a1 18 20 00 00 	cmp    BYTE PTR [rip+0x2018a1],0x0        # 6020a8 <completed.7585>
  400807:	75 11                	jne    40081a <__do_global_dtors_aux+0x1a>
  400809:	55                   	push   rbp
  40080a:	48 89 e5             	mov    rbp,rsp
  40080d:	e8 6e ff ff ff       	call   400780 <deregister_tm_clones>
  400812:	5d                   	pop    rbp
  400813:	c6 05 8e 18 20 00 01 	mov    BYTE PTR [rip+0x20188e],0x1        # 6020a8 <completed.7585>
  40081a:	f3 c3                	repz ret 
  40081c:	0f 1f 40 00          	nop    DWORD PTR [rax+0x0]

0000000000400820 <frame_dummy>:
  400820:	bf 20 1e 60 00       	mov    edi,0x601e20
  400825:	48 83 3f 00          	cmp    QWORD PTR [rdi],0x0
  400829:	75 05                	jne    400830 <frame_dummy+0x10>
  40082b:	eb 93                	jmp    4007c0 <register_tm_clones>
  40082d:	0f 1f 00             	nop    DWORD PTR [rax]
  400830:	b8 00 00 00 00       	mov    eax,0x0
  400835:	48 85 c0             	test   rax,rax
  400838:	74 f1                	je     40082b <frame_dummy+0xb>
  40083a:	55                   	push   rbp
  40083b:	48 89 e5             	mov    rbp,rsp
  40083e:	ff d0                	call   rax
  400840:	5d                   	pop    rbp
  400841:	e9 7a ff ff ff       	jmp    4007c0 <register_tm_clones>

0000000000400846 <initialize>:
  400846:	55                   	push   rbp
  400847:	48 89 e5             	mov    rbp,rsp
  40084a:	48 8b 05 3f 18 20 00 	mov    rax,QWORD PTR [rip+0x20183f]        # 602090 <stdin@@GLIBC_2.2.5>
  400851:	b9 00 00 00 00       	mov    ecx,0x0
  400856:	ba 02 00 00 00       	mov    edx,0x2
  40085b:	be 00 00 00 00       	mov    esi,0x0
  400860:	48 89 c7             	mov    rdi,rax
  400863:	e8 a8 fe ff ff       	call   400710 <setvbuf@plt>
  400868:	48 8b 05 11 18 20 00 	mov    rax,QWORD PTR [rip+0x201811]        # 602080 <stdout@@GLIBC_2.2.5>
  40086f:	b9 00 00 00 00       	mov    ecx,0x0
  400874:	ba 02 00 00 00       	mov    edx,0x2
  400879:	be 00 00 00 00       	mov    esi,0x0
  40087e:	48 89 c7             	mov    rdi,rax
  400881:	e8 8a fe ff ff       	call   400710 <setvbuf@plt>
  400886:	48 8b 05 13 18 20 00 	mov    rax,QWORD PTR [rip+0x201813]        # 6020a0 <stderr@@GLIBC_2.2.5>
  40088d:	b9 00 00 00 00       	mov    ecx,0x0
  400892:	ba 02 00 00 00       	mov    edx,0x2
  400897:	be 00 00 00 00       	mov    esi,0x0
  40089c:	48 89 c7             	mov    rdi,rax
  40089f:	e8 6c fe ff ff       	call   400710 <setvbuf@plt>
  4008a4:	90                   	nop
  4008a5:	5d                   	pop    rbp
  4008a6:	c3                   	ret    

00000000004008a7 <menu>:
  4008a7:	55                   	push   rbp
  4008a8:	48 89 e5             	mov    rbp,rsp
  4008ab:	bf a8 0c 40 00       	mov    edi,0x400ca8
  4008b0:	e8 fb fd ff ff       	call   4006b0 <puts@plt>
  4008b5:	bf bf 0c 40 00       	mov    edi,0x400cbf
  4008ba:	e8 f1 fd ff ff       	call   4006b0 <puts@plt>
  4008bf:	bf d1 0c 40 00       	mov    edi,0x400cd1
  4008c4:	e8 e7 fd ff ff       	call   4006b0 <puts@plt>
  4008c9:	bf e4 0c 40 00       	mov    edi,0x400ce4
  4008ce:	e8 dd fd ff ff       	call   4006b0 <puts@plt>
  4008d3:	bf f5 0c 40 00       	mov    edi,0x400cf5
  4008d8:	e8 d3 fd ff ff       	call   4006b0 <puts@plt>
  4008dd:	bf 06 0d 40 00       	mov    edi,0x400d06
  4008e2:	e8 c9 fd ff ff       	call   4006b0 <puts@plt>
  4008e7:	bf a8 0c 40 00       	mov    edi,0x400ca8
  4008ec:	e8 bf fd ff ff       	call   4006b0 <puts@plt>
  4008f1:	90                   	nop
  4008f2:	5d                   	pop    rbp
  4008f3:	c3                   	ret    

00000000004008f4 <read_string>:
  4008f4:	55                   	push   rbp
  4008f5:	48 89 e5             	mov    rbp,rsp
  4008f8:	48 83 ec 10          	sub    rsp,0x10
  4008fc:	48 89 7d f8          	mov    QWORD PTR [rbp-0x8],rdi
  400900:	89 75 f4             	mov    DWORD PTR [rbp-0xc],esi
  400903:	8b 55 f4             	mov    edx,DWORD PTR [rbp-0xc]
  400906:	48 8b 45 f8          	mov    rax,QWORD PTR [rbp-0x8]
  40090a:	48 89 c6             	mov    rsi,rax
  40090d:	bf 00 00 00 00       	mov    edi,0x0
  400912:	b8 00 00 00 00       	mov    eax,0x0
  400917:	e8 c4 fd ff ff       	call   4006e0 <read@plt>
  40091c:	b8 00 00 00 00       	mov    eax,0x0
  400921:	c9                   	leave  
  400922:	c3                   	ret    

0000000000400923 <read_int>:
  400923:	55                   	push   rbp
  400924:	48 89 e5             	mov    rbp,rsp
  400927:	48 83 ec 20          	sub    rsp,0x20
  40092b:	64 48 8b 04 25 28 00 	mov    rax,QWORD PTR fs:0x28
  400932:	00 00 
  400934:	48 89 45 f8          	mov    QWORD PTR [rbp-0x8],rax
  400938:	31 c0                	xor    eax,eax
  40093a:	48 8d 45 e0          	lea    rax,[rbp-0x20]
  40093e:	be 10 00 00 00       	mov    esi,0x10
  400943:	48 89 c7             	mov    rdi,rax
  400946:	e8 a9 ff ff ff       	call   4008f4 <read_string>
  40094b:	48 8d 45 e0          	lea    rax,[rbp-0x20]
  40094f:	48 89 c7             	mov    rdi,rax
  400952:	e8 c9 fd ff ff       	call   400720 <atoi@plt>
  400957:	48 8b 55 f8          	mov    rdx,QWORD PTR [rbp-0x8]
  40095b:	64 48 33 14 25 28 00 	xor    rdx,QWORD PTR fs:0x28
  400962:	00 00 
  400964:	74 05                	je     40096b <read_int+0x48>
  400966:	e8 65 fd ff ff       	call   4006d0 <__stack_chk_fail@plt>
  40096b:	c9                   	leave  
  40096c:	c3                   	ret    

000000000040096d <add>:
  40096d:	55                   	push   rbp
  40096e:	48 89 e5             	mov    rbp,rsp
  400971:	48 83 ec 10          	sub    rsp,0x10
  400975:	bf 0e 0d 40 00       	mov    edi,0x400d0e
  40097a:	e8 31 fd ff ff       	call   4006b0 <puts@plt>
  40097f:	e8 9f ff ff ff       	call   400923 <read_int>
  400984:	89 45 f4             	mov    DWORD PTR [rbp-0xc],eax
  400987:	83 7d f4 7f          	cmp    DWORD PTR [rbp-0xc],0x7f
  40098b:	7f 14                	jg     4009a1 <add+0x34>
  40098d:	bf 26 0d 40 00       	mov    edi,0x400d26
  400992:	e8 19 fd ff ff       	call   4006b0 <puts@plt>
  400997:	bf 00 00 00 00       	mov    edi,0x0
  40099c:	e8 8f fd ff ff       	call   400730 <exit@plt>
  4009a1:	c7 45 f0 00 00 00 00 	mov    DWORD PTR [rbp-0x10],0x0
  4009a8:	eb 16                	jmp    4009c0 <add+0x53>
  4009aa:	8b 45 f0             	mov    eax,DWORD PTR [rbp-0x10]
  4009ad:	48 98                	cdqe   
  4009af:	48 8b 04 c5 c0 20 60 	mov    rax,QWORD PTR [rax*8+0x6020c0]
  4009b6:	00 
  4009b7:	48 85 c0             	test   rax,rax
  4009ba:	74 0c                	je     4009c8 <add+0x5b>
  4009bc:	83 45 f0 01          	add    DWORD PTR [rbp-0x10],0x1
  4009c0:	83 7d f0 0f          	cmp    DWORD PTR [rbp-0x10],0xf
  4009c4:	7e e4                	jle    4009aa <add+0x3d>
  4009c6:	eb 01                	jmp    4009c9 <add+0x5c>
  4009c8:	90                   	nop
  4009c9:	8b 45 f4             	mov    eax,DWORD PTR [rbp-0xc]
  4009cc:	48 98                	cdqe   
  4009ce:	48 89 c7             	mov    rdi,rax
  4009d1:	e8 2a fd ff ff       	call   400700 <malloc@plt>
  4009d6:	48 89 45 f8          	mov    QWORD PTR [rbp-0x8],rax
  4009da:	48 83 7d f8 00       	cmp    QWORD PTR [rbp-0x8],0x0
  4009df:	75 14                	jne    4009f5 <add+0x88>
  4009e1:	bf 38 0d 40 00       	mov    edi,0x400d38
  4009e6:	e8 c5 fc ff ff       	call   4006b0 <puts@plt>
  4009eb:	bf 00 00 00 00       	mov    edi,0x0
  4009f0:	e8 3b fd ff ff       	call   400730 <exit@plt>
  4009f5:	bf 45 0d 40 00       	mov    edi,0x400d45
  4009fa:	e8 b1 fc ff ff       	call   4006b0 <puts@plt>
  4009ff:	8b 55 f4             	mov    edx,DWORD PTR [rbp-0xc]
  400a02:	48 8b 45 f8          	mov    rax,QWORD PTR [rbp-0x8]
  400a06:	89 d6                	mov    esi,edx
  400a08:	48 89 c7             	mov    rdi,rax
  400a0b:	e8 e4 fe ff ff       	call   4008f4 <read_string>
  400a10:	8b 45 f0             	mov    eax,DWORD PTR [rbp-0x10]
  400a13:	48 98                	cdqe   
  400a15:	48 8b 55 f8          	mov    rdx,QWORD PTR [rbp-0x8]
  400a19:	48 89 14 c5 c0 20 60 	mov    QWORD PTR [rax*8+0x6020c0],rdx
  400a20:	00 
  400a21:	90                   	nop
  400a22:	c9                   	leave  
  400a23:	c3                   	ret    

0000000000400a24 <show>:
  400a24:	55                   	push   rbp
  400a25:	48 89 e5             	mov    rbp,rsp
  400a28:	48 83 ec 10          	sub    rsp,0x10
  400a2c:	bf 5e 0d 40 00       	mov    edi,0x400d5e
  400a31:	e8 7a fc ff ff       	call   4006b0 <puts@plt>
  400a36:	e8 e8 fe ff ff       	call   400923 <read_int>
  400a3b:	89 45 fc             	mov    DWORD PTR [rbp-0x4],eax
  400a3e:	83 7d fc 00          	cmp    DWORD PTR [rbp-0x4],0x0
  400a42:	78 06                	js     400a4a <show+0x26>
  400a44:	83 7d fc 10          	cmp    DWORD PTR [rbp-0x4],0x10
  400a48:	7e 0c                	jle    400a56 <show+0x32>
  400a4a:	bf 77 0d 40 00       	mov    edi,0x400d77
  400a4f:	e8 5c fc ff ff       	call   4006b0 <puts@plt>
  400a54:	eb 3e                	jmp    400a94 <show+0x70>
  400a56:	8b 45 fc             	mov    eax,DWORD PTR [rbp-0x4]
  400a59:	48 98                	cdqe   
  400a5b:	48 8b 04 c5 c0 20 60 	mov    rax,QWORD PTR [rax*8+0x6020c0]
  400a62:	00 
  400a63:	48 85 c0             	test   rax,rax
  400a66:	75 0c                	jne    400a74 <show+0x50>
  400a68:	bf 85 0d 40 00       	mov    edi,0x400d85
  400a6d:	e8 3e fc ff ff       	call   4006b0 <puts@plt>
  400a72:	eb 20                	jmp    400a94 <show+0x70>
  400a74:	bf 92 0d 40 00       	mov    edi,0x400d92
  400a79:	e8 32 fc ff ff       	call   4006b0 <puts@plt>
  400a7e:	8b 45 fc             	mov    eax,DWORD PTR [rbp-0x4]
  400a81:	48 98                	cdqe   
  400a83:	48 8b 04 c5 c0 20 60 	mov    rax,QWORD PTR [rax*8+0x6020c0]
  400a8a:	00 
  400a8b:	48 89 c7             	mov    rdi,rax
  400a8e:	e8 1d fc ff ff       	call   4006b0 <puts@plt>
  400a93:	90                   	nop
  400a94:	c9                   	leave  
  400a95:	c3                   	ret    

0000000000400a96 <delete>:
  400a96:	55                   	push   rbp
  400a97:	48 89 e5             	mov    rbp,rsp
  400a9a:	48 83 ec 10          	sub    rsp,0x10
  400a9e:	bf 5e 0d 40 00       	mov    edi,0x400d5e
  400aa3:	e8 08 fc ff ff       	call   4006b0 <puts@plt>
  400aa8:	e8 76 fe ff ff       	call   400923 <read_int>
  400aad:	89 45 fc             	mov    DWORD PTR [rbp-0x4],eax
  400ab0:	83 7d fc 00          	cmp    DWORD PTR [rbp-0x4],0x0
  400ab4:	78 06                	js     400abc <delete+0x26>
  400ab6:	83 7d fc 10          	cmp    DWORD PTR [rbp-0x4],0x10
  400aba:	7e 0c                	jle    400ac8 <delete+0x32>
  400abc:	bf 77 0d 40 00       	mov    edi,0x400d77
  400ac1:	e8 ea fb ff ff       	call   4006b0 <puts@plt>
  400ac6:	eb 4f                	jmp    400b17 <delete+0x81>
  400ac8:	8b 45 fc             	mov    eax,DWORD PTR [rbp-0x4]
  400acb:	48 98                	cdqe   
  400acd:	48 8b 04 c5 c0 20 60 	mov    rax,QWORD PTR [rax*8+0x6020c0]
  400ad4:	00 
  400ad5:	48 85 c0             	test   rax,rax
  400ad8:	75 0c                	jne    400ae6 <delete+0x50>
  400ada:	bf 85 0d 40 00       	mov    edi,0x400d85
  400adf:	e8 cc fb ff ff       	call   4006b0 <puts@plt>
  400ae4:	eb 31                	jmp    400b17 <delete+0x81>
  400ae6:	8b 45 fc             	mov    eax,DWORD PTR [rbp-0x4]
  400ae9:	48 98                	cdqe   
  400aeb:	48 8b 04 c5 c0 20 60 	mov    rax,QWORD PTR [rax*8+0x6020c0]
  400af2:	00 
  400af3:	48 89 c7             	mov    rdi,rax
  400af6:	e8 a5 fb ff ff       	call   4006a0 <free@plt>
  400afb:	8b 45 fc             	mov    eax,DWORD PTR [rbp-0x4]
  400afe:	48 98                	cdqe   
  400b00:	48 c7 04 c5 c0 20 60 	mov    QWORD PTR [rax*8+0x6020c0],0x0
  400b07:	00 00 00 00 00 
  400b0c:	bf 99 0d 40 00       	mov    edi,0x400d99
  400b11:	e8 9a fb ff ff       	call   4006b0 <puts@plt>
  400b16:	90                   	nop
  400b17:	c9                   	leave  
  400b18:	c3                   	ret    

0000000000400b19 <edit>:
  400b19:	55                   	push   rbp
  400b1a:	48 89 e5             	mov    rbp,rsp
  400b1d:	48 83 ec 10          	sub    rsp,0x10
  400b21:	bf 5e 0d 40 00       	mov    edi,0x400d5e
  400b26:	e8 85 fb ff ff       	call   4006b0 <puts@plt>
  400b2b:	e8 f3 fd ff ff       	call   400923 <read_int>
  400b30:	89 45 f8             	mov    DWORD PTR [rbp-0x8],eax
  400b33:	83 7d f8 00          	cmp    DWORD PTR [rbp-0x8],0x0
  400b37:	78 06                	js     400b3f <edit+0x26>
  400b39:	83 7d f8 10          	cmp    DWORD PTR [rbp-0x8],0x10
  400b3d:	7e 0c                	jle    400b4b <edit+0x32>
  400b3f:	bf 77 0d 40 00       	mov    edi,0x400d77
  400b44:	e8 67 fb ff ff       	call   4006b0 <puts@plt>
  400b49:	eb 5b                	jmp    400ba6 <edit+0x8d>
  400b4b:	8b 45 f8             	mov    eax,DWORD PTR [rbp-0x8]
  400b4e:	48 98                	cdqe   
  400b50:	48 8b 04 c5 c0 20 60 	mov    rax,QWORD PTR [rax*8+0x6020c0]
  400b57:	00 
  400b58:	48 85 c0             	test   rax,rax
  400b5b:	75 0c                	jne    400b69 <edit+0x50>
  400b5d:	bf 85 0d 40 00       	mov    edi,0x400d85
  400b62:	e8 49 fb ff ff       	call   4006b0 <puts@plt>
  400b67:	eb 3d                	jmp    400ba6 <edit+0x8d>
  400b69:	8b 45 f8             	mov    eax,DWORD PTR [rbp-0x8]
  400b6c:	48 98                	cdqe   
  400b6e:	48 8b 04 c5 c0 20 60 	mov    rax,QWORD PTR [rax*8+0x6020c0]
  400b75:	00 
  400b76:	48 89 c7             	mov    rdi,rax
  400b79:	e8 42 fb ff ff       	call   4006c0 <strlen@plt>
  400b7e:	89 45 fc             	mov    DWORD PTR [rbp-0x4],eax
  400b81:	bf 45 0d 40 00       	mov    edi,0x400d45
  400b86:	e8 25 fb ff ff       	call   4006b0 <puts@plt>
  400b8b:	8b 45 f8             	mov    eax,DWORD PTR [rbp-0x8]
  400b8e:	48 98                	cdqe   
  400b90:	48 8b 04 c5 c0 20 60 	mov    rax,QWORD PTR [rax*8+0x6020c0]
  400b97:	00 
  400b98:	8b 55 fc             	mov    edx,DWORD PTR [rbp-0x4]
  400b9b:	89 d6                	mov    esi,edx
  400b9d:	48 89 c7             	mov    rdi,rax
  400ba0:	e8 4f fd ff ff       	call   4008f4 <read_string>
  400ba5:	90                   	nop
  400ba6:	c9                   	leave  
  400ba7:	c3                   	ret    

0000000000400ba8 <main>:
  400ba8:	55                   	push   rbp
  400ba9:	48 89 e5             	mov    rbp,rsp
  400bac:	48 83 ec 10          	sub    rsp,0x10
  400bb0:	89 7d fc             	mov    DWORD PTR [rbp-0x4],edi
  400bb3:	48 89 75 f0          	mov    QWORD PTR [rbp-0x10],rsi
  400bb7:	e8 8a fc ff ff       	call   400846 <initialize>
  400bbc:	e8 e6 fc ff ff       	call   4008a7 <menu>
  400bc1:	bf a1 0d 40 00       	mov    edi,0x400da1
  400bc6:	e8 e5 fa ff ff       	call   4006b0 <puts@plt>
  400bcb:	e8 53 fd ff ff       	call   400923 <read_int>
  400bd0:	83 f8 05             	cmp    eax,0x5
  400bd3:	77 3c                	ja     400c11 <main+0x69>
  400bd5:	89 c0                	mov    eax,eax
  400bd7:	48 8b 04 c5 c8 0d 40 	mov    rax,QWORD PTR [rax*8+0x400dc8]
  400bde:	00 
  400bdf:	ff e0                	jmp    rax
  400be1:	e8 87 fd ff ff       	call   40096d <add>
  400be6:	eb 33                	jmp    400c1b <main+0x73>
  400be8:	e8 a9 fe ff ff       	call   400a96 <delete>
  400bed:	eb 2c                	jmp    400c1b <main+0x73>
  400bef:	e8 30 fe ff ff       	call   400a24 <show>
  400bf4:	eb 25                	jmp    400c1b <main+0x73>
  400bf6:	e8 1e ff ff ff       	call   400b19 <edit>
  400bfb:	eb 1e                	jmp    400c1b <main+0x73>
  400bfd:	bf af 0d 40 00       	mov    edi,0x400daf
  400c02:	e8 a9 fa ff ff       	call   4006b0 <puts@plt>
  400c07:	bf 00 00 00 00       	mov    edi,0x0
  400c0c:	e8 1f fb ff ff       	call   400730 <exit@plt>
  400c11:	bf b7 0d 40 00       	mov    edi,0x400db7
  400c16:	e8 95 fa ff ff       	call   4006b0 <puts@plt>
  400c1b:	eb 9f                	jmp    400bbc <main+0x14>
  400c1d:	0f 1f 00             	nop    DWORD PTR [rax]

0000000000400c20 <__libc_csu_init>:
  400c20:	41 57                	push   r15
  400c22:	41 56                	push   r14
  400c24:	41 89 ff             	mov    r15d,edi
  400c27:	41 55                	push   r13
  400c29:	41 54                	push   r12
  400c2b:	4c 8d 25 de 11 20 00 	lea    r12,[rip+0x2011de]        # 601e10 <__frame_dummy_init_array_entry>
  400c32:	55                   	push   rbp
  400c33:	48 8d 2d de 11 20 00 	lea    rbp,[rip+0x2011de]        # 601e18 <__init_array_end>
  400c3a:	53                   	push   rbx
  400c3b:	49 89 f6             	mov    r14,rsi
  400c3e:	49 89 d5             	mov    r13,rdx
  400c41:	4c 29 e5             	sub    rbp,r12
  400c44:	48 83 ec 08          	sub    rsp,0x8
  400c48:	48 c1 fd 03          	sar    rbp,0x3
  400c4c:	e8 17 fa ff ff       	call   400668 <_init>
  400c51:	48 85 ed             	test   rbp,rbp
  400c54:	74 20                	je     400c76 <__libc_csu_init+0x56>
  400c56:	31 db                	xor    ebx,ebx
  400c58:	0f 1f 84 00 00 00 00 	nop    DWORD PTR [rax+rax*1+0x0]
  400c5f:	00 
  400c60:	4c 89 ea             	mov    rdx,r13
  400c63:	4c 89 f6             	mov    rsi,r14
  400c66:	44 89 ff             	mov    edi,r15d
  400c69:	41 ff 14 dc          	call   QWORD PTR [r12+rbx*8]
  400c6d:	48 83 c3 01          	add    rbx,0x1
  400c71:	48 39 eb             	cmp    rbx,rbp
  400c74:	75 ea                	jne    400c60 <__libc_csu_init+0x40>
  400c76:	48 83 c4 08          	add    rsp,0x8
  400c7a:	5b                   	pop    rbx
  400c7b:	5d                   	pop    rbp
  400c7c:	41 5c                	pop    r12
  400c7e:	41 5d                	pop    r13
  400c80:	41 5e                	pop    r14
  400c82:	41 5f                	pop    r15
  400c84:	c3                   	ret    
  400c85:	90                   	nop
  400c86:	66 2e 0f 1f 84 00 00 	nop    WORD PTR cs:[rax+rax*1+0x0]
  400c8d:	00 00 00 

0000000000400c90 <__libc_csu_fini>:
  400c90:	f3 c3                	repz ret 

Disassembly of section .fini:

0000000000400c94 <_fini>:
  400c94:	48 83 ec 08          	sub    rsp,0x8
  400c98:	48 83 c4 08          	add    rsp,0x8
  400c9c:	c3                   	ret    
