32 ---
   0:   20                      .byte 0x20
33 ---
   0:   21                      .byte 0x21
34 ---
   0:   22                      .byte 0x22
35 ---
   0:   23                      .byte 0x23
36 ---
   0:   24                      .byte 0x24
37 ---
   0:   25                      .byte 0x25
38 ---
   0:   26                      es
39 ---
   0:   27                      daa
40 ---
   0:   28                      .byte 0x28
41 ---
   0:   29                      .byte 0x29
42 ---
   0:   2a                      .byte 0x2a
43 ---
   0:   2b                      .byte 0x2b
44 ---
   0:   2c                      .byte 0x2c
45 ---
   0:   2d                      .byte 0x2d
46 ---
   0:   2e                      cs
47 ---
   0:   2f                      das
48 ---
   0:   30                      .byte 0x30
49 ---
   0:   31                      .byte 0x31
50 ---
   0:   32                      .byte 0x32
51 ---
   0:   33                      .byte 0x33
52 ---
   0:   34                      .byte 0x34
53 ---
   0:   35                      .byte 0x35
54 ---
   0:   36                      ss
55 ---
   0:   37                      aaa
56 ---
   0:   38                      .byte 0x38
57 ---
   0:   39                      .byte 0x39
58 ---
   0:   3a                      .byte 0x3a
59 ---
   0:   3b                      .byte 0x3b
60 ---
   0:   3c                      .byte 0x3c
61 ---
   0:   3d                      .byte 0x3d
62 ---
   0:   3e                      ds
63 ---
   0:   3f                      aas
64 ---
   0:   40                      inc    eax
65 ---
   0:   41                      inc    ecx
66 ---
   0:   42                      inc    edx
67 ---
   0:   43                      inc    ebx
68 ---
   0:   44                      inc    esp
69 ---
   0:   45                      inc    ebp
70 ---
   0:   46                      inc    esi
71 ---
   0:   47                      inc    edi
72 ---
   0:   48                      dec    eax
73 ---
   0:   49                      dec    ecx
74 ---
   0:   4a                      dec    edx
75 ---
   0:   4b                      dec    ebx
76 ---
   0:   4c                      dec    esp
77 ---
   0:   4d                      dec    ebp
78 ---
   0:   4e                      dec    esi
79 ---
   0:   4f                      dec    edi
80 ---
   0:   50                      push   eax
81 ---
   0:   51                      push   ecx
82 ---
   0:   52                      push   edx
83 ---
   0:   53                      push   ebx
84 ---
   0:   54                      push   esp
85 ---
   0:   55                      push   ebp
86 ---
   0:   56                      push   esi
87 ---
   0:   57                      push   edi
88 ---
   0:   58                      pop    eax
89 ---
   0:   59                      pop    ecx
90 ---
   0:   5a                      pop    edx
91 ---
   0:   5b                      pop    ebx
92 ---
   0:   5c                      pop    esp
93 ---
   0:   5d                      pop    ebp
94 ---
   0:   5e                      pop    esi
95 ---
   0:   5f                      pop    edi
96 ---
   0:   60                      pusha
97 ---
   0:   61                      popa
98 ---
   0:   62                      .byte 0x62
99 ---
   0:   63                      .byte 0x63
100 ---
   0:   64                      fs
101 ---
   0:   65                      gs
102 ---
   0:   66                      data16
103 ---
   0:   67                      addr16
104 ---
   0:   68                      .byte 0x68
105 ---
   0:   69                      .byte 0x69
106 ---
   0:   6a                      .byte 0x6a
107 ---
   0:   6b                      .byte 0x6b
108 ---
   0:   6c                      ins    BYTE PTR es:[edi],dx
109 ---
   0:   6d                      ins    DWORD PTR es:[edi],dx
110 ---
   0:   6e                      outs   dx,BYTE PTR ds:[esi]
111 ---
   0:   6f                      outs   dx,DWORD PTR ds:[esi]
112 ---
   0:   70                      .byte 0x70
113 ---
   0:   71                      .byte 0x71
114 ---
   0:   72                      .byte 0x72
115 ---
   0:   73                      .byte 0x73
116 ---
   0:   74                      .byte 0x74
117 ---
   0:   75                      .byte 0x75
118 ---
   0:   76                      .byte 0x76
119 ---
   0:   77                      .byte 0x77
120 ---
   0:   78                      .byte 0x78
121 ---
   0:   79                      .byte 0x79
122 ---
   0:   7a                      .byte 0x7a
123 ---
   0:   7b                      .byte 0x7b
124 ---
   0:   7c                      .byte 0x7c
125 ---
   0:   7d                      .byte 0x7d
126 ---
   0:   7e                      .byte 0x7e
32 32 ---
   0:   20 20                   and    BYTE PTR [eax],ah
32 33 ---
   0:   20 21                   and    BYTE PTR [ecx],ah
32 34 ---
   0:   20 22                   and    BYTE PTR [edx],ah
32 35 ---
   0:   20 23                   and    BYTE PTR [ebx],ah
32 36 ---
   0:   20                      .byte 0x20
   1:   24                      .byte 0x24
32 37 ---
   0:   20                      .byte 0x20
   1:   25                      .byte 0x25
32 38 ---
   0:   20 26                   and    BYTE PTR [esi],ah
32 39 ---
   0:   20 27                   and    BYTE PTR [edi],ah
32 40 ---
   0:   20 28                   and    BYTE PTR [eax],ch
32 41 ---
   0:   20 29                   and    BYTE PTR [ecx],ch
32 42 ---
   0:   20 2a                   and    BYTE PTR [edx],ch
32 43 ---
   0:   20 2b                   and    BYTE PTR [ebx],ch
32 44 ---
   0:   20                      .byte 0x20
   1:   2c                      .byte 0x2c
32 45 ---
   0:   20                      .byte 0x20
   1:   2d                      .byte 0x2d
32 46 ---
   0:   20 2e                   and    BYTE PTR [esi],ch
32 47 ---
   0:   20 2f                   and    BYTE PTR [edi],ch
32 48 ---
   0:   20 30                   and    BYTE PTR [eax],dh
32 49 ---
   0:   20 31                   and    BYTE PTR [ecx],dh
32 50 ---
   0:   20 32                   and    BYTE PTR [edx],dh
32 51 ---
   0:   20 33                   and    BYTE PTR [ebx],dh
32 52 ---
   0:   20                      .byte 0x20
   1:   34                      .byte 0x34
32 53 ---
   0:   20                      .byte 0x20
   1:   35                      .byte 0x35
32 54 ---
   0:   20 36                   and    BYTE PTR [esi],dh
32 55 ---
   0:   20 37                   and    BYTE PTR [edi],dh
32 56 ---
   0:   20 38                   and    BYTE PTR [eax],bh
32 57 ---
   0:   20 39                   and    BYTE PTR [ecx],bh
32 58 ---
   0:   20 3a                   and    BYTE PTR [edx],bh
32 59 ---
   0:   20 3b                   and    BYTE PTR [ebx],bh
32 60 ---
   0:   20                      .byte 0x20
   1:   3c                      .byte 0x3c
32 61 ---
   0:   20                      .byte 0x20
   1:   3d                      .byte 0x3d
32 62 ---
   0:   20 3e                   and    BYTE PTR [esi],bh
32 63 ---
   0:   20 3f                   and    BYTE PTR [edi],bh
32 64 ---
   0:   20                      .byte 0x20
   1:   40                      inc    eax
32 65 ---
   0:   20                      .byte 0x20
   1:   41                      inc    ecx
32 66 ---
   0:   20                      .byte 0x20
   1:   42                      inc    edx
32 67 ---
   0:   20                      .byte 0x20
   1:   43                      inc    ebx
32 68 ---
   0:   20                      .byte 0x20
   1:   44                      inc    esp
32 69 ---
   0:   20                      .byte 0x20
   1:   45                      inc    ebp
32 70 ---
   0:   20                      .byte 0x20
   1:   46                      inc    esi
32 71 ---
   0:   20                      .byte 0x20
   1:   47                      inc    edi
32 72 ---
   0:   20                      .byte 0x20
   1:   48                      dec    eax
32 73 ---
   0:   20                      .byte 0x20
   1:   49                      dec    ecx
32 74 ---
   0:   20                      .byte 0x20
   1:   4a                      dec    edx
32 75 ---
   0:   20                      .byte 0x20
   1:   4b                      dec    ebx
32 76 ---
   0:   20                      .byte 0x20
   1:   4c                      dec    esp
32 77 ---
   0:   20                      .byte 0x20
   1:   4d                      dec    ebp
32 78 ---
   0:   20                      .byte 0x20
   1:   4e                      dec    esi
32 79 ---
   0:   20                      .byte 0x20
   1:   4f                      dec    edi
32 80 ---
   0:   20                      .byte 0x20
   1:   50                      push   eax
32 81 ---
   0:   20                      .byte 0x20
   1:   51                      push   ecx
32 82 ---
   0:   20                      .byte 0x20
   1:   52                      push   edx
32 83 ---
   0:   20                      .byte 0x20
   1:   53                      push   ebx
32 84 ---
   0:   20                      .byte 0x20
   1:   54                      push   esp
32 85 ---
   0:   20                      .byte 0x20
   1:   55                      push   ebp
32 86 ---
   0:   20                      .byte 0x20
   1:   56                      push   esi
32 87 ---
   0:   20                      .byte 0x20
   1:   57                      push   edi
32 88 ---
   0:   20                      .byte 0x20
   1:   58                      pop    eax
32 89 ---
   0:   20                      .byte 0x20
   1:   59                      pop    ecx
32 90 ---
   0:   20                      .byte 0x20
   1:   5a                      pop    edx
32 91 ---
   0:   20                      .byte 0x20
   1:   5b                      pop    ebx
32 92 ---
   0:   20                      .byte 0x20
   1:   5c                      pop    esp
32 93 ---
   0:   20                      .byte 0x20
   1:   5d                      pop    ebp
32 94 ---
   0:   20                      .byte 0x20
   1:   5e                      pop    esi
32 95 ---
   0:   20                      .byte 0x20
   1:   5f                      pop    edi
32 96 ---
   0:   20                      .byte 0x20
   1:   60                      pusha
32 97 ---
   0:   20                      .byte 0x20
   1:   61                      popa
32 98 ---
   0:   20                      .byte 0x20
   1:   62                      .byte 0x62
32 99 ---
   0:   20                      .byte 0x20
   1:   63                      .byte 0x63
32 100 ---
   0:   20                      .byte 0x20
   1:   64                      fs
32 101 ---
   0:   20                      .byte 0x20
   1:   65                      gs
32 102 ---
   0:   20                      .byte 0x20
   1:   66                      data16
32 103 ---
   0:   20                      .byte 0x20
   1:   67                      addr16
32 104 ---
   0:   20                      .byte 0x20
   1:   68                      .byte 0x68
32 105 ---
   0:   20                      .byte 0x20
   1:   69                      .byte 0x69
32 106 ---
   0:   20                      .byte 0x20
   1:   6a                      .byte 0x6a
32 107 ---
   0:   20                      .byte 0x20
   1:   6b                      .byte 0x6b
32 108 ---
   0:   20                      .byte 0x20
   1:   6c                      ins    BYTE PTR es:[edi],dx
32 109 ---
   0:   20                      .byte 0x20
   1:   6d                      ins    DWORD PTR es:[edi],dx
32 110 ---
   0:   20                      .byte 0x20
   1:   6e                      outs   dx,BYTE PTR ds:[esi]
32 111 ---
   0:   20                      .byte 0x20
   1:   6f                      outs   dx,DWORD PTR ds:[esi]
32 112 ---
   0:   20                      .byte 0x20
   1:   70                      .byte 0x70
32 113 ---
   0:   20                      .byte 0x20
   1:   71                      .byte 0x71
32 114 ---
   0:   20                      .byte 0x20
   1:   72                      .byte 0x72
32 115 ---
   0:   20                      .byte 0x20
   1:   73                      .byte 0x73
32 116 ---
   0:   20                      .byte 0x20
   1:   74                      .byte 0x74
32 117 ---
   0:   20                      .byte 0x20
   1:   75                      .byte 0x75
32 118 ---
   0:   20                      .byte 0x20
   1:   76                      .byte 0x76
32 119 ---
   0:   20                      .byte 0x20
   1:   77                      .byte 0x77
32 120 ---
   0:   20                      .byte 0x20
   1:   78                      .byte 0x78
32 121 ---
   0:   20                      .byte 0x20
   1:   79                      .byte 0x79
32 122 ---
   0:   20                      .byte 0x20
   1:   7a                      .byte 0x7a
32 123 ---
   0:   20                      .byte 0x20
   1:   7b                      .byte 0x7b
32 124 ---
   0:   20                      .byte 0x20
   1:   7c                      .byte 0x7c
32 125 ---
   0:   20                      .byte 0x20
   1:   7d                      .byte 0x7d
32 126 ---
   0:   20                      .byte 0x20
   1:   7e                      .byte 0x7e
33 32 ---
   0:   21 20                   and    DWORD PTR [eax],esp
33 33 ---
   0:   21 21                   and    DWORD PTR [ecx],esp
33 34 ---
   0:   21 22                   and    DWORD PTR [edx],esp
33 35 ---
   0:   21 23                   and    DWORD PTR [ebx],esp
33 36 ---
   0:   21                      .byte 0x21
   1:   24                      .byte 0x24
33 37 ---
   0:   21                      .byte 0x21
   1:   25                      .byte 0x25
33 38 ---
   0:   21 26                   and    DWORD PTR [esi],esp
33 39 ---
   0:   21 27                   and    DWORD PTR [edi],esp
33 40 ---
   0:   21 28                   and    DWORD PTR [eax],ebp
33 41 ---
   0:   21 29                   and    DWORD PTR [ecx],ebp
33 42 ---
   0:   21 2a                   and    DWORD PTR [edx],ebp
33 43 ---
   0:   21 2b                   and    DWORD PTR [ebx],ebp
33 44 ---
   0:   21                      .byte 0x21
   1:   2c                      .byte 0x2c
33 45 ---
   0:   21                      .byte 0x21
   1:   2d                      .byte 0x2d
33 46 ---
   0:   21 2e                   and    DWORD PTR [esi],ebp
33 47 ---
   0:   21 2f                   and    DWORD PTR [edi],ebp
33 48 ---
   0:   21 30                   and    DWORD PTR [eax],esi
33 49 ---
   0:   21 31                   and    DWORD PTR [ecx],esi
33 50 ---
   0:   21 32                   and    DWORD PTR [edx],esi
33 51 ---
   0:   21 33                   and    DWORD PTR [ebx],esi
33 52 ---
   0:   21                      .byte 0x21
   1:   34                      .byte 0x34
33 53 ---
   0:   21                      .byte 0x21
   1:   35                      .byte 0x35
33 54 ---
   0:   21 36                   and    DWORD PTR [esi],esi
33 55 ---
   0:   21 37                   and    DWORD PTR [edi],esi
33 56 ---
   0:   21 38                   and    DWORD PTR [eax],edi
33 57 ---
   0:   21 39                   and    DWORD PTR [ecx],edi
33 58 ---
   0:   21 3a                   and    DWORD PTR [edx],edi
33 59 ---
   0:   21 3b                   and    DWORD PTR [ebx],edi
33 60 ---
   0:   21                      .byte 0x21
   1:   3c                      .byte 0x3c
33 61 ---
   0:   21                      .byte 0x21
   1:   3d                      .byte 0x3d
33 62 ---
   0:   21 3e                   and    DWORD PTR [esi],edi
33 63 ---
   0:   21 3f                   and    DWORD PTR [edi],edi
33 64 ---
   0:   21                      .byte 0x21
   1:   40                      inc    eax
33 65 ---
   0:   21                      .byte 0x21
   1:   41                      inc    ecx
33 66 ---
   0:   21                      .byte 0x21
   1:   42                      inc    edx
33 67 ---
   0:   21                      .byte 0x21
   1:   43                      inc    ebx
33 68 ---
   0:   21                      .byte 0x21
   1:   44                      inc    esp
33 69 ---
   0:   21                      .byte 0x21
   1:   45                      inc    ebp
33 70 ---
   0:   21                      .byte 0x21
   1:   46                      inc    esi
33 71 ---
   0:   21                      .byte 0x21
   1:   47                      inc    edi
33 72 ---
   0:   21                      .byte 0x21
   1:   48                      dec    eax
33 73 ---
   0:   21                      .byte 0x21
   1:   49                      dec    ecx
33 74 ---
   0:   21                      .byte 0x21
   1:   4a                      dec    edx
33 75 ---
   0:   21                      .byte 0x21
   1:   4b                      dec    ebx
33 76 ---
   0:   21                      .byte 0x21
   1:   4c                      dec    esp
33 77 ---
   0:   21                      .byte 0x21
   1:   4d                      dec    ebp
33 78 ---
   0:   21                      .byte 0x21
   1:   4e                      dec    esi
33 79 ---
   0:   21                      .byte 0x21
   1:   4f                      dec    edi
33 80 ---
   0:   21                      .byte 0x21
   1:   50                      push   eax
33 81 ---
   0:   21                      .byte 0x21
   1:   51                      push   ecx
33 82 ---
   0:   21                      .byte 0x21
   1:   52                      push   edx
33 83 ---
   0:   21                      .byte 0x21
   1:   53                      push   ebx
33 84 ---
   0:   21                      .byte 0x21
   1:   54                      push   esp
33 85 ---
   0:   21                      .byte 0x21
   1:   55                      push   ebp
33 86 ---
   0:   21                      .byte 0x21
   1:   56                      push   esi
33 87 ---
   0:   21                      .byte 0x21
   1:   57                      push   edi
33 88 ---
   0:   21                      .byte 0x21
   1:   58                      pop    eax
33 89 ---
   0:   21                      .byte 0x21
   1:   59                      pop    ecx
33 90 ---
   0:   21                      .byte 0x21
   1:   5a                      pop    edx
33 91 ---
   0:   21                      .byte 0x21
   1:   5b                      pop    ebx
33 92 ---
   0:   21                      .byte 0x21
   1:   5c                      pop    esp
33 93 ---
   0:   21                      .byte 0x21
   1:   5d                      pop    ebp
33 94 ---
   0:   21                      .byte 0x21
   1:   5e                      pop    esi
33 95 ---
   0:   21                      .byte 0x21
   1:   5f                      pop    edi
33 96 ---
   0:   21                      .byte 0x21
   1:   60                      pusha
33 97 ---
   0:   21                      .byte 0x21
   1:   61                      popa
33 98 ---
   0:   21                      .byte 0x21
   1:   62                      .byte 0x62
33 99 ---
   0:   21                      .byte 0x21
   1:   63                      .byte 0x63
33 100 ---
   0:   21                      .byte 0x21
   1:   64                      fs
33 101 ---
   0:   21                      .byte 0x21
   1:   65                      gs
33 102 ---
   0:   21                      .byte 0x21
   1:   66                      data16
33 103 ---
   0:   21                      .byte 0x21
   1:   67                      addr16
33 104 ---
   0:   21                      .byte 0x21
   1:   68                      .byte 0x68
33 105 ---
   0:   21                      .byte 0x21
   1:   69                      .byte 0x69
33 106 ---
   0:   21                      .byte 0x21
   1:   6a                      .byte 0x6a
33 107 ---
   0:   21                      .byte 0x21
   1:   6b                      .byte 0x6b
33 108 ---
   0:   21                      .byte 0x21
   1:   6c                      ins    BYTE PTR es:[edi],dx
33 109 ---
   0:   21                      .byte 0x21
   1:   6d                      ins    DWORD PTR es:[edi],dx
33 110 ---
   0:   21                      .byte 0x21
   1:   6e                      outs   dx,BYTE PTR ds:[esi]
33 111 ---
   0:   21                      .byte 0x21
   1:   6f                      outs   dx,DWORD PTR ds:[esi]
33 112 ---
   0:   21                      .byte 0x21
   1:   70                      .byte 0x70
33 113 ---
   0:   21                      .byte 0x21
   1:   71                      .byte 0x71
33 114 ---
   0:   21                      .byte 0x21
   1:   72                      .byte 0x72
33 115 ---
   0:   21                      .byte 0x21
   1:   73                      .byte 0x73
33 116 ---
   0:   21                      .byte 0x21
   1:   74                      .byte 0x74
33 117 ---
   0:   21                      .byte 0x21
   1:   75                      .byte 0x75
33 118 ---
   0:   21                      .byte 0x21
   1:   76                      .byte 0x76
33 119 ---
   0:   21                      .byte 0x21
   1:   77                      .byte 0x77
33 120 ---
   0:   21                      .byte 0x21
   1:   78                      .byte 0x78
33 121 ---
   0:   21                      .byte 0x21
   1:   79                      .byte 0x79
33 122 ---
   0:   21                      .byte 0x21
   1:   7a                      .byte 0x7a
33 123 ---
   0:   21                      .byte 0x21
   1:   7b                      .byte 0x7b
33 124 ---
   0:   21                      .byte 0x21
   1:   7c                      .byte 0x7c
33 125 ---
   0:   21                      .byte 0x21
   1:   7d                      .byte 0x7d
33 126 ---
   0:   21                      .byte 0x21
   1:   7e                      .byte 0x7e
34 32 ---
   0:   22 20                   and    ah,BYTE PTR [eax]
34 33 ---
   0:   22 21                   and    ah,BYTE PTR [ecx]
34 34 ---
   0:   22 22                   and    ah,BYTE PTR [edx]
34 35 ---
   0:   22 23                   and    ah,BYTE PTR [ebx]
34 36 ---
   0:   22                      .byte 0x22
   1:   24                      .byte 0x24
34 37 ---
   0:   22                      .byte 0x22
   1:   25                      .byte 0x25
34 38 ---
   0:   22 26                   and    ah,BYTE PTR [esi]
34 39 ---
   0:   22 27                   and    ah,BYTE PTR [edi]
34 40 ---
   0:   22 28                   and    ch,BYTE PTR [eax]
34 41 ---
   0:   22 29                   and    ch,BYTE PTR [ecx]
34 42 ---
   0:   22 2a                   and    ch,BYTE PTR [edx]
34 43 ---
   0:   22 2b                   and    ch,BYTE PTR [ebx]
34 44 ---
   0:   22                      .byte 0x22
   1:   2c                      .byte 0x2c
34 45 ---
   0:   22                      .byte 0x22
   1:   2d                      .byte 0x2d
34 46 ---
   0:   22 2e                   and    ch,BYTE PTR [esi]
34 47 ---
   0:   22 2f                   and    ch,BYTE PTR [edi]
34 48 ---
   0:   22 30                   and    dh,BYTE PTR [eax]
34 49 ---
   0:   22 31                   and    dh,BYTE PTR [ecx]
34 50 ---
   0:   22 32                   and    dh,BYTE PTR [edx]
34 51 ---
   0:   22 33                   and    dh,BYTE PTR [ebx]
34 52 ---
   0:   22                      .byte 0x22
   1:   34                      .byte 0x34
34 53 ---
   0:   22                      .byte 0x22
   1:   35                      .byte 0x35
34 54 ---
   0:   22 36                   and    dh,BYTE PTR [esi]
34 55 ---
   0:   22 37                   and    dh,BYTE PTR [edi]
34 56 ---
   0:   22 38                   and    bh,BYTE PTR [eax]
34 57 ---
   0:   22 39                   and    bh,BYTE PTR [ecx]
34 58 ---
   0:   22 3a                   and    bh,BYTE PTR [edx]
34 59 ---
   0:   22 3b                   and    bh,BYTE PTR [ebx]
34 60 ---
   0:   22                      .byte 0x22
   1:   3c                      .byte 0x3c
34 61 ---
   0:   22                      .byte 0x22
   1:   3d                      .byte 0x3d
34 62 ---
   0:   22 3e                   and    bh,BYTE PTR [esi]
34 63 ---
   0:   22 3f                   and    bh,BYTE PTR [edi]
34 64 ---
   0:   22                      .byte 0x22
   1:   40                      inc    eax
34 65 ---
   0:   22                      .byte 0x22
   1:   41                      inc    ecx
34 66 ---
   0:   22                      .byte 0x22
   1:   42                      inc    edx
34 67 ---
   0:   22                      .byte 0x22
   1:   43                      inc    ebx
34 68 ---
   0:   22                      .byte 0x22
   1:   44                      inc    esp
34 69 ---
   0:   22                      .byte 0x22
   1:   45                      inc    ebp
34 70 ---
   0:   22                      .byte 0x22
   1:   46                      inc    esi
34 71 ---
   0:   22                      .byte 0x22
   1:   47                      inc    edi
34 72 ---
   0:   22                      .byte 0x22
   1:   48                      dec    eax
34 73 ---
   0:   22                      .byte 0x22
   1:   49                      dec    ecx
34 74 ---
   0:   22                      .byte 0x22
   1:   4a                      dec    edx
34 75 ---
   0:   22                      .byte 0x22
   1:   4b                      dec    ebx
34 76 ---
   0:   22                      .byte 0x22
   1:   4c                      dec    esp
34 77 ---
   0:   22                      .byte 0x22
   1:   4d                      dec    ebp
34 78 ---
   0:   22                      .byte 0x22
   1:   4e                      dec    esi
34 79 ---
   0:   22                      .byte 0x22
   1:   4f                      dec    edi
34 80 ---
   0:   22                      .byte 0x22
   1:   50                      push   eax
34 81 ---
   0:   22                      .byte 0x22
   1:   51                      push   ecx
34 82 ---
   0:   22                      .byte 0x22
   1:   52                      push   edx
34 83 ---
   0:   22                      .byte 0x22
   1:   53                      push   ebx
34 84 ---
   0:   22                      .byte 0x22
   1:   54                      push   esp
34 85 ---
   0:   22                      .byte 0x22
   1:   55                      push   ebp
34 86 ---
   0:   22                      .byte 0x22
   1:   56                      push   esi
34 87 ---
   0:   22                      .byte 0x22
   1:   57                      push   edi
34 88 ---
   0:   22                      .byte 0x22
   1:   58                      pop    eax
34 89 ---
   0:   22                      .byte 0x22
   1:   59                      pop    ecx
34 90 ---
   0:   22                      .byte 0x22
   1:   5a                      pop    edx
34 91 ---
   0:   22                      .byte 0x22
   1:   5b                      pop    ebx
34 92 ---
   0:   22                      .byte 0x22
   1:   5c                      pop    esp
34 93 ---
   0:   22                      .byte 0x22
   1:   5d                      pop    ebp
34 94 ---
   0:   22                      .byte 0x22
   1:   5e                      pop    esi
34 95 ---
   0:   22                      .byte 0x22
   1:   5f                      pop    edi
34 96 ---
   0:   22                      .byte 0x22
   1:   60                      pusha
34 97 ---
   0:   22                      .byte 0x22
   1:   61                      popa
34 98 ---
   0:   22                      .byte 0x22
   1:   62                      .byte 0x62
34 99 ---
   0:   22                      .byte 0x22
   1:   63                      .byte 0x63
34 100 ---
   0:   22                      .byte 0x22
   1:   64                      fs
34 101 ---
   0:   22                      .byte 0x22
   1:   65                      gs
34 102 ---
   0:   22                      .byte 0x22
   1:   66                      data16
34 103 ---
   0:   22                      .byte 0x22
   1:   67                      addr16
34 104 ---
   0:   22                      .byte 0x22
   1:   68                      .byte 0x68
34 105 ---
   0:   22                      .byte 0x22
   1:   69                      .byte 0x69
34 106 ---
   0:   22                      .byte 0x22
   1:   6a                      .byte 0x6a
34 107 ---
   0:   22                      .byte 0x22
   1:   6b                      .byte 0x6b
34 108 ---
   0:   22                      .byte 0x22
   1:   6c                      ins    BYTE PTR es:[edi],dx
34 109 ---
   0:   22                      .byte 0x22
   1:   6d                      ins    DWORD PTR es:[edi],dx
34 110 ---
   0:   22                      .byte 0x22
   1:   6e                      outs   dx,BYTE PTR ds:[esi]
34 111 ---
   0:   22                      .byte 0x22
   1:   6f                      outs   dx,DWORD PTR ds:[esi]
34 112 ---
   0:   22                      .byte 0x22
   1:   70                      .byte 0x70
34 113 ---
   0:   22                      .byte 0x22
   1:   71                      .byte 0x71
34 114 ---
   0:   22                      .byte 0x22
   1:   72                      .byte 0x72
34 115 ---
   0:   22                      .byte 0x22
   1:   73                      .byte 0x73
34 116 ---
   0:   22                      .byte 0x22
   1:   74                      .byte 0x74
34 117 ---
   0:   22                      .byte 0x22
   1:   75                      .byte 0x75
34 118 ---
   0:   22                      .byte 0x22
   1:   76                      .byte 0x76
34 119 ---
   0:   22                      .byte 0x22
   1:   77                      .byte 0x77
34 120 ---
   0:   22                      .byte 0x22
   1:   78                      .byte 0x78
34 121 ---
   0:   22                      .byte 0x22
   1:   79                      .byte 0x79
34 122 ---
   0:   22                      .byte 0x22
   1:   7a                      .byte 0x7a
34 123 ---
   0:   22                      .byte 0x22
   1:   7b                      .byte 0x7b
34 124 ---
   0:   22                      .byte 0x22
   1:   7c                      .byte 0x7c
34 125 ---
   0:   22                      .byte 0x22
   1:   7d                      .byte 0x7d
34 126 ---
   0:   22                      .byte 0x22
   1:   7e                      .byte 0x7e
35 32 ---
   0:   23 20                   and    esp,DWORD PTR [eax]
35 33 ---
   0:   23 21                   and    esp,DWORD PTR [ecx]
35 34 ---
   0:   23 22                   and    esp,DWORD PTR [edx]
35 35 ---
   0:   23 23                   and    esp,DWORD PTR [ebx]
35 36 ---
   0:   23                      .byte 0x23
   1:   24                      .byte 0x24
35 37 ---
   0:   23                      .byte 0x23
   1:   25                      .byte 0x25
35 38 ---
   0:   23 26                   and    esp,DWORD PTR [esi]
35 39 ---
   0:   23 27                   and    esp,DWORD PTR [edi]
35 40 ---
   0:   23 28                   and    ebp,DWORD PTR [eax]
35 41 ---
   0:   23 29                   and    ebp,DWORD PTR [ecx]
35 42 ---
   0:   23 2a                   and    ebp,DWORD PTR [edx]
35 43 ---
   0:   23 2b                   and    ebp,DWORD PTR [ebx]
35 44 ---
   0:   23                      .byte 0x23
   1:   2c                      .byte 0x2c
35 45 ---
   0:   23                      .byte 0x23
   1:   2d                      .byte 0x2d
35 46 ---
   0:   23 2e                   and    ebp,DWORD PTR [esi]
35 47 ---
   0:   23 2f                   and    ebp,DWORD PTR [edi]
35 48 ---
   0:   23 30                   and    esi,DWORD PTR [eax]
35 49 ---
   0:   23 31                   and    esi,DWORD PTR [ecx]
35 50 ---
   0:   23 32                   and    esi,DWORD PTR [edx]
35 51 ---
   0:   23 33                   and    esi,DWORD PTR [ebx]
35 52 ---
   0:   23                      .byte 0x23
   1:   34                      .byte 0x34
35 53 ---
   0:   23                      .byte 0x23
   1:   35                      .byte 0x35
35 54 ---
   0:   23 36                   and    esi,DWORD PTR [esi]
35 55 ---
   0:   23 37                   and    esi,DWORD PTR [edi]
35 56 ---
   0:   23 38                   and    edi,DWORD PTR [eax]
35 57 ---
   0:   23 39                   and    edi,DWORD PTR [ecx]
35 58 ---
   0:   23 3a                   and    edi,DWORD PTR [edx]
35 59 ---
   0:   23 3b                   and    edi,DWORD PTR [ebx]
35 60 ---
   0:   23                      .byte 0x23
   1:   3c                      .byte 0x3c
35 61 ---
   0:   23                      .byte 0x23
   1:   3d                      .byte 0x3d
35 62 ---
   0:   23 3e                   and    edi,DWORD PTR [esi]
35 63 ---
   0:   23 3f                   and    edi,DWORD PTR [edi]
35 64 ---
   0:   23                      .byte 0x23
   1:   40                      inc    eax
35 65 ---
   0:   23                      .byte 0x23
   1:   41                      inc    ecx
35 66 ---
   0:   23                      .byte 0x23
   1:   42                      inc    edx
35 67 ---
   0:   23                      .byte 0x23
   1:   43                      inc    ebx
35 68 ---
   0:   23                      .byte 0x23
   1:   44                      inc    esp
35 69 ---
   0:   23                      .byte 0x23
   1:   45                      inc    ebp
35 70 ---
   0:   23                      .byte 0x23
   1:   46                      inc    esi
35 71 ---
   0:   23                      .byte 0x23
   1:   47                      inc    edi
35 72 ---
   0:   23                      .byte 0x23
   1:   48                      dec    eax
35 73 ---
   0:   23                      .byte 0x23
   1:   49                      dec    ecx
35 74 ---
   0:   23                      .byte 0x23
   1:   4a                      dec    edx
35 75 ---
   0:   23                      .byte 0x23
   1:   4b                      dec    ebx
35 76 ---
   0:   23                      .byte 0x23
   1:   4c                      dec    esp
35 77 ---
   0:   23                      .byte 0x23
   1:   4d                      dec    ebp
35 78 ---
   0:   23                      .byte 0x23
   1:   4e                      dec    esi
35 79 ---
   0:   23                      .byte 0x23
   1:   4f                      dec    edi
35 80 ---
   0:   23                      .byte 0x23
   1:   50                      push   eax
35 81 ---
   0:   23                      .byte 0x23
   1:   51                      push   ecx
35 82 ---
   0:   23                      .byte 0x23
   1:   52                      push   edx
35 83 ---
   0:   23                      .byte 0x23
   1:   53                      push   ebx
35 84 ---
   0:   23                      .byte 0x23
   1:   54                      push   esp
35 85 ---
   0:   23                      .byte 0x23
   1:   55                      push   ebp
35 86 ---
   0:   23                      .byte 0x23
   1:   56                      push   esi
35 87 ---
   0:   23                      .byte 0x23
   1:   57                      push   edi
35 88 ---
   0:   23                      .byte 0x23
   1:   58                      pop    eax
35 89 ---
   0:   23                      .byte 0x23
   1:   59                      pop    ecx
35 90 ---
   0:   23                      .byte 0x23
   1:   5a                      pop    edx
35 91 ---
   0:   23                      .byte 0x23
   1:   5b                      pop    ebx
35 92 ---
   0:   23                      .byte 0x23
   1:   5c                      pop    esp
35 93 ---
   0:   23                      .byte 0x23
   1:   5d                      pop    ebp
35 94 ---
   0:   23                      .byte 0x23
   1:   5e                      pop    esi
35 95 ---
   0:   23                      .byte 0x23
   1:   5f                      pop    edi
35 96 ---
   0:   23                      .byte 0x23
   1:   60                      pusha
35 97 ---
   0:   23                      .byte 0x23
   1:   61                      popa
35 98 ---
   0:   23                      .byte 0x23
   1:   62                      .byte 0x62
35 99 ---
   0:   23                      .byte 0x23
   1:   63                      .byte 0x63
35 100 ---
   0:   23                      .byte 0x23
   1:   64                      fs
35 101 ---
   0:   23                      .byte 0x23
   1:   65                      gs
35 102 ---
   0:   23                      .byte 0x23
   1:   66                      data16
35 103 ---
   0:   23                      .byte 0x23
   1:   67                      addr16
35 104 ---
   0:   23                      .byte 0x23
   1:   68                      .byte 0x68
35 105 ---
   0:   23                      .byte 0x23
   1:   69                      .byte 0x69
35 106 ---
   0:   23                      .byte 0x23
   1:   6a                      .byte 0x6a
35 107 ---
   0:   23                      .byte 0x23
   1:   6b                      .byte 0x6b
35 108 ---
   0:   23                      .byte 0x23
   1:   6c                      ins    BYTE PTR es:[edi],dx
35 109 ---
   0:   23                      .byte 0x23
   1:   6d                      ins    DWORD PTR es:[edi],dx
35 110 ---
   0:   23                      .byte 0x23
   1:   6e                      outs   dx,BYTE PTR ds:[esi]
35 111 ---
   0:   23                      .byte 0x23
   1:   6f                      outs   dx,DWORD PTR ds:[esi]
35 112 ---
   0:   23                      .byte 0x23
   1:   70                      .byte 0x70
35 113 ---
   0:   23                      .byte 0x23
   1:   71                      .byte 0x71
35 114 ---
   0:   23                      .byte 0x23
   1:   72                      .byte 0x72
35 115 ---
   0:   23                      .byte 0x23
   1:   73                      .byte 0x73
35 116 ---
   0:   23                      .byte 0x23
   1:   74                      .byte 0x74
35 117 ---
   0:   23                      .byte 0x23
   1:   75                      .byte 0x75
35 118 ---
   0:   23                      .byte 0x23
   1:   76                      .byte 0x76
35 119 ---
   0:   23                      .byte 0x23
   1:   77                      .byte 0x77
35 120 ---
   0:   23                      .byte 0x23
   1:   78                      .byte 0x78
35 121 ---
   0:   23                      .byte 0x23
   1:   79                      .byte 0x79
35 122 ---
   0:   23                      .byte 0x23
   1:   7a                      .byte 0x7a
35 123 ---
   0:   23                      .byte 0x23
   1:   7b                      .byte 0x7b
35 124 ---
   0:   23                      .byte 0x23
   1:   7c                      .byte 0x7c
35 125 ---
   0:   23                      .byte 0x23
   1:   7d                      .byte 0x7d
35 126 ---
   0:   23                      .byte 0x23
   1:   7e                      .byte 0x7e
36 32 ---
   0:   24 20                   and    al,0x20
36 33 ---
   0:   24 21                   and    al,0x21
36 34 ---
   0:   24 22                   and    al,0x22
36 35 ---
   0:   24 23                   and    al,0x23
36 36 ---
   0:   24 24                   and    al,0x24
36 37 ---
   0:   24 25                   and    al,0x25
36 38 ---
   0:   24 26                   and    al,0x26
36 39 ---
   0:   24 27                   and    al,0x27
36 40 ---
   0:   24 28                   and    al,0x28
36 41 ---
   0:   24 29                   and    al,0x29
36 42 ---
   0:   24 2a                   and    al,0x2a
36 43 ---
   0:   24 2b                   and    al,0x2b
36 44 ---
   0:   24 2c                   and    al,0x2c
36 45 ---
   0:   24 2d                   and    al,0x2d
36 46 ---
   0:   24 2e                   and    al,0x2e
36 47 ---
   0:   24 2f                   and    al,0x2f
36 48 ---
   0:   24 30                   and    al,0x30
36 49 ---
   0:   24 31                   and    al,0x31
36 50 ---
   0:   24 32                   and    al,0x32
36 51 ---
   0:   24 33                   and    al,0x33
36 52 ---
   0:   24 34                   and    al,0x34
36 53 ---
   0:   24 35                   and    al,0x35
36 54 ---
   0:   24 36                   and    al,0x36
36 55 ---
   0:   24 37                   and    al,0x37
36 56 ---
   0:   24 38                   and    al,0x38
36 57 ---
   0:   24 39                   and    al,0x39
36 58 ---
   0:   24 3a                   and    al,0x3a
36 59 ---
   0:   24 3b                   and    al,0x3b
36 60 ---
   0:   24 3c                   and    al,0x3c
36 61 ---
   0:   24 3d                   and    al,0x3d
36 62 ---
   0:   24 3e                   and    al,0x3e
36 63 ---
   0:   24 3f                   and    al,0x3f
36 64 ---
   0:   24 40                   and    al,0x40
36 65 ---
   0:   24 41                   and    al,0x41
36 66 ---
   0:   24 42                   and    al,0x42
36 67 ---
   0:   24 43                   and    al,0x43
36 68 ---
   0:   24 44                   and    al,0x44
36 69 ---
   0:   24 45                   and    al,0x45
36 70 ---
   0:   24 46                   and    al,0x46
36 71 ---
   0:   24 47                   and    al,0x47
36 72 ---
   0:   24 48                   and    al,0x48
36 73 ---
   0:   24 49                   and    al,0x49
36 74 ---
   0:   24 4a                   and    al,0x4a
36 75 ---
   0:   24 4b                   and    al,0x4b
36 76 ---
   0:   24 4c                   and    al,0x4c
36 77 ---
   0:   24 4d                   and    al,0x4d
36 78 ---
   0:   24 4e                   and    al,0x4e
36 79 ---
   0:   24 4f                   and    al,0x4f
36 80 ---
   0:   24 50                   and    al,0x50
36 81 ---
   0:   24 51                   and    al,0x51
36 82 ---
   0:   24 52                   and    al,0x52
36 83 ---
   0:   24 53                   and    al,0x53
36 84 ---
   0:   24 54                   and    al,0x54
36 85 ---
   0:   24 55                   and    al,0x55
36 86 ---
   0:   24 56                   and    al,0x56
36 87 ---
   0:   24 57                   and    al,0x57
36 88 ---
   0:   24 58                   and    al,0x58
36 89 ---
   0:   24 59                   and    al,0x59
36 90 ---
   0:   24 5a                   and    al,0x5a
36 91 ---
   0:   24 5b                   and    al,0x5b
36 92 ---
   0:   24 5c                   and    al,0x5c
36 93 ---
   0:   24 5d                   and    al,0x5d
36 94 ---
   0:   24 5e                   and    al,0x5e
36 95 ---
   0:   24 5f                   and    al,0x5f
36 96 ---
   0:   24 60                   and    al,0x60
36 97 ---
   0:   24 61                   and    al,0x61
36 98 ---
   0:   24 62                   and    al,0x62
36 99 ---
   0:   24 63                   and    al,0x63
36 100 ---
   0:   24 64                   and    al,0x64
36 101 ---
   0:   24 65                   and    al,0x65
36 102 ---
   0:   24 66                   and    al,0x66
36 103 ---
   0:   24 67                   and    al,0x67
36 104 ---
   0:   24 68                   and    al,0x68
36 105 ---
   0:   24 69                   and    al,0x69
36 106 ---
   0:   24 6a                   and    al,0x6a
36 107 ---
   0:   24 6b                   and    al,0x6b
36 108 ---
   0:   24 6c                   and    al,0x6c
36 109 ---
   0:   24 6d                   and    al,0x6d
36 110 ---
   0:   24 6e                   and    al,0x6e
36 111 ---
   0:   24 6f                   and    al,0x6f
36 112 ---
   0:   24 70                   and    al,0x70
36 113 ---
   0:   24 71                   and    al,0x71
36 114 ---
   0:   24 72                   and    al,0x72
36 115 ---
   0:   24 73                   and    al,0x73
36 116 ---
   0:   24 74                   and    al,0x74
36 117 ---
   0:   24 75                   and    al,0x75
36 118 ---
   0:   24 76                   and    al,0x76
36 119 ---
   0:   24 77                   and    al,0x77
36 120 ---
   0:   24 78                   and    al,0x78
36 121 ---
   0:   24 79                   and    al,0x79
36 122 ---
   0:   24 7a                   and    al,0x7a
36 123 ---
   0:   24 7b                   and    al,0x7b
36 124 ---
   0:   24 7c                   and    al,0x7c
36 125 ---
   0:   24 7d                   and    al,0x7d
36 126 ---
   0:   24 7e                   and    al,0x7e
37 32 ---
   0:   25                      .byte 0x25
   1:   20                      .byte 0x20
37 33 ---
   0:   25                      .byte 0x25
   1:   21                      .byte 0x21
37 34 ---
   0:   25                      .byte 0x25
   1:   22                      .byte 0x22
37 35 ---
   0:   25                      .byte 0x25
   1:   23                      .byte 0x23
37 36 ---
   0:   25                      .byte 0x25
   1:   24                      .byte 0x24
37 37 ---
   0:   25                      .byte 0x25
   1:   25                      .byte 0x25
37 38 ---
   0:   25                      .byte 0x25
   1:   26                      es
37 39 ---
   0:   25                      .byte 0x25
   1:   27                      daa
37 40 ---
   0:   25                      .byte 0x25
   1:   28                      .byte 0x28
37 41 ---
   0:   25                      .byte 0x25
   1:   29                      .byte 0x29
37 42 ---
   0:   25                      .byte 0x25
   1:   2a                      .byte 0x2a
37 43 ---
   0:   25                      .byte 0x25
   1:   2b                      .byte 0x2b
37 44 ---
   0:   25                      .byte 0x25
   1:   2c                      .byte 0x2c
37 45 ---
   0:   25                      .byte 0x25
   1:   2d                      .byte 0x2d
37 46 ---
   0:   25                      .byte 0x25
   1:   2e                      cs
37 47 ---
   0:   25                      .byte 0x25
   1:   2f                      das
37 48 ---
   0:   25                      .byte 0x25
   1:   30                      .byte 0x30
37 49 ---
   0:   25                      .byte 0x25
   1:   31                      .byte 0x31
37 50 ---
   0:   25                      .byte 0x25
   1:   32                      .byte 0x32
37 51 ---
   0:   25                      .byte 0x25
   1:   33                      .byte 0x33
37 52 ---
   0:   25                      .byte 0x25
   1:   34                      .byte 0x34
37 53 ---
   0:   25                      .byte 0x25
   1:   35                      .byte 0x35
37 54 ---
   0:   25                      .byte 0x25
   1:   36                      ss
37 55 ---
   0:   25                      .byte 0x25
   1:   37                      aaa
37 56 ---
   0:   25                      .byte 0x25
   1:   38                      .byte 0x38
37 57 ---
   0:   25                      .byte 0x25
   1:   39                      .byte 0x39
37 58 ---
   0:   25                      .byte 0x25
   1:   3a                      .byte 0x3a
37 59 ---
   0:   25                      .byte 0x25
   1:   3b                      .byte 0x3b
37 60 ---
   0:   25                      .byte 0x25
   1:   3c                      .byte 0x3c
37 61 ---
   0:   25                      .byte 0x25
   1:   3d                      .byte 0x3d
37 62 ---
   0:   25                      .byte 0x25
   1:   3e                      ds
37 63 ---
   0:   25                      .byte 0x25
   1:   3f                      aas
37 64 ---
   0:   25                      .byte 0x25
   1:   40                      inc    eax
37 65 ---
   0:   25                      .byte 0x25
   1:   41                      inc    ecx
37 66 ---
   0:   25                      .byte 0x25
   1:   42                      inc    edx
37 67 ---
   0:   25                      .byte 0x25
   1:   43                      inc    ebx
37 68 ---
   0:   25                      .byte 0x25
   1:   44                      inc    esp
37 69 ---
   0:   25                      .byte 0x25
   1:   45                      inc    ebp
37 70 ---
   0:   25                      .byte 0x25
   1:   46                      inc    esi
37 71 ---
   0:   25                      .byte 0x25
   1:   47                      inc    edi
37 72 ---
   0:   25                      .byte 0x25
   1:   48                      dec    eax
37 73 ---
   0:   25                      .byte 0x25
   1:   49                      dec    ecx
37 74 ---
   0:   25                      .byte 0x25
   1:   4a                      dec    edx
37 75 ---
   0:   25                      .byte 0x25
   1:   4b                      dec    ebx
37 76 ---
   0:   25                      .byte 0x25
   1:   4c                      dec    esp
37 77 ---
   0:   25                      .byte 0x25
   1:   4d                      dec    ebp
37 78 ---
   0:   25                      .byte 0x25
   1:   4e                      dec    esi
37 79 ---
   0:   25                      .byte 0x25
   1:   4f                      dec    edi
37 80 ---
   0:   25                      .byte 0x25
   1:   50                      push   eax
37 81 ---
   0:   25                      .byte 0x25
   1:   51                      push   ecx
37 82 ---
   0:   25                      .byte 0x25
   1:   52                      push   edx
37 83 ---
   0:   25                      .byte 0x25
   1:   53                      push   ebx
37 84 ---
   0:   25                      .byte 0x25
   1:   54                      push   esp
37 85 ---
   0:   25                      .byte 0x25
   1:   55                      push   ebp
37 86 ---
   0:   25                      .byte 0x25
   1:   56                      push   esi
37 87 ---
   0:   25                      .byte 0x25
   1:   57                      push   edi
37 88 ---
   0:   25                      .byte 0x25
   1:   58                      pop    eax
37 89 ---
   0:   25                      .byte 0x25
   1:   59                      pop    ecx
37 90 ---
   0:   25                      .byte 0x25
   1:   5a                      pop    edx
37 91 ---
   0:   25                      .byte 0x25
   1:   5b                      pop    ebx
37 92 ---
   0:   25                      .byte 0x25
   1:   5c                      pop    esp
37 93 ---
   0:   25                      .byte 0x25
   1:   5d                      pop    ebp
37 94 ---
   0:   25                      .byte 0x25
   1:   5e                      pop    esi
37 95 ---
   0:   25                      .byte 0x25
   1:   5f                      pop    edi
37 96 ---
   0:   25                      .byte 0x25
   1:   60                      pusha
37 97 ---
   0:   25                      .byte 0x25
   1:   61                      popa
37 98 ---
   0:   25                      .byte 0x25
   1:   62                      .byte 0x62
37 99 ---
   0:   25                      .byte 0x25
   1:   63                      .byte 0x63
37 100 ---
   0:   25                      .byte 0x25
   1:   64                      fs
37 101 ---
   0:   25                      .byte 0x25
   1:   65                      gs
37 102 ---
   0:   25                      .byte 0x25
   1:   66                      data16
37 103 ---
   0:   25                      .byte 0x25
   1:   67                      addr16
37 104 ---
   0:   25                      .byte 0x25
   1:   68                      .byte 0x68
37 105 ---
   0:   25                      .byte 0x25
   1:   69                      .byte 0x69
37 106 ---
   0:   25                      .byte 0x25
   1:   6a                      .byte 0x6a
37 107 ---
   0:   25                      .byte 0x25
   1:   6b                      .byte 0x6b
37 108 ---
   0:   25                      .byte 0x25
   1:   6c                      ins    BYTE PTR es:[edi],dx
37 109 ---
   0:   25                      .byte 0x25
   1:   6d                      ins    DWORD PTR es:[edi],dx
37 110 ---
   0:   25                      .byte 0x25
   1:   6e                      outs   dx,BYTE PTR ds:[esi]
37 111 ---
   0:   25                      .byte 0x25
   1:   6f                      outs   dx,DWORD PTR ds:[esi]
37 112 ---
   0:   25                      .byte 0x25
   1:   70                      .byte 0x70
37 113 ---
   0:   25                      .byte 0x25
   1:   71                      .byte 0x71
37 114 ---
   0:   25                      .byte 0x25
   1:   72                      .byte 0x72
37 115 ---
   0:   25                      .byte 0x25
   1:   73                      .byte 0x73
37 116 ---
   0:   25                      .byte 0x25
   1:   74                      .byte 0x74
37 117 ---
   0:   25                      .byte 0x25
   1:   75                      .byte 0x75
37 118 ---
   0:   25                      .byte 0x25
   1:   76                      .byte 0x76
37 119 ---
   0:   25                      .byte 0x25
   1:   77                      .byte 0x77
37 120 ---
   0:   25                      .byte 0x25
   1:   78                      .byte 0x78
37 121 ---
   0:   25                      .byte 0x25
   1:   79                      .byte 0x79
37 122 ---
   0:   25                      .byte 0x25
   1:   7a                      .byte 0x7a
37 123 ---
   0:   25                      .byte 0x25
   1:   7b                      .byte 0x7b
37 124 ---
   0:   25                      .byte 0x25
   1:   7c                      .byte 0x7c
37 125 ---
   0:   25                      .byte 0x25
   1:   7d                      .byte 0x7d
37 126 ---
   0:   25                      .byte 0x25
   1:   7e                      .byte 0x7e
38 32 ---
   0:   26                      es
   1:   20                      .byte 0x20
38 33 ---
   0:   26                      es
   1:   21                      .byte 0x21
38 34 ---
   0:   26                      es
   1:   22                      .byte 0x22
38 35 ---
   0:   26                      es
   1:   23                      .byte 0x23
38 36 ---
   0:   26                      es
   1:   24                      .byte 0x24
38 37 ---
   0:   26                      es
   1:   25                      .byte 0x25
38 38 ---
   0:   26                      es
   1:   26                      es
38 39 ---
   0:   26 27                   es daa
38 40 ---
   0:   26                      es
   1:   28                      .byte 0x28
38 41 ---
   0:   26                      es
   1:   29                      .byte 0x29
38 42 ---
   0:   26                      es
   1:   2a                      .byte 0x2a
38 43 ---
   0:   26                      es
   1:   2b                      .byte 0x2b
38 44 ---
   0:   26                      es
   1:   2c                      .byte 0x2c
38 45 ---
   0:   26                      es
   1:   2d                      .byte 0x2d
38 46 ---
   0:   26                      es
   1:   2e                      cs
38 47 ---
   0:   26 2f                   es das
38 48 ---
   0:   26                      es
   1:   30                      .byte 0x30
38 49 ---
   0:   26                      es
   1:   31                      .byte 0x31
38 50 ---
   0:   26                      es
   1:   32                      .byte 0x32
38 51 ---
   0:   26                      es
   1:   33                      .byte 0x33
38 52 ---
   0:   26                      es
   1:   34                      .byte 0x34
38 53 ---
   0:   26                      es
   1:   35                      .byte 0x35
38 54 ---
   0:   26                      es
   1:   36                      ss
38 55 ---
   0:   26 37                   es aaa
38 56 ---
   0:   26                      es
   1:   38                      .byte 0x38
38 57 ---
   0:   26                      es
   1:   39                      .byte 0x39
38 58 ---
   0:   26                      es
   1:   3a                      .byte 0x3a
38 59 ---
   0:   26                      es
   1:   3b                      .byte 0x3b
38 60 ---
   0:   26                      es
   1:   3c                      .byte 0x3c
38 61 ---
   0:   26                      es
   1:   3d                      .byte 0x3d
38 62 ---
   0:   26                      es
   1:   3e                      ds
38 63 ---
   0:   26 3f                   es aas
38 64 ---
   0:   26 40                   es inc eax
38 65 ---
   0:   26 41                   es inc ecx
38 66 ---
   0:   26 42                   es inc edx
38 67 ---
   0:   26 43                   es inc ebx
38 68 ---
   0:   26 44                   es inc esp
38 69 ---
   0:   26 45                   es inc ebp
38 70 ---
   0:   26 46                   es inc esi
38 71 ---
   0:   26 47                   es inc edi
38 72 ---
   0:   26 48                   es dec eax
38 73 ---
   0:   26 49                   es dec ecx
38 74 ---
   0:   26 4a                   es dec edx
38 75 ---
   0:   26 4b                   es dec ebx
38 76 ---
   0:   26 4c                   es dec esp
38 77 ---
   0:   26 4d                   es dec ebp
38 78 ---
   0:   26 4e                   es dec esi
38 79 ---
   0:   26 4f                   es dec edi
38 80 ---
   0:   26 50                   es push eax
38 81 ---
   0:   26 51                   es push ecx
38 82 ---
   0:   26 52                   es push edx
38 83 ---
   0:   26 53                   es push ebx
38 84 ---
   0:   26 54                   es push esp
38 85 ---
   0:   26 55                   es push ebp
38 86 ---
   0:   26 56                   es push esi
38 87 ---
   0:   26 57                   es push edi
38 88 ---
   0:   26 58                   es pop eax
38 89 ---
   0:   26 59                   es pop ecx
38 90 ---
   0:   26 5a                   es pop edx
38 91 ---
   0:   26 5b                   es pop ebx
38 92 ---
   0:   26 5c                   es pop esp
38 93 ---
   0:   26 5d                   es pop ebp
38 94 ---
   0:   26 5e                   es pop esi
38 95 ---
   0:   26 5f                   es pop edi
38 96 ---
   0:   26 60                   es pusha
38 97 ---
   0:   26 61                   es popa
38 98 ---
   0:   26                      es
   1:   62                      .byte 0x62
38 99 ---
   0:   26                      es
   1:   63                      .byte 0x63
38 100 ---
   0:   26                      es
   1:   64                      fs
38 101 ---
   0:   26                      es
   1:   65                      gs
38 102 ---
   0:   26                      es
   1:   66                      data16
38 103 ---
   0:   26                      es
   1:   67                      addr16
38 104 ---
   0:   26                      es
   1:   68                      .byte 0x68
38 105 ---
   0:   26                      es
   1:   69                      .byte 0x69
38 106 ---
   0:   26                      es
   1:   6a                      .byte 0x6a
38 107 ---
   0:   26                      es
   1:   6b                      .byte 0x6b
38 108 ---
   0:   26 6c                   es ins BYTE PTR es:[edi],dx
38 109 ---
   0:   26 6d                   es ins DWORD PTR es:[edi],dx
38 110 ---
   0:   26 6e                   outs   dx,BYTE PTR es:[esi]
38 111 ---
   0:   26 6f                   outs   dx,DWORD PTR es:[esi]
38 112 ---
   0:   26                      es
   1:   70                      .byte 0x70
38 113 ---
   0:   26                      es
   1:   71                      .byte 0x71
38 114 ---
   0:   26                      es
   1:   72                      .byte 0x72
38 115 ---
   0:   26                      es
   1:   73                      .byte 0x73
38 116 ---
   0:   26                      es
   1:   74                      .byte 0x74
38 117 ---
   0:   26                      es
   1:   75                      .byte 0x75
38 118 ---
   0:   26                      es
   1:   76                      .byte 0x76
38 119 ---
   0:   26                      es
   1:   77                      .byte 0x77
38 120 ---
   0:   26                      es
   1:   78                      .byte 0x78
38 121 ---
   0:   26                      es
   1:   79                      .byte 0x79
38 122 ---
   0:   26                      es
   1:   7a                      .byte 0x7a
38 123 ---
   0:   26                      es
   1:   7b                      .byte 0x7b
38 124 ---
   0:   26                      es
   1:   7c                      .byte 0x7c
38 125 ---
   0:   26                      es
   1:   7d                      .byte 0x7d
38 126 ---
   0:   26                      es
   1:   7e                      .byte 0x7e
39 32 ---
   0:   27                      daa    
   1:   20                      .byte 0x20
39 33 ---
   0:   27                      daa    
   1:   21                      .byte 0x21
39 34 ---
   0:   27                      daa    
   1:   22                      .byte 0x22
39 35 ---
   0:   27                      daa    
   1:   23                      .byte 0x23
39 36 ---
   0:   27                      daa    
   1:   24                      .byte 0x24
39 37 ---
   0:   27                      daa    
   1:   25                      .byte 0x25
39 38 ---
   0:   27                      daa    
   1:   26                      es
39 39 ---
   0:   27                      daa    
   1:   27                      daa
39 40 ---
   0:   27                      daa    
   1:   28                      .byte 0x28
39 41 ---
   0:   27                      daa    
   1:   29                      .byte 0x29
39 42 ---
   0:   27                      daa    
   1:   2a                      .byte 0x2a
39 43 ---
   0:   27                      daa    
   1:   2b                      .byte 0x2b
39 44 ---
   0:   27                      daa    
   1:   2c                      .byte 0x2c
39 45 ---
   0:   27                      daa    
   1:   2d                      .byte 0x2d
39 46 ---
   0:   27                      daa    
   1:   2e                      cs
39 47 ---
   0:   27                      daa    
   1:   2f                      das
39 48 ---
   0:   27                      daa    
   1:   30                      .byte 0x30
39 49 ---
   0:   27                      daa    
   1:   31                      .byte 0x31
39 50 ---
   0:   27                      daa    
   1:   32                      .byte 0x32
39 51 ---
   0:   27                      daa    
   1:   33                      .byte 0x33
39 52 ---
   0:   27                      daa    
   1:   34                      .byte 0x34
39 53 ---
   0:   27                      daa    
   1:   35                      .byte 0x35
39 54 ---
   0:   27                      daa    
   1:   36                      ss
39 55 ---
   0:   27                      daa    
   1:   37                      aaa
39 56 ---
   0:   27                      daa    
   1:   38                      .byte 0x38
39 57 ---
   0:   27                      daa    
   1:   39                      .byte 0x39
39 58 ---
   0:   27                      daa    
   1:   3a                      .byte 0x3a
39 59 ---
   0:   27                      daa    
   1:   3b                      .byte 0x3b
39 60 ---
   0:   27                      daa    
   1:   3c                      .byte 0x3c
39 61 ---
   0:   27                      daa    
   1:   3d                      .byte 0x3d
39 62 ---
   0:   27                      daa    
   1:   3e                      ds
39 63 ---
   0:   27                      daa    
   1:   3f                      aas
39 64 ---
   0:   27                      daa    
   1:   40                      inc    eax
39 65 ---
   0:   27                      daa    
   1:   41                      inc    ecx
39 66 ---
   0:   27                      daa    
   1:   42                      inc    edx
39 67 ---
   0:   27                      daa    
   1:   43                      inc    ebx
39 68 ---
   0:   27                      daa    
   1:   44                      inc    esp
39 69 ---
   0:   27                      daa    
   1:   45                      inc    ebp
39 70 ---
   0:   27                      daa    
   1:   46                      inc    esi
39 71 ---
   0:   27                      daa    
   1:   47                      inc    edi
39 72 ---
   0:   27                      daa    
   1:   48                      dec    eax
39 73 ---
   0:   27                      daa    
   1:   49                      dec    ecx
39 74 ---
   0:   27                      daa    
   1:   4a                      dec    edx
39 75 ---
   0:   27                      daa    
   1:   4b                      dec    ebx
39 76 ---
   0:   27                      daa    
   1:   4c                      dec    esp
39 77 ---
   0:   27                      daa    
   1:   4d                      dec    ebp
39 78 ---
   0:   27                      daa    
   1:   4e                      dec    esi
39 79 ---
   0:   27                      daa    
   1:   4f                      dec    edi
39 80 ---
   0:   27                      daa    
   1:   50                      push   eax
39 81 ---
   0:   27                      daa    
   1:   51                      push   ecx
39 82 ---
   0:   27                      daa    
   1:   52                      push   edx
39 83 ---
   0:   27                      daa    
   1:   53                      push   ebx
39 84 ---
   0:   27                      daa    
   1:   54                      push   esp
39 85 ---
   0:   27                      daa    
   1:   55                      push   ebp
39 86 ---
   0:   27                      daa    
   1:   56                      push   esi
39 87 ---
   0:   27                      daa    
   1:   57                      push   edi
39 88 ---
   0:   27                      daa    
   1:   58                      pop    eax
39 89 ---
   0:   27                      daa    
   1:   59                      pop    ecx
39 90 ---
   0:   27                      daa    
   1:   5a                      pop    edx
39 91 ---
   0:   27                      daa    
   1:   5b                      pop    ebx
39 92 ---
   0:   27                      daa    
   1:   5c                      pop    esp
39 93 ---
   0:   27                      daa    
   1:   5d                      pop    ebp
39 94 ---
   0:   27                      daa    
   1:   5e                      pop    esi
39 95 ---
   0:   27                      daa    
   1:   5f                      pop    edi
39 96 ---
   0:   27                      daa    
   1:   60                      pusha
39 97 ---
   0:   27                      daa    
   1:   61                      popa
39 98 ---
   0:   27                      daa    
   1:   62                      .byte 0x62
39 99 ---
   0:   27                      daa    
   1:   63                      .byte 0x63
39 100 ---
   0:   27                      daa    
   1:   64                      fs
39 101 ---
   0:   27                      daa    
   1:   65                      gs
39 102 ---
   0:   27                      daa    
   1:   66                      data16
39 103 ---
   0:   27                      daa    
   1:   67                      addr16
39 104 ---
   0:   27                      daa    
   1:   68                      .byte 0x68
39 105 ---
   0:   27                      daa    
   1:   69                      .byte 0x69
39 106 ---
   0:   27                      daa    
   1:   6a                      .byte 0x6a
39 107 ---
   0:   27                      daa    
   1:   6b                      .byte 0x6b
39 108 ---
   0:   27                      daa    
   1:   6c                      ins    BYTE PTR es:[edi],dx
39 109 ---
   0:   27                      daa    
   1:   6d                      ins    DWORD PTR es:[edi],dx
39 110 ---
   0:   27                      daa    
   1:   6e                      outs   dx,BYTE PTR ds:[esi]
39 111 ---
   0:   27                      daa    
   1:   6f                      outs   dx,DWORD PTR ds:[esi]
39 112 ---
   0:   27                      daa    
   1:   70                      .byte 0x70
39 113 ---
   0:   27                      daa    
   1:   71                      .byte 0x71
39 114 ---
   0:   27                      daa    
   1:   72                      .byte 0x72
39 115 ---
   0:   27                      daa    
   1:   73                      .byte 0x73
39 116 ---
   0:   27                      daa    
   1:   74                      .byte 0x74
39 117 ---
   0:   27                      daa    
   1:   75                      .byte 0x75
39 118 ---
   0:   27                      daa    
   1:   76                      .byte 0x76
39 119 ---
   0:   27                      daa    
   1:   77                      .byte 0x77
39 120 ---
   0:   27                      daa    
   1:   78                      .byte 0x78
39 121 ---
   0:   27                      daa    
   1:   79                      .byte 0x79
39 122 ---
   0:   27                      daa    
   1:   7a                      .byte 0x7a
39 123 ---
   0:   27                      daa    
   1:   7b                      .byte 0x7b
39 124 ---
   0:   27                      daa    
   1:   7c                      .byte 0x7c
39 125 ---
   0:   27                      daa    
   1:   7d                      .byte 0x7d
39 126 ---
   0:   27                      daa    
   1:   7e                      .byte 0x7e
40 32 ---
   0:   28 20                   sub    BYTE PTR [eax],ah
40 33 ---
   0:   28 21                   sub    BYTE PTR [ecx],ah
40 34 ---
   0:   28 22                   sub    BYTE PTR [edx],ah
40 35 ---
   0:   28 23                   sub    BYTE PTR [ebx],ah
40 36 ---
   0:   28                      .byte 0x28
   1:   24                      .byte 0x24
40 37 ---
   0:   28                      .byte 0x28
   1:   25                      .byte 0x25
40 38 ---
   0:   28 26                   sub    BYTE PTR [esi],ah
40 39 ---
   0:   28 27                   sub    BYTE PTR [edi],ah
40 40 ---
   0:   28 28                   sub    BYTE PTR [eax],ch
40 41 ---
   0:   28 29                   sub    BYTE PTR [ecx],ch
40 42 ---
   0:   28 2a                   sub    BYTE PTR [edx],ch
40 43 ---
   0:   28 2b                   sub    BYTE PTR [ebx],ch
40 44 ---
   0:   28                      .byte 0x28
   1:   2c                      .byte 0x2c
40 45 ---
   0:   28                      .byte 0x28
   1:   2d                      .byte 0x2d
40 46 ---
   0:   28 2e                   sub    BYTE PTR [esi],ch
40 47 ---
   0:   28 2f                   sub    BYTE PTR [edi],ch
40 48 ---
   0:   28 30                   sub    BYTE PTR [eax],dh
40 49 ---
   0:   28 31                   sub    BYTE PTR [ecx],dh
40 50 ---
   0:   28 32                   sub    BYTE PTR [edx],dh
40 51 ---
   0:   28 33                   sub    BYTE PTR [ebx],dh
40 52 ---
   0:   28                      .byte 0x28
   1:   34                      .byte 0x34
40 53 ---
   0:   28                      .byte 0x28
   1:   35                      .byte 0x35
40 54 ---
   0:   28 36                   sub    BYTE PTR [esi],dh
40 55 ---
   0:   28 37                   sub    BYTE PTR [edi],dh
40 56 ---
   0:   28 38                   sub    BYTE PTR [eax],bh
40 57 ---
   0:   28 39                   sub    BYTE PTR [ecx],bh
40 58 ---
   0:   28 3a                   sub    BYTE PTR [edx],bh
40 59 ---
   0:   28 3b                   sub    BYTE PTR [ebx],bh
40 60 ---
   0:   28                      .byte 0x28
   1:   3c                      .byte 0x3c
40 61 ---
   0:   28                      .byte 0x28
   1:   3d                      .byte 0x3d
40 62 ---
   0:   28 3e                   sub    BYTE PTR [esi],bh
40 63 ---
   0:   28 3f                   sub    BYTE PTR [edi],bh
40 64 ---
   0:   28                      .byte 0x28
   1:   40                      inc    eax
40 65 ---
   0:   28                      .byte 0x28
   1:   41                      inc    ecx
40 66 ---
   0:   28                      .byte 0x28
   1:   42                      inc    edx
40 67 ---
   0:   28                      .byte 0x28
   1:   43                      inc    ebx
40 68 ---
   0:   28                      .byte 0x28
   1:   44                      inc    esp
40 69 ---
   0:   28                      .byte 0x28
   1:   45                      inc    ebp
40 70 ---
   0:   28                      .byte 0x28
   1:   46                      inc    esi
40 71 ---
   0:   28                      .byte 0x28
   1:   47                      inc    edi
40 72 ---
   0:   28                      .byte 0x28
   1:   48                      dec    eax
40 73 ---
   0:   28                      .byte 0x28
   1:   49                      dec    ecx
40 74 ---
   0:   28                      .byte 0x28
   1:   4a                      dec    edx
40 75 ---
   0:   28                      .byte 0x28
   1:   4b                      dec    ebx
40 76 ---
   0:   28                      .byte 0x28
   1:   4c                      dec    esp
40 77 ---
   0:   28                      .byte 0x28
   1:   4d                      dec    ebp
40 78 ---
   0:   28                      .byte 0x28
   1:   4e                      dec    esi
40 79 ---
   0:   28                      .byte 0x28
   1:   4f                      dec    edi
40 80 ---
   0:   28                      .byte 0x28
   1:   50                      push   eax
40 81 ---
   0:   28                      .byte 0x28
   1:   51                      push   ecx
40 82 ---
   0:   28                      .byte 0x28
   1:   52                      push   edx
40 83 ---
   0:   28                      .byte 0x28
   1:   53                      push   ebx
40 84 ---
   0:   28                      .byte 0x28
   1:   54                      push   esp
40 85 ---
   0:   28                      .byte 0x28
   1:   55                      push   ebp
40 86 ---
   0:   28                      .byte 0x28
   1:   56                      push   esi
40 87 ---
   0:   28                      .byte 0x28
   1:   57                      push   edi
40 88 ---
   0:   28                      .byte 0x28
   1:   58                      pop    eax
40 89 ---
   0:   28                      .byte 0x28
   1:   59                      pop    ecx
40 90 ---
   0:   28                      .byte 0x28
   1:   5a                      pop    edx
40 91 ---
   0:   28                      .byte 0x28
   1:   5b                      pop    ebx
40 92 ---
   0:   28                      .byte 0x28
   1:   5c                      pop    esp
40 93 ---
   0:   28                      .byte 0x28
   1:   5d                      pop    ebp
40 94 ---
   0:   28                      .byte 0x28
   1:   5e                      pop    esi
40 95 ---
   0:   28                      .byte 0x28
   1:   5f                      pop    edi
40 96 ---
   0:   28                      .byte 0x28
   1:   60                      pusha
40 97 ---
   0:   28                      .byte 0x28
   1:   61                      popa
40 98 ---
   0:   28                      .byte 0x28
   1:   62                      .byte 0x62
40 99 ---
   0:   28                      .byte 0x28
   1:   63                      .byte 0x63
40 100 ---
   0:   28                      .byte 0x28
   1:   64                      fs
40 101 ---
   0:   28                      .byte 0x28
   1:   65                      gs
40 102 ---
   0:   28                      .byte 0x28
   1:   66                      data16
40 103 ---
   0:   28                      .byte 0x28
   1:   67                      addr16
40 104 ---
   0:   28                      .byte 0x28
   1:   68                      .byte 0x68
40 105 ---
   0:   28                      .byte 0x28
   1:   69                      .byte 0x69
40 106 ---
   0:   28                      .byte 0x28
   1:   6a                      .byte 0x6a
40 107 ---
   0:   28                      .byte 0x28
   1:   6b                      .byte 0x6b
40 108 ---
   0:   28                      .byte 0x28
   1:   6c                      ins    BYTE PTR es:[edi],dx
40 109 ---
   0:   28                      .byte 0x28
   1:   6d                      ins    DWORD PTR es:[edi],dx
40 110 ---
   0:   28                      .byte 0x28
   1:   6e                      outs   dx,BYTE PTR ds:[esi]
40 111 ---
   0:   28                      .byte 0x28
   1:   6f                      outs   dx,DWORD PTR ds:[esi]
40 112 ---
   0:   28                      .byte 0x28
   1:   70                      .byte 0x70
40 113 ---
   0:   28                      .byte 0x28
   1:   71                      .byte 0x71
40 114 ---
   0:   28                      .byte 0x28
   1:   72                      .byte 0x72
40 115 ---
   0:   28                      .byte 0x28
   1:   73                      .byte 0x73
40 116 ---
   0:   28                      .byte 0x28
   1:   74                      .byte 0x74
40 117 ---
   0:   28                      .byte 0x28
   1:   75                      .byte 0x75
40 118 ---
   0:   28                      .byte 0x28
   1:   76                      .byte 0x76
40 119 ---
   0:   28                      .byte 0x28
   1:   77                      .byte 0x77
40 120 ---
   0:   28                      .byte 0x28
   1:   78                      .byte 0x78
40 121 ---
   0:   28                      .byte 0x28
   1:   79                      .byte 0x79
40 122 ---
   0:   28                      .byte 0x28
   1:   7a                      .byte 0x7a
40 123 ---
   0:   28                      .byte 0x28
   1:   7b                      .byte 0x7b
40 124 ---
   0:   28                      .byte 0x28
   1:   7c                      .byte 0x7c
40 125 ---
   0:   28                      .byte 0x28
   1:   7d                      .byte 0x7d
40 126 ---
   0:   28                      .byte 0x28
   1:   7e                      .byte 0x7e
41 32 ---
   0:   29 20                   sub    DWORD PTR [eax],esp
41 33 ---
   0:   29 21                   sub    DWORD PTR [ecx],esp
41 34 ---
   0:   29 22                   sub    DWORD PTR [edx],esp
41 35 ---
   0:   29 23                   sub    DWORD PTR [ebx],esp
41 36 ---
   0:   29                      .byte 0x29
   1:   24                      .byte 0x24
41 37 ---
   0:   29                      .byte 0x29
   1:   25                      .byte 0x25
41 38 ---
   0:   29 26                   sub    DWORD PTR [esi],esp
41 39 ---
   0:   29 27                   sub    DWORD PTR [edi],esp
41 40 ---
   0:   29 28                   sub    DWORD PTR [eax],ebp
41 41 ---
   0:   29 29                   sub    DWORD PTR [ecx],ebp
41 42 ---
   0:   29 2a                   sub    DWORD PTR [edx],ebp
41 43 ---
   0:   29 2b                   sub    DWORD PTR [ebx],ebp
41 44 ---
   0:   29                      .byte 0x29
   1:   2c                      .byte 0x2c
41 45 ---
   0:   29                      .byte 0x29
   1:   2d                      .byte 0x2d
41 46 ---
   0:   29 2e                   sub    DWORD PTR [esi],ebp
41 47 ---
   0:   29 2f                   sub    DWORD PTR [edi],ebp
41 48 ---
   0:   29 30                   sub    DWORD PTR [eax],esi
41 49 ---
   0:   29 31                   sub    DWORD PTR [ecx],esi
41 50 ---
   0:   29 32                   sub    DWORD PTR [edx],esi
41 51 ---
   0:   29 33                   sub    DWORD PTR [ebx],esi
41 52 ---
   0:   29                      .byte 0x29
   1:   34                      .byte 0x34
41 53 ---
   0:   29                      .byte 0x29
   1:   35                      .byte 0x35
41 54 ---
   0:   29 36                   sub    DWORD PTR [esi],esi
41 55 ---
   0:   29 37                   sub    DWORD PTR [edi],esi
41 56 ---
   0:   29 38                   sub    DWORD PTR [eax],edi
41 57 ---
   0:   29 39                   sub    DWORD PTR [ecx],edi
41 58 ---
   0:   29 3a                   sub    DWORD PTR [edx],edi
41 59 ---
   0:   29 3b                   sub    DWORD PTR [ebx],edi
41 60 ---
   0:   29                      .byte 0x29
   1:   3c                      .byte 0x3c
41 61 ---
   0:   29                      .byte 0x29
   1:   3d                      .byte 0x3d
41 62 ---
   0:   29 3e                   sub    DWORD PTR [esi],edi
41 63 ---
   0:   29 3f                   sub    DWORD PTR [edi],edi
41 64 ---
   0:   29                      .byte 0x29
   1:   40                      inc    eax
41 65 ---
   0:   29                      .byte 0x29
   1:   41                      inc    ecx
41 66 ---
   0:   29                      .byte 0x29
   1:   42                      inc    edx
41 67 ---
   0:   29                      .byte 0x29
   1:   43                      inc    ebx
41 68 ---
   0:   29                      .byte 0x29
   1:   44                      inc    esp
41 69 ---
   0:   29                      .byte 0x29
   1:   45                      inc    ebp
41 70 ---
   0:   29                      .byte 0x29
   1:   46                      inc    esi
41 71 ---
   0:   29                      .byte 0x29
   1:   47                      inc    edi
41 72 ---
   0:   29                      .byte 0x29
   1:   48                      dec    eax
41 73 ---
   0:   29                      .byte 0x29
   1:   49                      dec    ecx
41 74 ---
   0:   29                      .byte 0x29
   1:   4a                      dec    edx
41 75 ---
   0:   29                      .byte 0x29
   1:   4b                      dec    ebx
41 76 ---
   0:   29                      .byte 0x29
   1:   4c                      dec    esp
41 77 ---
   0:   29                      .byte 0x29
   1:   4d                      dec    ebp
41 78 ---
   0:   29                      .byte 0x29
   1:   4e                      dec    esi
41 79 ---
   0:   29                      .byte 0x29
   1:   4f                      dec    edi
41 80 ---
   0:   29                      .byte 0x29
   1:   50                      push   eax
41 81 ---
   0:   29                      .byte 0x29
   1:   51                      push   ecx
41 82 ---
   0:   29                      .byte 0x29
   1:   52                      push   edx
41 83 ---
   0:   29                      .byte 0x29
   1:   53                      push   ebx
41 84 ---
   0:   29                      .byte 0x29
   1:   54                      push   esp
41 85 ---
   0:   29                      .byte 0x29
   1:   55                      push   ebp
41 86 ---
   0:   29                      .byte 0x29
   1:   56                      push   esi
41 87 ---
   0:   29                      .byte 0x29
   1:   57                      push   edi
41 88 ---
   0:   29                      .byte 0x29
   1:   58                      pop    eax
41 89 ---
   0:   29                      .byte 0x29
   1:   59                      pop    ecx
41 90 ---
   0:   29                      .byte 0x29
   1:   5a                      pop    edx
41 91 ---
   0:   29                      .byte 0x29
   1:   5b                      pop    ebx
41 92 ---
   0:   29                      .byte 0x29
   1:   5c                      pop    esp
41 93 ---
   0:   29                      .byte 0x29
   1:   5d                      pop    ebp
41 94 ---
   0:   29                      .byte 0x29
   1:   5e                      pop    esi
41 95 ---
   0:   29                      .byte 0x29
   1:   5f                      pop    edi
41 96 ---
   0:   29                      .byte 0x29
   1:   60                      pusha
41 97 ---
   0:   29                      .byte 0x29
   1:   61                      popa
41 98 ---
   0:   29                      .byte 0x29
   1:   62                      .byte 0x62
41 99 ---
   0:   29                      .byte 0x29
   1:   63                      .byte 0x63
41 100 ---
   0:   29                      .byte 0x29
   1:   64                      fs
41 101 ---
   0:   29                      .byte 0x29
   1:   65                      gs
41 102 ---
   0:   29                      .byte 0x29
   1:   66                      data16
41 103 ---
   0:   29                      .byte 0x29
   1:   67                      addr16
41 104 ---
   0:   29                      .byte 0x29
   1:   68                      .byte 0x68
41 105 ---
   0:   29                      .byte 0x29
   1:   69                      .byte 0x69
41 106 ---
   0:   29                      .byte 0x29
   1:   6a                      .byte 0x6a
41 107 ---
   0:   29                      .byte 0x29
   1:   6b                      .byte 0x6b
41 108 ---
   0:   29                      .byte 0x29
   1:   6c                      ins    BYTE PTR es:[edi],dx
41 109 ---
   0:   29                      .byte 0x29
   1:   6d                      ins    DWORD PTR es:[edi],dx
41 110 ---
   0:   29                      .byte 0x29
   1:   6e                      outs   dx,BYTE PTR ds:[esi]
41 111 ---
   0:   29                      .byte 0x29
   1:   6f                      outs   dx,DWORD PTR ds:[esi]
41 112 ---
   0:   29                      .byte 0x29
   1:   70                      .byte 0x70
41 113 ---
   0:   29                      .byte 0x29
   1:   71                      .byte 0x71
41 114 ---
   0:   29                      .byte 0x29
   1:   72                      .byte 0x72
41 115 ---
   0:   29                      .byte 0x29
   1:   73                      .byte 0x73
41 116 ---
   0:   29                      .byte 0x29
   1:   74                      .byte 0x74
41 117 ---
   0:   29                      .byte 0x29
   1:   75                      .byte 0x75
41 118 ---
   0:   29                      .byte 0x29
   1:   76                      .byte 0x76
41 119 ---
   0:   29                      .byte 0x29
   1:   77                      .byte 0x77
41 120 ---
   0:   29                      .byte 0x29
   1:   78                      .byte 0x78
41 121 ---
   0:   29                      .byte 0x29
   1:   79                      .byte 0x79
41 122 ---
   0:   29                      .byte 0x29
   1:   7a                      .byte 0x7a
41 123 ---
   0:   29                      .byte 0x29
   1:   7b                      .byte 0x7b
41 124 ---
   0:   29                      .byte 0x29
   1:   7c                      .byte 0x7c
41 125 ---
   0:   29                      .byte 0x29
   1:   7d                      .byte 0x7d
41 126 ---
   0:   29                      .byte 0x29
   1:   7e                      .byte 0x7e
42 32 ---
   0:   2a 20                   sub    ah,BYTE PTR [eax]
42 33 ---
   0:   2a 21                   sub    ah,BYTE PTR [ecx]
42 34 ---
   0:   2a 22                   sub    ah,BYTE PTR [edx]
42 35 ---
   0:   2a 23                   sub    ah,BYTE PTR [ebx]
42 36 ---
   0:   2a                      .byte 0x2a
   1:   24                      .byte 0x24
42 37 ---
   0:   2a                      .byte 0x2a
   1:   25                      .byte 0x25
42 38 ---
   0:   2a 26                   sub    ah,BYTE PTR [esi]
42 39 ---
   0:   2a 27                   sub    ah,BYTE PTR [edi]
42 40 ---
   0:   2a 28                   sub    ch,BYTE PTR [eax]
42 41 ---
   0:   2a 29                   sub    ch,BYTE PTR [ecx]
42 42 ---
   0:   2a 2a                   sub    ch,BYTE PTR [edx]
42 43 ---
   0:   2a 2b                   sub    ch,BYTE PTR [ebx]
42 44 ---
   0:   2a                      .byte 0x2a
   1:   2c                      .byte 0x2c
42 45 ---
   0:   2a                      .byte 0x2a
   1:   2d                      .byte 0x2d
42 46 ---
   0:   2a 2e                   sub    ch,BYTE PTR [esi]
42 47 ---
   0:   2a 2f                   sub    ch,BYTE PTR [edi]
42 48 ---
   0:   2a 30                   sub    dh,BYTE PTR [eax]
42 49 ---
   0:   2a 31                   sub    dh,BYTE PTR [ecx]
42 50 ---
   0:   2a 32                   sub    dh,BYTE PTR [edx]
42 51 ---
   0:   2a 33                   sub    dh,BYTE PTR [ebx]
42 52 ---
   0:   2a                      .byte 0x2a
   1:   34                      .byte 0x34
42 53 ---
   0:   2a                      .byte 0x2a
   1:   35                      .byte 0x35
42 54 ---
   0:   2a 36                   sub    dh,BYTE PTR [esi]
42 55 ---
   0:   2a 37                   sub    dh,BYTE PTR [edi]
42 56 ---
   0:   2a 38                   sub    bh,BYTE PTR [eax]
42 57 ---
   0:   2a 39                   sub    bh,BYTE PTR [ecx]
42 58 ---
   0:   2a 3a                   sub    bh,BYTE PTR [edx]
42 59 ---
   0:   2a 3b                   sub    bh,BYTE PTR [ebx]
42 60 ---
   0:   2a                      .byte 0x2a
   1:   3c                      .byte 0x3c
42 61 ---
   0:   2a                      .byte 0x2a
   1:   3d                      .byte 0x3d
42 62 ---
   0:   2a 3e                   sub    bh,BYTE PTR [esi]
42 63 ---
   0:   2a 3f                   sub    bh,BYTE PTR [edi]
42 64 ---
   0:   2a                      .byte 0x2a
   1:   40                      inc    eax
42 65 ---
   0:   2a                      .byte 0x2a
   1:   41                      inc    ecx
42 66 ---
   0:   2a                      .byte 0x2a
   1:   42                      inc    edx
42 67 ---
   0:   2a                      .byte 0x2a
   1:   43                      inc    ebx
42 68 ---
   0:   2a                      .byte 0x2a
   1:   44                      inc    esp
42 69 ---
   0:   2a                      .byte 0x2a
   1:   45                      inc    ebp
42 70 ---
   0:   2a                      .byte 0x2a
   1:   46                      inc    esi
42 71 ---
   0:   2a                      .byte 0x2a
   1:   47                      inc    edi
42 72 ---
   0:   2a                      .byte 0x2a
   1:   48                      dec    eax
42 73 ---
   0:   2a                      .byte 0x2a
   1:   49                      dec    ecx
42 74 ---
   0:   2a                      .byte 0x2a
   1:   4a                      dec    edx
42 75 ---
   0:   2a                      .byte 0x2a
   1:   4b                      dec    ebx
42 76 ---
   0:   2a                      .byte 0x2a
   1:   4c                      dec    esp
42 77 ---
   0:   2a                      .byte 0x2a
   1:   4d                      dec    ebp
42 78 ---
   0:   2a                      .byte 0x2a
   1:   4e                      dec    esi
42 79 ---
   0:   2a                      .byte 0x2a
   1:   4f                      dec    edi
42 80 ---
   0:   2a                      .byte 0x2a
   1:   50                      push   eax
42 81 ---
   0:   2a                      .byte 0x2a
   1:   51                      push   ecx
42 82 ---
   0:   2a                      .byte 0x2a
   1:   52                      push   edx
42 83 ---
   0:   2a                      .byte 0x2a
   1:   53                      push   ebx
42 84 ---
   0:   2a                      .byte 0x2a
   1:   54                      push   esp
42 85 ---
   0:   2a                      .byte 0x2a
   1:   55                      push   ebp
42 86 ---
   0:   2a                      .byte 0x2a
   1:   56                      push   esi
42 87 ---
   0:   2a                      .byte 0x2a
   1:   57                      push   edi
42 88 ---
   0:   2a                      .byte 0x2a
   1:   58                      pop    eax
42 89 ---
   0:   2a                      .byte 0x2a
   1:   59                      pop    ecx
42 90 ---
   0:   2a                      .byte 0x2a
   1:   5a                      pop    edx
42 91 ---
   0:   2a                      .byte 0x2a
   1:   5b                      pop    ebx
42 92 ---
   0:   2a                      .byte 0x2a
   1:   5c                      pop    esp
42 93 ---
   0:   2a                      .byte 0x2a
   1:   5d                      pop    ebp
42 94 ---
   0:   2a                      .byte 0x2a
   1:   5e                      pop    esi
42 95 ---
   0:   2a                      .byte 0x2a
   1:   5f                      pop    edi
42 96 ---
   0:   2a                      .byte 0x2a
   1:   60                      pusha
42 97 ---
   0:   2a                      .byte 0x2a
   1:   61                      popa
42 98 ---
   0:   2a                      .byte 0x2a
   1:   62                      .byte 0x62
42 99 ---
   0:   2a                      .byte 0x2a
   1:   63                      .byte 0x63
42 100 ---
   0:   2a                      .byte 0x2a
   1:   64                      fs
42 101 ---
   0:   2a                      .byte 0x2a
   1:   65                      gs
42 102 ---
   0:   2a                      .byte 0x2a
   1:   66                      data16
42 103 ---
   0:   2a                      .byte 0x2a
   1:   67                      addr16
42 104 ---
   0:   2a                      .byte 0x2a
   1:   68                      .byte 0x68
42 105 ---
   0:   2a                      .byte 0x2a
   1:   69                      .byte 0x69
42 106 ---
   0:   2a                      .byte 0x2a
   1:   6a                      .byte 0x6a
42 107 ---
   0:   2a                      .byte 0x2a
   1:   6b                      .byte 0x6b
42 108 ---
   0:   2a                      .byte 0x2a
   1:   6c                      ins    BYTE PTR es:[edi],dx
42 109 ---
   0:   2a                      .byte 0x2a
   1:   6d                      ins    DWORD PTR es:[edi],dx
42 110 ---
   0:   2a                      .byte 0x2a
   1:   6e                      outs   dx,BYTE PTR ds:[esi]
42 111 ---
   0:   2a                      .byte 0x2a
   1:   6f                      outs   dx,DWORD PTR ds:[esi]
42 112 ---
   0:   2a                      .byte 0x2a
   1:   70                      .byte 0x70
42 113 ---
   0:   2a                      .byte 0x2a
   1:   71                      .byte 0x71
42 114 ---
   0:   2a                      .byte 0x2a
   1:   72                      .byte 0x72
42 115 ---
   0:   2a                      .byte 0x2a
   1:   73                      .byte 0x73
42 116 ---
   0:   2a                      .byte 0x2a
   1:   74                      .byte 0x74
42 117 ---
   0:   2a                      .byte 0x2a
   1:   75                      .byte 0x75
42 118 ---
   0:   2a                      .byte 0x2a
   1:   76                      .byte 0x76
42 119 ---
   0:   2a                      .byte 0x2a
   1:   77                      .byte 0x77
42 120 ---
   0:   2a                      .byte 0x2a
   1:   78                      .byte 0x78
42 121 ---
   0:   2a                      .byte 0x2a
   1:   79                      .byte 0x79
42 122 ---
   0:   2a                      .byte 0x2a
   1:   7a                      .byte 0x7a
42 123 ---
   0:   2a                      .byte 0x2a
   1:   7b                      .byte 0x7b
42 124 ---
   0:   2a                      .byte 0x2a
   1:   7c                      .byte 0x7c
42 125 ---
   0:   2a                      .byte 0x2a
   1:   7d                      .byte 0x7d
42 126 ---
   0:   2a                      .byte 0x2a
   1:   7e                      .byte 0x7e
43 32 ---
   0:   2b 20                   sub    esp,DWORD PTR [eax]
43 33 ---
   0:   2b 21                   sub    esp,DWORD PTR [ecx]
43 34 ---
   0:   2b 22                   sub    esp,DWORD PTR [edx]
43 35 ---
   0:   2b 23                   sub    esp,DWORD PTR [ebx]
43 36 ---
   0:   2b                      .byte 0x2b
   1:   24                      .byte 0x24
43 37 ---
   0:   2b                      .byte 0x2b
   1:   25                      .byte 0x25
43 38 ---
   0:   2b 26                   sub    esp,DWORD PTR [esi]
43 39 ---
   0:   2b 27                   sub    esp,DWORD PTR [edi]
43 40 ---
   0:   2b 28                   sub    ebp,DWORD PTR [eax]
43 41 ---
   0:   2b 29                   sub    ebp,DWORD PTR [ecx]
43 42 ---
   0:   2b 2a                   sub    ebp,DWORD PTR [edx]
43 43 ---
   0:   2b 2b                   sub    ebp,DWORD PTR [ebx]
43 44 ---
   0:   2b                      .byte 0x2b
   1:   2c                      .byte 0x2c
43 45 ---
   0:   2b                      .byte 0x2b
   1:   2d                      .byte 0x2d
43 46 ---
   0:   2b 2e                   sub    ebp,DWORD PTR [esi]
43 47 ---
   0:   2b 2f                   sub    ebp,DWORD PTR [edi]
43 48 ---
   0:   2b 30                   sub    esi,DWORD PTR [eax]
43 49 ---
   0:   2b 31                   sub    esi,DWORD PTR [ecx]
43 50 ---
   0:   2b 32                   sub    esi,DWORD PTR [edx]
43 51 ---
   0:   2b 33                   sub    esi,DWORD PTR [ebx]
43 52 ---
   0:   2b                      .byte 0x2b
   1:   34                      .byte 0x34
43 53 ---
   0:   2b                      .byte 0x2b
   1:   35                      .byte 0x35
43 54 ---
   0:   2b 36                   sub    esi,DWORD PTR [esi]
43 55 ---
   0:   2b 37                   sub    esi,DWORD PTR [edi]
43 56 ---
   0:   2b 38                   sub    edi,DWORD PTR [eax]
43 57 ---
   0:   2b 39                   sub    edi,DWORD PTR [ecx]
43 58 ---
   0:   2b 3a                   sub    edi,DWORD PTR [edx]
43 59 ---
   0:   2b 3b                   sub    edi,DWORD PTR [ebx]
43 60 ---
   0:   2b                      .byte 0x2b
   1:   3c                      .byte 0x3c
43 61 ---
   0:   2b                      .byte 0x2b
   1:   3d                      .byte 0x3d
43 62 ---
   0:   2b 3e                   sub    edi,DWORD PTR [esi]
43 63 ---
   0:   2b 3f                   sub    edi,DWORD PTR [edi]
43 64 ---
   0:   2b                      .byte 0x2b
   1:   40                      inc    eax
43 65 ---
   0:   2b                      .byte 0x2b
   1:   41                      inc    ecx
43 66 ---
   0:   2b                      .byte 0x2b
   1:   42                      inc    edx
43 67 ---
   0:   2b                      .byte 0x2b
   1:   43                      inc    ebx
43 68 ---
   0:   2b                      .byte 0x2b
   1:   44                      inc    esp
43 69 ---
   0:   2b                      .byte 0x2b
   1:   45                      inc    ebp
43 70 ---
   0:   2b                      .byte 0x2b
   1:   46                      inc    esi
43 71 ---
   0:   2b                      .byte 0x2b
   1:   47                      inc    edi
43 72 ---
   0:   2b                      .byte 0x2b
   1:   48                      dec    eax
43 73 ---
   0:   2b                      .byte 0x2b
   1:   49                      dec    ecx
43 74 ---
   0:   2b                      .byte 0x2b
   1:   4a                      dec    edx
43 75 ---
   0:   2b                      .byte 0x2b
   1:   4b                      dec    ebx
43 76 ---
   0:   2b                      .byte 0x2b
   1:   4c                      dec    esp
43 77 ---
   0:   2b                      .byte 0x2b
   1:   4d                      dec    ebp
43 78 ---
   0:   2b                      .byte 0x2b
   1:   4e                      dec    esi
43 79 ---
   0:   2b                      .byte 0x2b
   1:   4f                      dec    edi
43 80 ---
   0:   2b                      .byte 0x2b
   1:   50                      push   eax
43 81 ---
   0:   2b                      .byte 0x2b
   1:   51                      push   ecx
43 82 ---
   0:   2b                      .byte 0x2b
   1:   52                      push   edx
43 83 ---
   0:   2b                      .byte 0x2b
   1:   53                      push   ebx
43 84 ---
   0:   2b                      .byte 0x2b
   1:   54                      push   esp
43 85 ---
   0:   2b                      .byte 0x2b
   1:   55                      push   ebp
43 86 ---
   0:   2b                      .byte 0x2b
   1:   56                      push   esi
43 87 ---
   0:   2b                      .byte 0x2b
   1:   57                      push   edi
43 88 ---
   0:   2b                      .byte 0x2b
   1:   58                      pop    eax
43 89 ---
   0:   2b                      .byte 0x2b
   1:   59                      pop    ecx
43 90 ---
   0:   2b                      .byte 0x2b
   1:   5a                      pop    edx
43 91 ---
   0:   2b                      .byte 0x2b
   1:   5b                      pop    ebx
43 92 ---
   0:   2b                      .byte 0x2b
   1:   5c                      pop    esp
43 93 ---
   0:   2b                      .byte 0x2b
   1:   5d                      pop    ebp
43 94 ---
   0:   2b                      .byte 0x2b
   1:   5e                      pop    esi
43 95 ---
   0:   2b                      .byte 0x2b
   1:   5f                      pop    edi
43 96 ---
   0:   2b                      .byte 0x2b
   1:   60                      pusha
43 97 ---
   0:   2b                      .byte 0x2b
   1:   61                      popa
43 98 ---
   0:   2b                      .byte 0x2b
   1:   62                      .byte 0x62
43 99 ---
   0:   2b                      .byte 0x2b
   1:   63                      .byte 0x63
43 100 ---
   0:   2b                      .byte 0x2b
   1:   64                      fs
43 101 ---
   0:   2b                      .byte 0x2b
   1:   65                      gs
43 102 ---
   0:   2b                      .byte 0x2b
   1:   66                      data16
43 103 ---
   0:   2b                      .byte 0x2b
   1:   67                      addr16
43 104 ---
   0:   2b                      .byte 0x2b
   1:   68                      .byte 0x68
43 105 ---
   0:   2b                      .byte 0x2b
   1:   69                      .byte 0x69
43 106 ---
   0:   2b                      .byte 0x2b
   1:   6a                      .byte 0x6a
43 107 ---
   0:   2b                      .byte 0x2b
   1:   6b                      .byte 0x6b
43 108 ---
   0:   2b                      .byte 0x2b
   1:   6c                      ins    BYTE PTR es:[edi],dx
43 109 ---
   0:   2b                      .byte 0x2b
   1:   6d                      ins    DWORD PTR es:[edi],dx
43 110 ---
   0:   2b                      .byte 0x2b
   1:   6e                      outs   dx,BYTE PTR ds:[esi]
43 111 ---
   0:   2b                      .byte 0x2b
   1:   6f                      outs   dx,DWORD PTR ds:[esi]
43 112 ---
   0:   2b                      .byte 0x2b
   1:   70                      .byte 0x70
43 113 ---
   0:   2b                      .byte 0x2b
   1:   71                      .byte 0x71
43 114 ---
   0:   2b                      .byte 0x2b
   1:   72                      .byte 0x72
43 115 ---
   0:   2b                      .byte 0x2b
   1:   73                      .byte 0x73
43 116 ---
   0:   2b                      .byte 0x2b
   1:   74                      .byte 0x74
43 117 ---
   0:   2b                      .byte 0x2b
   1:   75                      .byte 0x75
43 118 ---
   0:   2b                      .byte 0x2b
   1:   76                      .byte 0x76
43 119 ---
   0:   2b                      .byte 0x2b
   1:   77                      .byte 0x77
43 120 ---
   0:   2b                      .byte 0x2b
   1:   78                      .byte 0x78
43 121 ---
   0:   2b                      .byte 0x2b
   1:   79                      .byte 0x79
43 122 ---
   0:   2b                      .byte 0x2b
   1:   7a                      .byte 0x7a
43 123 ---
   0:   2b                      .byte 0x2b
   1:   7b                      .byte 0x7b
43 124 ---
   0:   2b                      .byte 0x2b
   1:   7c                      .byte 0x7c
43 125 ---
   0:   2b                      .byte 0x2b
   1:   7d                      .byte 0x7d
43 126 ---
   0:   2b                      .byte 0x2b
   1:   7e                      .byte 0x7e
44 32 ---
   0:   2c 20                   sub    al,0x20
44 33 ---
   0:   2c 21                   sub    al,0x21
44 34 ---
   0:   2c 22                   sub    al,0x22
44 35 ---
   0:   2c 23                   sub    al,0x23
44 36 ---
   0:   2c 24                   sub    al,0x24
44 37 ---
   0:   2c 25                   sub    al,0x25
44 38 ---
   0:   2c 26                   sub    al,0x26
44 39 ---
   0:   2c 27                   sub    al,0x27
44 40 ---
   0:   2c 28                   sub    al,0x28
44 41 ---
   0:   2c 29                   sub    al,0x29
44 42 ---
   0:   2c 2a                   sub    al,0x2a
44 43 ---
   0:   2c 2b                   sub    al,0x2b
44 44 ---
   0:   2c 2c                   sub    al,0x2c
44 45 ---
   0:   2c 2d                   sub    al,0x2d
44 46 ---
   0:   2c 2e                   sub    al,0x2e
44 47 ---
   0:   2c 2f                   sub    al,0x2f
44 48 ---
   0:   2c 30                   sub    al,0x30
44 49 ---
   0:   2c 31                   sub    al,0x31
44 50 ---
   0:   2c 32                   sub    al,0x32
44 51 ---
   0:   2c 33                   sub    al,0x33
44 52 ---
   0:   2c 34                   sub    al,0x34
44 53 ---
   0:   2c 35                   sub    al,0x35
44 54 ---
   0:   2c 36                   sub    al,0x36
44 55 ---
   0:   2c 37                   sub    al,0x37
44 56 ---
   0:   2c 38                   sub    al,0x38
44 57 ---
   0:   2c 39                   sub    al,0x39
44 58 ---
   0:   2c 3a                   sub    al,0x3a
44 59 ---
   0:   2c 3b                   sub    al,0x3b
44 60 ---
   0:   2c 3c                   sub    al,0x3c
44 61 ---
   0:   2c 3d                   sub    al,0x3d
44 62 ---
   0:   2c 3e                   sub    al,0x3e
44 63 ---
   0:   2c 3f                   sub    al,0x3f
44 64 ---
   0:   2c 40                   sub    al,0x40
44 65 ---
   0:   2c 41                   sub    al,0x41
44 66 ---
   0:   2c 42                   sub    al,0x42
44 67 ---
   0:   2c 43                   sub    al,0x43
44 68 ---
   0:   2c 44                   sub    al,0x44
44 69 ---
   0:   2c 45                   sub    al,0x45
44 70 ---
   0:   2c 46                   sub    al,0x46
44 71 ---
   0:   2c 47                   sub    al,0x47
44 72 ---
   0:   2c 48                   sub    al,0x48
44 73 ---
   0:   2c 49                   sub    al,0x49
44 74 ---
   0:   2c 4a                   sub    al,0x4a
44 75 ---
   0:   2c 4b                   sub    al,0x4b
44 76 ---
   0:   2c 4c                   sub    al,0x4c
44 77 ---
   0:   2c 4d                   sub    al,0x4d
44 78 ---
   0:   2c 4e                   sub    al,0x4e
44 79 ---
   0:   2c 4f                   sub    al,0x4f
44 80 ---
   0:   2c 50                   sub    al,0x50
44 81 ---
   0:   2c 51                   sub    al,0x51
44 82 ---
   0:   2c 52                   sub    al,0x52
44 83 ---
   0:   2c 53                   sub    al,0x53
44 84 ---
   0:   2c 54                   sub    al,0x54
44 85 ---
   0:   2c 55                   sub    al,0x55
44 86 ---
   0:   2c 56                   sub    al,0x56
44 87 ---
   0:   2c 57                   sub    al,0x57
44 88 ---
   0:   2c 58                   sub    al,0x58
44 89 ---
   0:   2c 59                   sub    al,0x59
44 90 ---
   0:   2c 5a                   sub    al,0x5a
44 91 ---
   0:   2c 5b                   sub    al,0x5b
44 92 ---
   0:   2c 5c                   sub    al,0x5c
44 93 ---
   0:   2c 5d                   sub    al,0x5d
44 94 ---
   0:   2c 5e                   sub    al,0x5e
44 95 ---
   0:   2c 5f                   sub    al,0x5f
44 96 ---
   0:   2c 60                   sub    al,0x60
44 97 ---
   0:   2c 61                   sub    al,0x61
44 98 ---
   0:   2c 62                   sub    al,0x62
44 99 ---
   0:   2c 63                   sub    al,0x63
44 100 ---
   0:   2c 64                   sub    al,0x64
44 101 ---
   0:   2c 65                   sub    al,0x65
44 102 ---
   0:   2c 66                   sub    al,0x66
44 103 ---
   0:   2c 67                   sub    al,0x67
44 104 ---
   0:   2c 68                   sub    al,0x68
44 105 ---
   0:   2c 69                   sub    al,0x69
44 106 ---
   0:   2c 6a                   sub    al,0x6a
44 107 ---
   0:   2c 6b                   sub    al,0x6b
44 108 ---
   0:   2c 6c                   sub    al,0x6c
44 109 ---
   0:   2c 6d                   sub    al,0x6d
44 110 ---
   0:   2c 6e                   sub    al,0x6e
44 111 ---
   0:   2c 6f                   sub    al,0x6f
44 112 ---
   0:   2c 70                   sub    al,0x70
44 113 ---
   0:   2c 71                   sub    al,0x71
44 114 ---
   0:   2c 72                   sub    al,0x72
44 115 ---
   0:   2c 73                   sub    al,0x73
44 116 ---
   0:   2c 74                   sub    al,0x74
44 117 ---
   0:   2c 75                   sub    al,0x75
44 118 ---
   0:   2c 76                   sub    al,0x76
44 119 ---
   0:   2c 77                   sub    al,0x77
44 120 ---
   0:   2c 78                   sub    al,0x78
44 121 ---
   0:   2c 79                   sub    al,0x79
44 122 ---
   0:   2c 7a                   sub    al,0x7a
44 123 ---
   0:   2c 7b                   sub    al,0x7b
44 124 ---
   0:   2c 7c                   sub    al,0x7c
44 125 ---
   0:   2c 7d                   sub    al,0x7d
44 126 ---
   0:   2c 7e                   sub    al,0x7e
45 32 ---
   0:   2d                      .byte 0x2d
   1:   20                      .byte 0x20
45 33 ---
   0:   2d                      .byte 0x2d
   1:   21                      .byte 0x21
45 34 ---
   0:   2d                      .byte 0x2d
   1:   22                      .byte 0x22
45 35 ---
   0:   2d                      .byte 0x2d
   1:   23                      .byte 0x23
45 36 ---
   0:   2d                      .byte 0x2d
   1:   24                      .byte 0x24
45 37 ---
   0:   2d                      .byte 0x2d
   1:   25                      .byte 0x25
45 38 ---
   0:   2d                      .byte 0x2d
   1:   26                      es
45 39 ---
   0:   2d                      .byte 0x2d
   1:   27                      daa
45 40 ---
   0:   2d                      .byte 0x2d
   1:   28                      .byte 0x28
45 41 ---
   0:   2d                      .byte 0x2d
   1:   29                      .byte 0x29
45 42 ---
   0:   2d                      .byte 0x2d
   1:   2a                      .byte 0x2a
45 43 ---
   0:   2d                      .byte 0x2d
   1:   2b                      .byte 0x2b
45 44 ---
   0:   2d                      .byte 0x2d
   1:   2c                      .byte 0x2c
45 45 ---
   0:   2d                      .byte 0x2d
   1:   2d                      .byte 0x2d
45 46 ---
   0:   2d                      .byte 0x2d
   1:   2e                      cs
45 47 ---
   0:   2d                      .byte 0x2d
   1:   2f                      das
45 48 ---
   0:   2d                      .byte 0x2d
   1:   30                      .byte 0x30
45 49 ---
   0:   2d                      .byte 0x2d
   1:   31                      .byte 0x31
45 50 ---
   0:   2d                      .byte 0x2d
   1:   32                      .byte 0x32
45 51 ---
   0:   2d                      .byte 0x2d
   1:   33                      .byte 0x33
45 52 ---
   0:   2d                      .byte 0x2d
   1:   34                      .byte 0x34
45 53 ---
   0:   2d                      .byte 0x2d
   1:   35                      .byte 0x35
45 54 ---
   0:   2d                      .byte 0x2d
   1:   36                      ss
45 55 ---
   0:   2d                      .byte 0x2d
   1:   37                      aaa
45 56 ---
   0:   2d                      .byte 0x2d
   1:   38                      .byte 0x38
45 57 ---
   0:   2d                      .byte 0x2d
   1:   39                      .byte 0x39
45 58 ---
   0:   2d                      .byte 0x2d
   1:   3a                      .byte 0x3a
45 59 ---
   0:   2d                      .byte 0x2d
   1:   3b                      .byte 0x3b
45 60 ---
   0:   2d                      .byte 0x2d
   1:   3c                      .byte 0x3c
45 61 ---
   0:   2d                      .byte 0x2d
   1:   3d                      .byte 0x3d
45 62 ---
   0:   2d                      .byte 0x2d
   1:   3e                      ds
45 63 ---
   0:   2d                      .byte 0x2d
   1:   3f                      aas
45 64 ---
   0:   2d                      .byte 0x2d
   1:   40                      inc    eax
45 65 ---
   0:   2d                      .byte 0x2d
   1:   41                      inc    ecx
45 66 ---
   0:   2d                      .byte 0x2d
   1:   42                      inc    edx
45 67 ---
   0:   2d                      .byte 0x2d
   1:   43                      inc    ebx
45 68 ---
   0:   2d                      .byte 0x2d
   1:   44                      inc    esp
45 69 ---
   0:   2d                      .byte 0x2d
   1:   45                      inc    ebp
45 70 ---
   0:   2d                      .byte 0x2d
   1:   46                      inc    esi
45 71 ---
   0:   2d                      .byte 0x2d
   1:   47                      inc    edi
45 72 ---
   0:   2d                      .byte 0x2d
   1:   48                      dec    eax
45 73 ---
   0:   2d                      .byte 0x2d
   1:   49                      dec    ecx
45 74 ---
   0:   2d                      .byte 0x2d
   1:   4a                      dec    edx
45 75 ---
   0:   2d                      .byte 0x2d
   1:   4b                      dec    ebx
45 76 ---
   0:   2d                      .byte 0x2d
   1:   4c                      dec    esp
45 77 ---
   0:   2d                      .byte 0x2d
   1:   4d                      dec    ebp
45 78 ---
   0:   2d                      .byte 0x2d
   1:   4e                      dec    esi
45 79 ---
   0:   2d                      .byte 0x2d
   1:   4f                      dec    edi
45 80 ---
   0:   2d                      .byte 0x2d
   1:   50                      push   eax
45 81 ---
   0:   2d                      .byte 0x2d
   1:   51                      push   ecx
45 82 ---
   0:   2d                      .byte 0x2d
   1:   52                      push   edx
45 83 ---
   0:   2d                      .byte 0x2d
   1:   53                      push   ebx
45 84 ---
   0:   2d                      .byte 0x2d
   1:   54                      push   esp
45 85 ---
   0:   2d                      .byte 0x2d
   1:   55                      push   ebp
45 86 ---
   0:   2d                      .byte 0x2d
   1:   56                      push   esi
45 87 ---
   0:   2d                      .byte 0x2d
   1:   57                      push   edi
45 88 ---
   0:   2d                      .byte 0x2d
   1:   58                      pop    eax
45 89 ---
   0:   2d                      .byte 0x2d
   1:   59                      pop    ecx
45 90 ---
   0:   2d                      .byte 0x2d
   1:   5a                      pop    edx
45 91 ---
   0:   2d                      .byte 0x2d
   1:   5b                      pop    ebx
45 92 ---
   0:   2d                      .byte 0x2d
   1:   5c                      pop    esp
45 93 ---
   0:   2d                      .byte 0x2d
   1:   5d                      pop    ebp
45 94 ---
   0:   2d                      .byte 0x2d
   1:   5e                      pop    esi
45 95 ---
   0:   2d                      .byte 0x2d
   1:   5f                      pop    edi
45 96 ---
   0:   2d                      .byte 0x2d
   1:   60                      pusha
45 97 ---
   0:   2d                      .byte 0x2d
   1:   61                      popa
45 98 ---
   0:   2d                      .byte 0x2d
   1:   62                      .byte 0x62
45 99 ---
   0:   2d                      .byte 0x2d
   1:   63                      .byte 0x63
45 100 ---
   0:   2d                      .byte 0x2d
   1:   64                      fs
45 101 ---
   0:   2d                      .byte 0x2d
   1:   65                      gs
45 102 ---
   0:   2d                      .byte 0x2d
   1:   66                      data16
45 103 ---
   0:   2d                      .byte 0x2d
   1:   67                      addr16
45 104 ---
   0:   2d                      .byte 0x2d
   1:   68                      .byte 0x68
45 105 ---
   0:   2d                      .byte 0x2d
   1:   69                      .byte 0x69
45 106 ---
   0:   2d                      .byte 0x2d
   1:   6a                      .byte 0x6a
45 107 ---
   0:   2d                      .byte 0x2d
   1:   6b                      .byte 0x6b
45 108 ---
   0:   2d                      .byte 0x2d
   1:   6c                      ins    BYTE PTR es:[edi],dx
45 109 ---
   0:   2d                      .byte 0x2d
   1:   6d                      ins    DWORD PTR es:[edi],dx
45 110 ---
   0:   2d                      .byte 0x2d
   1:   6e                      outs   dx,BYTE PTR ds:[esi]
45 111 ---
   0:   2d                      .byte 0x2d
   1:   6f                      outs   dx,DWORD PTR ds:[esi]
45 112 ---
   0:   2d                      .byte 0x2d
   1:   70                      .byte 0x70
45 113 ---
   0:   2d                      .byte 0x2d
   1:   71                      .byte 0x71
45 114 ---
   0:   2d                      .byte 0x2d
   1:   72                      .byte 0x72
45 115 ---
   0:   2d                      .byte 0x2d
   1:   73                      .byte 0x73
45 116 ---
   0:   2d                      .byte 0x2d
   1:   74                      .byte 0x74
45 117 ---
   0:   2d                      .byte 0x2d
   1:   75                      .byte 0x75
45 118 ---
   0:   2d                      .byte 0x2d
   1:   76                      .byte 0x76
45 119 ---
   0:   2d                      .byte 0x2d
   1:   77                      .byte 0x77
45 120 ---
   0:   2d                      .byte 0x2d
   1:   78                      .byte 0x78
45 121 ---
   0:   2d                      .byte 0x2d
   1:   79                      .byte 0x79
45 122 ---
   0:   2d                      .byte 0x2d
   1:   7a                      .byte 0x7a
45 123 ---
   0:   2d                      .byte 0x2d
   1:   7b                      .byte 0x7b
45 124 ---
   0:   2d                      .byte 0x2d
   1:   7c                      .byte 0x7c
45 125 ---
   0:   2d                      .byte 0x2d
   1:   7d                      .byte 0x7d
45 126 ---
   0:   2d                      .byte 0x2d
   1:   7e                      .byte 0x7e
46 32 ---
   0:   2e                      cs
   1:   20                      .byte 0x20
46 33 ---
   0:   2e                      cs
   1:   21                      .byte 0x21
46 34 ---
   0:   2e                      cs
   1:   22                      .byte 0x22
46 35 ---
   0:   2e                      cs
   1:   23                      .byte 0x23
46 36 ---
   0:   2e                      cs
   1:   24                      .byte 0x24
46 37 ---
   0:   2e                      cs
   1:   25                      .byte 0x25
46 38 ---
   0:   2e                      cs
   1:   26                      es
46 39 ---
   0:   2e 27                   cs daa
46 40 ---
   0:   2e                      cs
   1:   28                      .byte 0x28
46 41 ---
   0:   2e                      cs
   1:   29                      .byte 0x29
46 42 ---
   0:   2e                      cs
   1:   2a                      .byte 0x2a
46 43 ---
   0:   2e                      cs
   1:   2b                      .byte 0x2b
46 44 ---
   0:   2e                      cs
   1:   2c                      .byte 0x2c
46 45 ---
   0:   2e                      cs
   1:   2d                      .byte 0x2d
46 46 ---
   0:   2e                      cs
   1:   2e                      cs
46 47 ---
   0:   2e 2f                   cs das
46 48 ---
   0:   2e                      cs
   1:   30                      .byte 0x30
46 49 ---
   0:   2e                      cs
   1:   31                      .byte 0x31
46 50 ---
   0:   2e                      cs
   1:   32                      .byte 0x32
46 51 ---
   0:   2e                      cs
   1:   33                      .byte 0x33
46 52 ---
   0:   2e                      cs
   1:   34                      .byte 0x34
46 53 ---
   0:   2e                      cs
   1:   35                      .byte 0x35
46 54 ---
   0:   2e                      cs
   1:   36                      ss
46 55 ---
   0:   2e 37                   cs aaa
46 56 ---
   0:   2e                      cs
   1:   38                      .byte 0x38
46 57 ---
   0:   2e                      cs
   1:   39                      .byte 0x39
46 58 ---
   0:   2e                      cs
   1:   3a                      .byte 0x3a
46 59 ---
   0:   2e                      cs
   1:   3b                      .byte 0x3b
46 60 ---
   0:   2e                      cs
   1:   3c                      .byte 0x3c
46 61 ---
   0:   2e                      cs
   1:   3d                      .byte 0x3d
46 62 ---
   0:   2e                      cs
   1:   3e                      ds
46 63 ---
   0:   2e 3f                   cs aas
46 64 ---
   0:   2e 40                   cs inc eax
46 65 ---
   0:   2e 41                   cs inc ecx
46 66 ---
   0:   2e 42                   cs inc edx
46 67 ---
   0:   2e 43                   cs inc ebx
46 68 ---
   0:   2e 44                   cs inc esp
46 69 ---
   0:   2e 45                   cs inc ebp
46 70 ---
   0:   2e 46                   cs inc esi
46 71 ---
   0:   2e 47                   cs inc edi
46 72 ---
   0:   2e 48                   cs dec eax
46 73 ---
   0:   2e 49                   cs dec ecx
46 74 ---
   0:   2e 4a                   cs dec edx
46 75 ---
   0:   2e 4b                   cs dec ebx
46 76 ---
   0:   2e 4c                   cs dec esp
46 77 ---
   0:   2e 4d                   cs dec ebp
46 78 ---
   0:   2e 4e                   cs dec esi
46 79 ---
   0:   2e 4f                   cs dec edi
46 80 ---
   0:   2e 50                   cs push eax
46 81 ---
   0:   2e 51                   cs push ecx
46 82 ---
   0:   2e 52                   cs push edx
46 83 ---
   0:   2e 53                   cs push ebx
46 84 ---
   0:   2e 54                   cs push esp
46 85 ---
   0:   2e 55                   cs push ebp
46 86 ---
   0:   2e 56                   cs push esi
46 87 ---
   0:   2e 57                   cs push edi
46 88 ---
   0:   2e 58                   cs pop eax
46 89 ---
   0:   2e 59                   cs pop ecx
46 90 ---
   0:   2e 5a                   cs pop edx
46 91 ---
   0:   2e 5b                   cs pop ebx
46 92 ---
   0:   2e 5c                   cs pop esp
46 93 ---
   0:   2e 5d                   cs pop ebp
46 94 ---
   0:   2e 5e                   cs pop esi
46 95 ---
   0:   2e 5f                   cs pop edi
46 96 ---
   0:   2e 60                   cs pusha
46 97 ---
   0:   2e 61                   cs popa
46 98 ---
   0:   2e                      cs
   1:   62                      .byte 0x62
46 99 ---
   0:   2e                      cs
   1:   63                      .byte 0x63
46 100 ---
   0:   2e                      cs
   1:   64                      fs
46 101 ---
   0:   2e                      cs
   1:   65                      gs
46 102 ---
   0:   2e                      cs
   1:   66                      data16
46 103 ---
   0:   2e                      cs
   1:   67                      addr16
46 104 ---
   0:   2e                      cs
   1:   68                      .byte 0x68
46 105 ---
   0:   2e                      cs
   1:   69                      .byte 0x69
46 106 ---
   0:   2e                      cs
   1:   6a                      .byte 0x6a
46 107 ---
   0:   2e                      cs
   1:   6b                      .byte 0x6b
46 108 ---
   0:   2e 6c                   cs ins BYTE PTR es:[edi],dx
46 109 ---
   0:   2e 6d                   cs ins DWORD PTR es:[edi],dx
46 110 ---
   0:   2e 6e                   outs   dx,BYTE PTR cs:[esi]
46 111 ---
   0:   2e 6f                   outs   dx,DWORD PTR cs:[esi]
46 112 ---
   0:   2e                      cs
   1:   70                      .byte 0x70
46 113 ---
   0:   2e                      cs
   1:   71                      .byte 0x71
46 114 ---
   0:   2e                      cs
   1:   72                      .byte 0x72
46 115 ---
   0:   2e                      cs
   1:   73                      .byte 0x73
46 116 ---
   0:   2e                      cs
   1:   74                      .byte 0x74
46 117 ---
   0:   2e                      cs
   1:   75                      .byte 0x75
46 118 ---
   0:   2e                      cs
   1:   76                      .byte 0x76
46 119 ---
   0:   2e                      cs
   1:   77                      .byte 0x77
46 120 ---
   0:   2e                      cs
   1:   78                      .byte 0x78
46 121 ---
   0:   2e                      cs
   1:   79                      .byte 0x79
46 122 ---
   0:   2e                      cs
   1:   7a                      .byte 0x7a
46 123 ---
   0:   2e                      cs
   1:   7b                      .byte 0x7b
46 124 ---
   0:   2e                      cs
   1:   7c                      .byte 0x7c
46 125 ---
   0:   2e                      cs
   1:   7d                      .byte 0x7d
46 126 ---
   0:   2e                      cs
   1:   7e                      .byte 0x7e
47 32 ---
   0:   2f                      das    
   1:   20                      .byte 0x20
47 33 ---
   0:   2f                      das    
   1:   21                      .byte 0x21
47 34 ---
   0:   2f                      das    
   1:   22                      .byte 0x22
47 35 ---
   0:   2f                      das    
   1:   23                      .byte 0x23
47 36 ---
   0:   2f                      das    
   1:   24                      .byte 0x24
47 37 ---
   0:   2f                      das    
   1:   25                      .byte 0x25
47 38 ---
   0:   2f                      das    
   1:   26                      es
47 39 ---
   0:   2f                      das    
   1:   27                      daa
47 40 ---
   0:   2f                      das    
   1:   28                      .byte 0x28
47 41 ---
   0:   2f                      das    
   1:   29                      .byte 0x29
47 42 ---
   0:   2f                      das    
   1:   2a                      .byte 0x2a
47 43 ---
   0:   2f                      das    
   1:   2b                      .byte 0x2b
47 44 ---
   0:   2f                      das    
   1:   2c                      .byte 0x2c
47 45 ---
   0:   2f                      das    
   1:   2d                      .byte 0x2d
47 46 ---
   0:   2f                      das    
   1:   2e                      cs
47 47 ---
   0:   2f                      das    
   1:   2f                      das
47 48 ---
   0:   2f                      das    
   1:   30                      .byte 0x30
47 49 ---
   0:   2f                      das    
   1:   31                      .byte 0x31
47 50 ---
   0:   2f                      das    
   1:   32                      .byte 0x32
47 51 ---
   0:   2f                      das    
   1:   33                      .byte 0x33
47 52 ---
   0:   2f                      das    
   1:   34                      .byte 0x34
47 53 ---
   0:   2f                      das    
   1:   35                      .byte 0x35
47 54 ---
   0:   2f                      das    
   1:   36                      ss
47 55 ---
   0:   2f                      das    
   1:   37                      aaa
47 56 ---
   0:   2f                      das    
   1:   38                      .byte 0x38
47 57 ---
   0:   2f                      das    
   1:   39                      .byte 0x39
47 58 ---
   0:   2f                      das    
   1:   3a                      .byte 0x3a
47 59 ---
   0:   2f                      das    
   1:   3b                      .byte 0x3b
47 60 ---
   0:   2f                      das    
   1:   3c                      .byte 0x3c
47 61 ---
   0:   2f                      das    
   1:   3d                      .byte 0x3d
47 62 ---
   0:   2f                      das    
   1:   3e                      ds
47 63 ---
   0:   2f                      das    
   1:   3f                      aas
47 64 ---
   0:   2f                      das    
   1:   40                      inc    eax
47 65 ---
   0:   2f                      das    
   1:   41                      inc    ecx
47 66 ---
   0:   2f                      das    
   1:   42                      inc    edx
47 67 ---
   0:   2f                      das    
   1:   43                      inc    ebx
47 68 ---
   0:   2f                      das    
   1:   44                      inc    esp
47 69 ---
   0:   2f                      das    
   1:   45                      inc    ebp
47 70 ---
   0:   2f                      das    
   1:   46                      inc    esi
47 71 ---
   0:   2f                      das    
   1:   47                      inc    edi
47 72 ---
   0:   2f                      das    
   1:   48                      dec    eax
47 73 ---
   0:   2f                      das    
   1:   49                      dec    ecx
47 74 ---
   0:   2f                      das    
   1:   4a                      dec    edx
47 75 ---
   0:   2f                      das    
   1:   4b                      dec    ebx
47 76 ---
   0:   2f                      das    
   1:   4c                      dec    esp
47 77 ---
   0:   2f                      das    
   1:   4d                      dec    ebp
47 78 ---
   0:   2f                      das    
   1:   4e                      dec    esi
47 79 ---
   0:   2f                      das    
   1:   4f                      dec    edi
47 80 ---
   0:   2f                      das    
   1:   50                      push   eax
47 81 ---
   0:   2f                      das    
   1:   51                      push   ecx
47 82 ---
   0:   2f                      das    
   1:   52                      push   edx
47 83 ---
   0:   2f                      das    
   1:   53                      push   ebx
47 84 ---
   0:   2f                      das    
   1:   54                      push   esp
47 85 ---
   0:   2f                      das    
   1:   55                      push   ebp
47 86 ---
   0:   2f                      das    
   1:   56                      push   esi
47 87 ---
   0:   2f                      das    
   1:   57                      push   edi
47 88 ---
   0:   2f                      das    
   1:   58                      pop    eax
47 89 ---
   0:   2f                      das    
   1:   59                      pop    ecx
47 90 ---
   0:   2f                      das    
   1:   5a                      pop    edx
47 91 ---
   0:   2f                      das    
   1:   5b                      pop    ebx
47 92 ---
   0:   2f                      das    
   1:   5c                      pop    esp
47 93 ---
   0:   2f                      das    
   1:   5d                      pop    ebp
47 94 ---
   0:   2f                      das    
   1:   5e                      pop    esi
47 95 ---
   0:   2f                      das    
   1:   5f                      pop    edi
47 96 ---
   0:   2f                      das    
   1:   60                      pusha
47 97 ---
   0:   2f                      das    
   1:   61                      popa
47 98 ---
   0:   2f                      das    
   1:   62                      .byte 0x62
47 99 ---
   0:   2f                      das    
   1:   63                      .byte 0x63
47 100 ---
   0:   2f                      das    
   1:   64                      fs
47 101 ---
   0:   2f                      das    
   1:   65                      gs
47 102 ---
   0:   2f                      das    
   1:   66                      data16
47 103 ---
   0:   2f                      das    
   1:   67                      addr16
47 104 ---
   0:   2f                      das    
   1:   68                      .byte 0x68
47 105 ---
   0:   2f                      das    
   1:   69                      .byte 0x69
47 106 ---
   0:   2f                      das    
   1:   6a                      .byte 0x6a
47 107 ---
   0:   2f                      das    
   1:   6b                      .byte 0x6b
47 108 ---
   0:   2f                      das    
   1:   6c                      ins    BYTE PTR es:[edi],dx
47 109 ---
   0:   2f                      das    
   1:   6d                      ins    DWORD PTR es:[edi],dx
47 110 ---
   0:   2f                      das    
   1:   6e                      outs   dx,BYTE PTR ds:[esi]
47 111 ---
   0:   2f                      das    
   1:   6f                      outs   dx,DWORD PTR ds:[esi]
47 112 ---
   0:   2f                      das    
   1:   70                      .byte 0x70
47 113 ---
   0:   2f                      das    
   1:   71                      .byte 0x71
47 114 ---
   0:   2f                      das    
   1:   72                      .byte 0x72
47 115 ---
   0:   2f                      das    
   1:   73                      .byte 0x73
47 116 ---
   0:   2f                      das    
   1:   74                      .byte 0x74
47 117 ---
   0:   2f                      das    
   1:   75                      .byte 0x75
47 118 ---
   0:   2f                      das    
   1:   76                      .byte 0x76
47 119 ---
   0:   2f                      das    
   1:   77                      .byte 0x77
47 120 ---
   0:   2f                      das    
   1:   78                      .byte 0x78
47 121 ---
   0:   2f                      das    
   1:   79                      .byte 0x79
47 122 ---
   0:   2f                      das    
   1:   7a                      .byte 0x7a
47 123 ---
   0:   2f                      das    
   1:   7b                      .byte 0x7b
47 124 ---
   0:   2f                      das    
   1:   7c                      .byte 0x7c
47 125 ---
   0:   2f                      das    
   1:   7d                      .byte 0x7d
47 126 ---
   0:   2f                      das    
   1:   7e                      .byte 0x7e
48 32 ---
   0:   30 20                   xor    BYTE PTR [eax],ah
48 33 ---
   0:   30 21                   xor    BYTE PTR [ecx],ah
48 34 ---
   0:   30 22                   xor    BYTE PTR [edx],ah
48 35 ---
   0:   30 23                   xor    BYTE PTR [ebx],ah
48 36 ---
   0:   30                      .byte 0x30
   1:   24                      .byte 0x24
48 37 ---
   0:   30                      .byte 0x30
   1:   25                      .byte 0x25
48 38 ---
   0:   30 26                   xor    BYTE PTR [esi],ah
48 39 ---
   0:   30 27                   xor    BYTE PTR [edi],ah
48 40 ---
   0:   30 28                   xor    BYTE PTR [eax],ch
48 41 ---
   0:   30 29                   xor    BYTE PTR [ecx],ch
48 42 ---
   0:   30 2a                   xor    BYTE PTR [edx],ch
48 43 ---
   0:   30 2b                   xor    BYTE PTR [ebx],ch
48 44 ---
   0:   30                      .byte 0x30
   1:   2c                      .byte 0x2c
48 45 ---
   0:   30                      .byte 0x30
   1:   2d                      .byte 0x2d
48 46 ---
   0:   30 2e                   xor    BYTE PTR [esi],ch
48 47 ---
   0:   30 2f                   xor    BYTE PTR [edi],ch
48 48 ---
   0:   30 30                   xor    BYTE PTR [eax],dh
48 49 ---
   0:   30 31                   xor    BYTE PTR [ecx],dh
48 50 ---
   0:   30 32                   xor    BYTE PTR [edx],dh
48 51 ---
   0:   30 33                   xor    BYTE PTR [ebx],dh
48 52 ---
   0:   30                      .byte 0x30
   1:   34                      .byte 0x34
48 53 ---
   0:   30                      .byte 0x30
   1:   35                      .byte 0x35
48 54 ---
   0:   30 36                   xor    BYTE PTR [esi],dh
48 55 ---
   0:   30 37                   xor    BYTE PTR [edi],dh
48 56 ---
   0:   30 38                   xor    BYTE PTR [eax],bh
48 57 ---
   0:   30 39                   xor    BYTE PTR [ecx],bh
48 58 ---
   0:   30 3a                   xor    BYTE PTR [edx],bh
48 59 ---
   0:   30 3b                   xor    BYTE PTR [ebx],bh
48 60 ---
   0:   30                      .byte 0x30
   1:   3c                      .byte 0x3c
48 61 ---
   0:   30                      .byte 0x30
   1:   3d                      .byte 0x3d
48 62 ---
   0:   30 3e                   xor    BYTE PTR [esi],bh
48 63 ---
   0:   30 3f                   xor    BYTE PTR [edi],bh
48 64 ---
   0:   30                      .byte 0x30
   1:   40                      inc    eax
48 65 ---
   0:   30                      .byte 0x30
   1:   41                      inc    ecx
48 66 ---
   0:   30                      .byte 0x30
   1:   42                      inc    edx
48 67 ---
   0:   30                      .byte 0x30
   1:   43                      inc    ebx
48 68 ---
   0:   30                      .byte 0x30
   1:   44                      inc    esp
48 69 ---
   0:   30                      .byte 0x30
   1:   45                      inc    ebp
48 70 ---
   0:   30                      .byte 0x30
   1:   46                      inc    esi
48 71 ---
   0:   30                      .byte 0x30
   1:   47                      inc    edi
48 72 ---
   0:   30                      .byte 0x30
   1:   48                      dec    eax
48 73 ---
   0:   30                      .byte 0x30
   1:   49                      dec    ecx
48 74 ---
   0:   30                      .byte 0x30
   1:   4a                      dec    edx
48 75 ---
   0:   30                      .byte 0x30
   1:   4b                      dec    ebx
48 76 ---
   0:   30                      .byte 0x30
   1:   4c                      dec    esp
48 77 ---
   0:   30                      .byte 0x30
   1:   4d                      dec    ebp
48 78 ---
   0:   30                      .byte 0x30
   1:   4e                      dec    esi
48 79 ---
   0:   30                      .byte 0x30
   1:   4f                      dec    edi
48 80 ---
   0:   30                      .byte 0x30
   1:   50                      push   eax
48 81 ---
   0:   30                      .byte 0x30
   1:   51                      push   ecx
48 82 ---
   0:   30                      .byte 0x30
   1:   52                      push   edx
48 83 ---
   0:   30                      .byte 0x30
   1:   53                      push   ebx
48 84 ---
   0:   30                      .byte 0x30
   1:   54                      push   esp
48 85 ---
   0:   30                      .byte 0x30
   1:   55                      push   ebp
48 86 ---
   0:   30                      .byte 0x30
   1:   56                      push   esi
48 87 ---
   0:   30                      .byte 0x30
   1:   57                      push   edi
48 88 ---
   0:   30                      .byte 0x30
   1:   58                      pop    eax
48 89 ---
   0:   30                      .byte 0x30
   1:   59                      pop    ecx
48 90 ---
   0:   30                      .byte 0x30
   1:   5a                      pop    edx
48 91 ---
   0:   30                      .byte 0x30
   1:   5b                      pop    ebx
48 92 ---
   0:   30                      .byte 0x30
   1:   5c                      pop    esp
48 93 ---
   0:   30                      .byte 0x30
   1:   5d                      pop    ebp
48 94 ---
   0:   30                      .byte 0x30
   1:   5e                      pop    esi
48 95 ---
   0:   30                      .byte 0x30
   1:   5f                      pop    edi
48 96 ---
   0:   30                      .byte 0x30
   1:   60                      pusha
48 97 ---
   0:   30                      .byte 0x30
   1:   61                      popa
48 98 ---
   0:   30                      .byte 0x30
   1:   62                      .byte 0x62
48 99 ---
   0:   30                      .byte 0x30
   1:   63                      .byte 0x63
48 100 ---
   0:   30                      .byte 0x30
   1:   64                      fs
48 101 ---
   0:   30                      .byte 0x30
   1:   65                      gs
48 102 ---
   0:   30                      .byte 0x30
   1:   66                      data16
48 103 ---
   0:   30                      .byte 0x30
   1:   67                      addr16
48 104 ---
   0:   30                      .byte 0x30
   1:   68                      .byte 0x68
48 105 ---
   0:   30                      .byte 0x30
   1:   69                      .byte 0x69
48 106 ---
   0:   30                      .byte 0x30
   1:   6a                      .byte 0x6a
48 107 ---
   0:   30                      .byte 0x30
   1:   6b                      .byte 0x6b
48 108 ---
   0:   30                      .byte 0x30
   1:   6c                      ins    BYTE PTR es:[edi],dx
48 109 ---
   0:   30                      .byte 0x30
   1:   6d                      ins    DWORD PTR es:[edi],dx
48 110 ---
   0:   30                      .byte 0x30
   1:   6e                      outs   dx,BYTE PTR ds:[esi]
48 111 ---
   0:   30                      .byte 0x30
   1:   6f                      outs   dx,DWORD PTR ds:[esi]
48 112 ---
   0:   30                      .byte 0x30
   1:   70                      .byte 0x70
48 113 ---
   0:   30                      .byte 0x30
   1:   71                      .byte 0x71
48 114 ---
   0:   30                      .byte 0x30
   1:   72                      .byte 0x72
48 115 ---
   0:   30                      .byte 0x30
   1:   73                      .byte 0x73
48 116 ---
   0:   30                      .byte 0x30
   1:   74                      .byte 0x74
48 117 ---
   0:   30                      .byte 0x30
   1:   75                      .byte 0x75
48 118 ---
   0:   30                      .byte 0x30
   1:   76                      .byte 0x76
48 119 ---
   0:   30                      .byte 0x30
   1:   77                      .byte 0x77
48 120 ---
   0:   30                      .byte 0x30
   1:   78                      .byte 0x78
48 121 ---
   0:   30                      .byte 0x30
   1:   79                      .byte 0x79
48 122 ---
   0:   30                      .byte 0x30
   1:   7a                      .byte 0x7a
48 123 ---
   0:   30                      .byte 0x30
   1:   7b                      .byte 0x7b
48 124 ---
   0:   30                      .byte 0x30
   1:   7c                      .byte 0x7c
48 125 ---
   0:   30                      .byte 0x30
   1:   7d                      .byte 0x7d
48 126 ---
   0:   30                      .byte 0x30
   1:   7e                      .byte 0x7e
49 32 ---
   0:   31 20                   xor    DWORD PTR [eax],esp
49 33 ---
   0:   31 21                   xor    DWORD PTR [ecx],esp
49 34 ---
   0:   31 22                   xor    DWORD PTR [edx],esp
49 35 ---
   0:   31 23                   xor    DWORD PTR [ebx],esp
49 36 ---
   0:   31                      .byte 0x31
   1:   24                      .byte 0x24
49 37 ---
   0:   31                      .byte 0x31
   1:   25                      .byte 0x25
49 38 ---
   0:   31 26                   xor    DWORD PTR [esi],esp
49 39 ---
   0:   31 27                   xor    DWORD PTR [edi],esp
49 40 ---
   0:   31 28                   xor    DWORD PTR [eax],ebp
49 41 ---
   0:   31 29                   xor    DWORD PTR [ecx],ebp
49 42 ---
   0:   31 2a                   xor    DWORD PTR [edx],ebp
49 43 ---
   0:   31 2b                   xor    DWORD PTR [ebx],ebp
49 44 ---
   0:   31                      .byte 0x31
   1:   2c                      .byte 0x2c
49 45 ---
   0:   31                      .byte 0x31
   1:   2d                      .byte 0x2d
49 46 ---
   0:   31 2e                   xor    DWORD PTR [esi],ebp
49 47 ---
   0:   31 2f                   xor    DWORD PTR [edi],ebp
49 48 ---
   0:   31 30                   xor    DWORD PTR [eax],esi
49 49 ---
   0:   31 31                   xor    DWORD PTR [ecx],esi
49 50 ---
   0:   31 32                   xor    DWORD PTR [edx],esi
49 51 ---
   0:   31 33                   xor    DWORD PTR [ebx],esi
49 52 ---
   0:   31                      .byte 0x31
   1:   34                      .byte 0x34
49 53 ---
   0:   31                      .byte 0x31
   1:   35                      .byte 0x35
49 54 ---
   0:   31 36                   xor    DWORD PTR [esi],esi
49 55 ---
   0:   31 37                   xor    DWORD PTR [edi],esi
49 56 ---
   0:   31 38                   xor    DWORD PTR [eax],edi
49 57 ---
   0:   31 39                   xor    DWORD PTR [ecx],edi
49 58 ---
   0:   31 3a                   xor    DWORD PTR [edx],edi
49 59 ---
   0:   31 3b                   xor    DWORD PTR [ebx],edi
49 60 ---
   0:   31                      .byte 0x31
   1:   3c                      .byte 0x3c
49 61 ---
   0:   31                      .byte 0x31
   1:   3d                      .byte 0x3d
49 62 ---
   0:   31 3e                   xor    DWORD PTR [esi],edi
49 63 ---
   0:   31 3f                   xor    DWORD PTR [edi],edi
49 64 ---
   0:   31                      .byte 0x31
   1:   40                      inc    eax
49 65 ---
   0:   31                      .byte 0x31
   1:   41                      inc    ecx
49 66 ---
   0:   31                      .byte 0x31
   1:   42                      inc    edx
49 67 ---
   0:   31                      .byte 0x31
   1:   43                      inc    ebx
49 68 ---
   0:   31                      .byte 0x31
   1:   44                      inc    esp
49 69 ---
   0:   31                      .byte 0x31
   1:   45                      inc    ebp
49 70 ---
   0:   31                      .byte 0x31
   1:   46                      inc    esi
49 71 ---
   0:   31                      .byte 0x31
   1:   47                      inc    edi
49 72 ---
   0:   31                      .byte 0x31
   1:   48                      dec    eax
49 73 ---
   0:   31                      .byte 0x31
   1:   49                      dec    ecx
49 74 ---
   0:   31                      .byte 0x31
   1:   4a                      dec    edx
49 75 ---
   0:   31                      .byte 0x31
   1:   4b                      dec    ebx
49 76 ---
   0:   31                      .byte 0x31
   1:   4c                      dec    esp
49 77 ---
   0:   31                      .byte 0x31
   1:   4d                      dec    ebp
49 78 ---
   0:   31                      .byte 0x31
   1:   4e                      dec    esi
49 79 ---
   0:   31                      .byte 0x31
   1:   4f                      dec    edi
49 80 ---
   0:   31                      .byte 0x31
   1:   50                      push   eax
49 81 ---
   0:   31                      .byte 0x31
   1:   51                      push   ecx
49 82 ---
   0:   31                      .byte 0x31
   1:   52                      push   edx
49 83 ---
   0:   31                      .byte 0x31
   1:   53                      push   ebx
49 84 ---
   0:   31                      .byte 0x31
   1:   54                      push   esp
49 85 ---
   0:   31                      .byte 0x31
   1:   55                      push   ebp
49 86 ---
   0:   31                      .byte 0x31
   1:   56                      push   esi
49 87 ---
   0:   31                      .byte 0x31
   1:   57                      push   edi
49 88 ---
   0:   31                      .byte 0x31
   1:   58                      pop    eax
49 89 ---
   0:   31                      .byte 0x31
   1:   59                      pop    ecx
49 90 ---
   0:   31                      .byte 0x31
   1:   5a                      pop    edx
49 91 ---
   0:   31                      .byte 0x31
   1:   5b                      pop    ebx
49 92 ---
   0:   31                      .byte 0x31
   1:   5c                      pop    esp
49 93 ---
   0:   31                      .byte 0x31
   1:   5d                      pop    ebp
49 94 ---
   0:   31                      .byte 0x31
   1:   5e                      pop    esi
49 95 ---
   0:   31                      .byte 0x31
   1:   5f                      pop    edi
49 96 ---
   0:   31                      .byte 0x31
   1:   60                      pusha
49 97 ---
   0:   31                      .byte 0x31
   1:   61                      popa
49 98 ---
   0:   31                      .byte 0x31
   1:   62                      .byte 0x62
49 99 ---
   0:   31                      .byte 0x31
   1:   63                      .byte 0x63
49 100 ---
   0:   31                      .byte 0x31
   1:   64                      fs
49 101 ---
   0:   31                      .byte 0x31
   1:   65                      gs
49 102 ---
   0:   31                      .byte 0x31
   1:   66                      data16
49 103 ---
   0:   31                      .byte 0x31
   1:   67                      addr16
49 104 ---
   0:   31                      .byte 0x31
   1:   68                      .byte 0x68
49 105 ---
   0:   31                      .byte 0x31
   1:   69                      .byte 0x69
49 106 ---
   0:   31                      .byte 0x31
   1:   6a                      .byte 0x6a
49 107 ---
   0:   31                      .byte 0x31
   1:   6b                      .byte 0x6b
49 108 ---
   0:   31                      .byte 0x31
   1:   6c                      ins    BYTE PTR es:[edi],dx
49 109 ---
   0:   31                      .byte 0x31
   1:   6d                      ins    DWORD PTR es:[edi],dx
49 110 ---
   0:   31                      .byte 0x31
   1:   6e                      outs   dx,BYTE PTR ds:[esi]
49 111 ---
   0:   31                      .byte 0x31
   1:   6f                      outs   dx,DWORD PTR ds:[esi]
49 112 ---
   0:   31                      .byte 0x31
   1:   70                      .byte 0x70
49 113 ---
   0:   31                      .byte 0x31
   1:   71                      .byte 0x71
49 114 ---
   0:   31                      .byte 0x31
   1:   72                      .byte 0x72
49 115 ---
   0:   31                      .byte 0x31
   1:   73                      .byte 0x73
49 116 ---
   0:   31                      .byte 0x31
   1:   74                      .byte 0x74
49 117 ---
   0:   31                      .byte 0x31
   1:   75                      .byte 0x75
49 118 ---
   0:   31                      .byte 0x31
   1:   76                      .byte 0x76
49 119 ---
   0:   31                      .byte 0x31
   1:   77                      .byte 0x77
49 120 ---
   0:   31                      .byte 0x31
   1:   78                      .byte 0x78
49 121 ---
   0:   31                      .byte 0x31
   1:   79                      .byte 0x79
49 122 ---
   0:   31                      .byte 0x31
   1:   7a                      .byte 0x7a
49 123 ---
   0:   31                      .byte 0x31
   1:   7b                      .byte 0x7b
49 124 ---
   0:   31                      .byte 0x31
   1:   7c                      .byte 0x7c
49 125 ---
   0:   31                      .byte 0x31
   1:   7d                      .byte 0x7d
49 126 ---
   0:   31                      .byte 0x31
   1:   7e                      .byte 0x7e
50 32 ---
   0:   32 20                   xor    ah,BYTE PTR [eax]
50 33 ---
   0:   32 21                   xor    ah,BYTE PTR [ecx]
50 34 ---
   0:   32 22                   xor    ah,BYTE PTR [edx]
50 35 ---
   0:   32 23                   xor    ah,BYTE PTR [ebx]
50 36 ---
   0:   32                      .byte 0x32
   1:   24                      .byte 0x24
50 37 ---
   0:   32                      .byte 0x32
   1:   25                      .byte 0x25
50 38 ---
   0:   32 26                   xor    ah,BYTE PTR [esi]
50 39 ---
   0:   32 27                   xor    ah,BYTE PTR [edi]
50 40 ---
   0:   32 28                   xor    ch,BYTE PTR [eax]
50 41 ---
   0:   32 29                   xor    ch,BYTE PTR [ecx]
50 42 ---
   0:   32 2a                   xor    ch,BYTE PTR [edx]
50 43 ---
   0:   32 2b                   xor    ch,BYTE PTR [ebx]
50 44 ---
   0:   32                      .byte 0x32
   1:   2c                      .byte 0x2c
50 45 ---
   0:   32                      .byte 0x32
   1:   2d                      .byte 0x2d
50 46 ---
   0:   32 2e                   xor    ch,BYTE PTR [esi]
50 47 ---
   0:   32 2f                   xor    ch,BYTE PTR [edi]
50 48 ---
   0:   32 30                   xor    dh,BYTE PTR [eax]
50 49 ---
   0:   32 31                   xor    dh,BYTE PTR [ecx]
50 50 ---
   0:   32 32                   xor    dh,BYTE PTR [edx]
50 51 ---
   0:   32 33                   xor    dh,BYTE PTR [ebx]
50 52 ---
   0:   32                      .byte 0x32
   1:   34                      .byte 0x34
50 53 ---
   0:   32                      .byte 0x32
   1:   35                      .byte 0x35
50 54 ---
   0:   32 36                   xor    dh,BYTE PTR [esi]
50 55 ---
   0:   32 37                   xor    dh,BYTE PTR [edi]
50 56 ---
   0:   32 38                   xor    bh,BYTE PTR [eax]
50 57 ---
   0:   32 39                   xor    bh,BYTE PTR [ecx]
50 58 ---
   0:   32 3a                   xor    bh,BYTE PTR [edx]
50 59 ---
   0:   32 3b                   xor    bh,BYTE PTR [ebx]
50 60 ---
   0:   32                      .byte 0x32
   1:   3c                      .byte 0x3c
50 61 ---
   0:   32                      .byte 0x32
   1:   3d                      .byte 0x3d
50 62 ---
   0:   32 3e                   xor    bh,BYTE PTR [esi]
50 63 ---
   0:   32 3f                   xor    bh,BYTE PTR [edi]
50 64 ---
   0:   32                      .byte 0x32
   1:   40                      inc    eax
50 65 ---
   0:   32                      .byte 0x32
   1:   41                      inc    ecx
50 66 ---
   0:   32                      .byte 0x32
   1:   42                      inc    edx
50 67 ---
   0:   32                      .byte 0x32
   1:   43                      inc    ebx
50 68 ---
   0:   32                      .byte 0x32
   1:   44                      inc    esp
50 69 ---
   0:   32                      .byte 0x32
   1:   45                      inc    ebp
50 70 ---
   0:   32                      .byte 0x32
   1:   46                      inc    esi
50 71 ---
   0:   32                      .byte 0x32
   1:   47                      inc    edi
50 72 ---
   0:   32                      .byte 0x32
   1:   48                      dec    eax
50 73 ---
   0:   32                      .byte 0x32
   1:   49                      dec    ecx
50 74 ---
   0:   32                      .byte 0x32
   1:   4a                      dec    edx
50 75 ---
   0:   32                      .byte 0x32
   1:   4b                      dec    ebx
50 76 ---
   0:   32                      .byte 0x32
   1:   4c                      dec    esp
50 77 ---
   0:   32                      .byte 0x32
   1:   4d                      dec    ebp
50 78 ---
   0:   32                      .byte 0x32
   1:   4e                      dec    esi
50 79 ---
   0:   32                      .byte 0x32
   1:   4f                      dec    edi
50 80 ---
   0:   32                      .byte 0x32
   1:   50                      push   eax
50 81 ---
   0:   32                      .byte 0x32
   1:   51                      push   ecx
50 82 ---
   0:   32                      .byte 0x32
   1:   52                      push   edx
50 83 ---
   0:   32                      .byte 0x32
   1:   53                      push   ebx
50 84 ---
   0:   32                      .byte 0x32
   1:   54                      push   esp
50 85 ---
   0:   32                      .byte 0x32
   1:   55                      push   ebp
50 86 ---
   0:   32                      .byte 0x32
   1:   56                      push   esi
50 87 ---
   0:   32                      .byte 0x32
   1:   57                      push   edi
50 88 ---
   0:   32                      .byte 0x32
   1:   58                      pop    eax
50 89 ---
   0:   32                      .byte 0x32
   1:   59                      pop    ecx
50 90 ---
   0:   32                      .byte 0x32
   1:   5a                      pop    edx
50 91 ---
   0:   32                      .byte 0x32
   1:   5b                      pop    ebx
50 92 ---
   0:   32                      .byte 0x32
   1:   5c                      pop    esp
50 93 ---
   0:   32                      .byte 0x32
   1:   5d                      pop    ebp
50 94 ---
   0:   32                      .byte 0x32
   1:   5e                      pop    esi
50 95 ---
   0:   32                      .byte 0x32
   1:   5f                      pop    edi
50 96 ---
   0:   32                      .byte 0x32
   1:   60                      pusha
50 97 ---
   0:   32                      .byte 0x32
   1:   61                      popa
50 98 ---
   0:   32                      .byte 0x32
   1:   62                      .byte 0x62
50 99 ---
   0:   32                      .byte 0x32
   1:   63                      .byte 0x63
50 100 ---
   0:   32                      .byte 0x32
   1:   64                      fs
50 101 ---
   0:   32                      .byte 0x32
   1:   65                      gs
50 102 ---
   0:   32                      .byte 0x32
   1:   66                      data16
50 103 ---
   0:   32                      .byte 0x32
   1:   67                      addr16
50 104 ---
   0:   32                      .byte 0x32
   1:   68                      .byte 0x68
50 105 ---
   0:   32                      .byte 0x32
   1:   69                      .byte 0x69
50 106 ---
   0:   32                      .byte 0x32
   1:   6a                      .byte 0x6a
50 107 ---
   0:   32                      .byte 0x32
   1:   6b                      .byte 0x6b
50 108 ---
   0:   32                      .byte 0x32
   1:   6c                      ins    BYTE PTR es:[edi],dx
50 109 ---
   0:   32                      .byte 0x32
   1:   6d                      ins    DWORD PTR es:[edi],dx
50 110 ---
   0:   32                      .byte 0x32
   1:   6e                      outs   dx,BYTE PTR ds:[esi]
50 111 ---
   0:   32                      .byte 0x32
   1:   6f                      outs   dx,DWORD PTR ds:[esi]
50 112 ---
   0:   32                      .byte 0x32
   1:   70                      .byte 0x70
50 113 ---
   0:   32                      .byte 0x32
   1:   71                      .byte 0x71
50 114 ---
   0:   32                      .byte 0x32
   1:   72                      .byte 0x72
50 115 ---
   0:   32                      .byte 0x32
   1:   73                      .byte 0x73
50 116 ---
   0:   32                      .byte 0x32
   1:   74                      .byte 0x74
50 117 ---
   0:   32                      .byte 0x32
   1:   75                      .byte 0x75
50 118 ---
   0:   32                      .byte 0x32
   1:   76                      .byte 0x76
50 119 ---
   0:   32                      .byte 0x32
   1:   77                      .byte 0x77
50 120 ---
   0:   32                      .byte 0x32
   1:   78                      .byte 0x78
50 121 ---
   0:   32                      .byte 0x32
   1:   79                      .byte 0x79
50 122 ---
   0:   32                      .byte 0x32
   1:   7a                      .byte 0x7a
50 123 ---
   0:   32                      .byte 0x32
   1:   7b                      .byte 0x7b
50 124 ---
   0:   32                      .byte 0x32
   1:   7c                      .byte 0x7c
50 125 ---
   0:   32                      .byte 0x32
   1:   7d                      .byte 0x7d
50 126 ---
   0:   32                      .byte 0x32
   1:   7e                      .byte 0x7e
51 32 ---
   0:   33 20                   xor    esp,DWORD PTR [eax]
51 33 ---
   0:   33 21                   xor    esp,DWORD PTR [ecx]
51 34 ---
   0:   33 22                   xor    esp,DWORD PTR [edx]
51 35 ---
   0:   33 23                   xor    esp,DWORD PTR [ebx]
51 36 ---
   0:   33                      .byte 0x33
   1:   24                      .byte 0x24
51 37 ---
   0:   33                      .byte 0x33
   1:   25                      .byte 0x25
51 38 ---
   0:   33 26                   xor    esp,DWORD PTR [esi]
51 39 ---
   0:   33 27                   xor    esp,DWORD PTR [edi]
51 40 ---
   0:   33 28                   xor    ebp,DWORD PTR [eax]
51 41 ---
   0:   33 29                   xor    ebp,DWORD PTR [ecx]
51 42 ---
   0:   33 2a                   xor    ebp,DWORD PTR [edx]
51 43 ---
   0:   33 2b                   xor    ebp,DWORD PTR [ebx]
51 44 ---
   0:   33                      .byte 0x33
   1:   2c                      .byte 0x2c
51 45 ---
   0:   33                      .byte 0x33
   1:   2d                      .byte 0x2d
51 46 ---
   0:   33 2e                   xor    ebp,DWORD PTR [esi]
51 47 ---
   0:   33 2f                   xor    ebp,DWORD PTR [edi]
51 48 ---
   0:   33 30                   xor    esi,DWORD PTR [eax]
51 49 ---
   0:   33 31                   xor    esi,DWORD PTR [ecx]
51 50 ---
   0:   33 32                   xor    esi,DWORD PTR [edx]
51 51 ---
   0:   33 33                   xor    esi,DWORD PTR [ebx]
51 52 ---
   0:   33                      .byte 0x33
   1:   34                      .byte 0x34
51 53 ---
   0:   33                      .byte 0x33
   1:   35                      .byte 0x35
51 54 ---
   0:   33 36                   xor    esi,DWORD PTR [esi]
51 55 ---
   0:   33 37                   xor    esi,DWORD PTR [edi]
51 56 ---
   0:   33 38                   xor    edi,DWORD PTR [eax]
51 57 ---
   0:   33 39                   xor    edi,DWORD PTR [ecx]
51 58 ---
   0:   33 3a                   xor    edi,DWORD PTR [edx]
51 59 ---
   0:   33 3b                   xor    edi,DWORD PTR [ebx]
51 60 ---
   0:   33                      .byte 0x33
   1:   3c                      .byte 0x3c
51 61 ---
   0:   33                      .byte 0x33
   1:   3d                      .byte 0x3d
51 62 ---
   0:   33 3e                   xor    edi,DWORD PTR [esi]
51 63 ---
   0:   33 3f                   xor    edi,DWORD PTR [edi]
51 64 ---
   0:   33                      .byte 0x33
   1:   40                      inc    eax
51 65 ---
   0:   33                      .byte 0x33
   1:   41                      inc    ecx
51 66 ---
   0:   33                      .byte 0x33
   1:   42                      inc    edx
51 67 ---
   0:   33                      .byte 0x33
   1:   43                      inc    ebx
51 68 ---
   0:   33                      .byte 0x33
   1:   44                      inc    esp
51 69 ---
   0:   33                      .byte 0x33
   1:   45                      inc    ebp
51 70 ---
   0:   33                      .byte 0x33
   1:   46                      inc    esi
51 71 ---
   0:   33                      .byte 0x33
   1:   47                      inc    edi
51 72 ---
   0:   33                      .byte 0x33
   1:   48                      dec    eax
51 73 ---
   0:   33                      .byte 0x33
   1:   49                      dec    ecx
51 74 ---
   0:   33                      .byte 0x33
   1:   4a                      dec    edx
51 75 ---
   0:   33                      .byte 0x33
   1:   4b                      dec    ebx
51 76 ---
   0:   33                      .byte 0x33
   1:   4c                      dec    esp
51 77 ---
   0:   33                      .byte 0x33
   1:   4d                      dec    ebp
51 78 ---
   0:   33                      .byte 0x33
   1:   4e                      dec    esi
51 79 ---
   0:   33                      .byte 0x33
   1:   4f                      dec    edi
51 80 ---
   0:   33                      .byte 0x33
   1:   50                      push   eax
51 81 ---
   0:   33                      .byte 0x33
   1:   51                      push   ecx
51 82 ---
   0:   33                      .byte 0x33
   1:   52                      push   edx
51 83 ---
   0:   33                      .byte 0x33
   1:   53                      push   ebx
51 84 ---
   0:   33                      .byte 0x33
   1:   54                      push   esp
51 85 ---
   0:   33                      .byte 0x33
   1:   55                      push   ebp
51 86 ---
   0:   33                      .byte 0x33
   1:   56                      push   esi
51 87 ---
   0:   33                      .byte 0x33
   1:   57                      push   edi
51 88 ---
   0:   33                      .byte 0x33
   1:   58                      pop    eax
51 89 ---
   0:   33                      .byte 0x33
   1:   59                      pop    ecx
51 90 ---
   0:   33                      .byte 0x33
   1:   5a                      pop    edx
51 91 ---
   0:   33                      .byte 0x33
   1:   5b                      pop    ebx
51 92 ---
   0:   33                      .byte 0x33
   1:   5c                      pop    esp
51 93 ---
   0:   33                      .byte 0x33
   1:   5d                      pop    ebp
51 94 ---
   0:   33                      .byte 0x33
   1:   5e                      pop    esi
51 95 ---
   0:   33                      .byte 0x33
   1:   5f                      pop    edi
51 96 ---
   0:   33                      .byte 0x33
   1:   60                      pusha
51 97 ---
   0:   33                      .byte 0x33
   1:   61                      popa
51 98 ---
   0:   33                      .byte 0x33
   1:   62                      .byte 0x62
51 99 ---
   0:   33                      .byte 0x33
   1:   63                      .byte 0x63
51 100 ---
   0:   33                      .byte 0x33
   1:   64                      fs
51 101 ---
   0:   33                      .byte 0x33
   1:   65                      gs
51 102 ---
   0:   33                      .byte 0x33
   1:   66                      data16
51 103 ---
   0:   33                      .byte 0x33
   1:   67                      addr16
51 104 ---
   0:   33                      .byte 0x33
   1:   68                      .byte 0x68
51 105 ---
   0:   33                      .byte 0x33
   1:   69                      .byte 0x69
51 106 ---
   0:   33                      .byte 0x33
   1:   6a                      .byte 0x6a
51 107 ---
   0:   33                      .byte 0x33
   1:   6b                      .byte 0x6b
51 108 ---
   0:   33                      .byte 0x33
   1:   6c                      ins    BYTE PTR es:[edi],dx
51 109 ---
   0:   33                      .byte 0x33
   1:   6d                      ins    DWORD PTR es:[edi],dx
51 110 ---
   0:   33                      .byte 0x33
   1:   6e                      outs   dx,BYTE PTR ds:[esi]
51 111 ---
   0:   33                      .byte 0x33
   1:   6f                      outs   dx,DWORD PTR ds:[esi]
51 112 ---
   0:   33                      .byte 0x33
   1:   70                      .byte 0x70
51 113 ---
   0:   33                      .byte 0x33
   1:   71                      .byte 0x71
51 114 ---
   0:   33                      .byte 0x33
   1:   72                      .byte 0x72
51 115 ---
   0:   33                      .byte 0x33
   1:   73                      .byte 0x73
51 116 ---
   0:   33                      .byte 0x33
   1:   74                      .byte 0x74
51 117 ---
   0:   33                      .byte 0x33
   1:   75                      .byte 0x75
51 118 ---
   0:   33                      .byte 0x33
   1:   76                      .byte 0x76
51 119 ---
   0:   33                      .byte 0x33
   1:   77                      .byte 0x77
51 120 ---
   0:   33                      .byte 0x33
   1:   78                      .byte 0x78
51 121 ---
   0:   33                      .byte 0x33
   1:   79                      .byte 0x79
51 122 ---
   0:   33                      .byte 0x33
   1:   7a                      .byte 0x7a
51 123 ---
   0:   33                      .byte 0x33
   1:   7b                      .byte 0x7b
51 124 ---
   0:   33                      .byte 0x33
   1:   7c                      .byte 0x7c
51 125 ---
   0:   33                      .byte 0x33
   1:   7d                      .byte 0x7d
51 126 ---
   0:   33                      .byte 0x33
   1:   7e                      .byte 0x7e
52 32 ---
   0:   34 20                   xor    al,0x20
52 33 ---
   0:   34 21                   xor    al,0x21
52 34 ---
   0:   34 22                   xor    al,0x22
52 35 ---
   0:   34 23                   xor    al,0x23
52 36 ---
   0:   34 24                   xor    al,0x24
52 37 ---
   0:   34 25                   xor    al,0x25
52 38 ---
   0:   34 26                   xor    al,0x26
52 39 ---
   0:   34 27                   xor    al,0x27
52 40 ---
   0:   34 28                   xor    al,0x28
52 41 ---
   0:   34 29                   xor    al,0x29
52 42 ---
   0:   34 2a                   xor    al,0x2a
52 43 ---
   0:   34 2b                   xor    al,0x2b
52 44 ---
   0:   34 2c                   xor    al,0x2c
52 45 ---
   0:   34 2d                   xor    al,0x2d
52 46 ---
   0:   34 2e                   xor    al,0x2e
52 47 ---
   0:   34 2f                   xor    al,0x2f
52 48 ---
   0:   34 30                   xor    al,0x30
52 49 ---
   0:   34 31                   xor    al,0x31
52 50 ---
   0:   34 32                   xor    al,0x32
52 51 ---
   0:   34 33                   xor    al,0x33
52 52 ---
   0:   34 34                   xor    al,0x34
52 53 ---
   0:   34 35                   xor    al,0x35
52 54 ---
   0:   34 36                   xor    al,0x36
52 55 ---
   0:   34 37                   xor    al,0x37
52 56 ---
   0:   34 38                   xor    al,0x38
52 57 ---
   0:   34 39                   xor    al,0x39
52 58 ---
   0:   34 3a                   xor    al,0x3a
52 59 ---
   0:   34 3b                   xor    al,0x3b
52 60 ---
   0:   34 3c                   xor    al,0x3c
52 61 ---
   0:   34 3d                   xor    al,0x3d
52 62 ---
   0:   34 3e                   xor    al,0x3e
52 63 ---
   0:   34 3f                   xor    al,0x3f
52 64 ---
   0:   34 40                   xor    al,0x40
52 65 ---
   0:   34 41                   xor    al,0x41
52 66 ---
   0:   34 42                   xor    al,0x42
52 67 ---
   0:   34 43                   xor    al,0x43
52 68 ---
   0:   34 44                   xor    al,0x44
52 69 ---
   0:   34 45                   xor    al,0x45
52 70 ---
   0:   34 46                   xor    al,0x46
52 71 ---
   0:   34 47                   xor    al,0x47
52 72 ---
   0:   34 48                   xor    al,0x48
52 73 ---
   0:   34 49                   xor    al,0x49
52 74 ---
   0:   34 4a                   xor    al,0x4a
52 75 ---
   0:   34 4b                   xor    al,0x4b
52 76 ---
   0:   34 4c                   xor    al,0x4c
52 77 ---
   0:   34 4d                   xor    al,0x4d
52 78 ---
   0:   34 4e                   xor    al,0x4e
52 79 ---
   0:   34 4f                   xor    al,0x4f
52 80 ---
   0:   34 50                   xor    al,0x50
52 81 ---
   0:   34 51                   xor    al,0x51
52 82 ---
   0:   34 52                   xor    al,0x52
52 83 ---
   0:   34 53                   xor    al,0x53
52 84 ---
   0:   34 54                   xor    al,0x54
52 85 ---
   0:   34 55                   xor    al,0x55
52 86 ---
   0:   34 56                   xor    al,0x56
52 87 ---
   0:   34 57                   xor    al,0x57
52 88 ---
   0:   34 58                   xor    al,0x58
52 89 ---
   0:   34 59                   xor    al,0x59
52 90 ---
   0:   34 5a                   xor    al,0x5a
52 91 ---
   0:   34 5b                   xor    al,0x5b
52 92 ---
   0:   34 5c                   xor    al,0x5c
52 93 ---
   0:   34 5d                   xor    al,0x5d
52 94 ---
   0:   34 5e                   xor    al,0x5e
52 95 ---
   0:   34 5f                   xor    al,0x5f
52 96 ---
   0:   34 60                   xor    al,0x60
52 97 ---
   0:   34 61                   xor    al,0x61
52 98 ---
   0:   34 62                   xor    al,0x62
52 99 ---
   0:   34 63                   xor    al,0x63
52 100 ---
   0:   34 64                   xor    al,0x64
52 101 ---
   0:   34 65                   xor    al,0x65
52 102 ---
   0:   34 66                   xor    al,0x66
52 103 ---
   0:   34 67                   xor    al,0x67
52 104 ---
   0:   34 68                   xor    al,0x68
52 105 ---
   0:   34 69                   xor    al,0x69
52 106 ---
   0:   34 6a                   xor    al,0x6a
52 107 ---
   0:   34 6b                   xor    al,0x6b
52 108 ---
   0:   34 6c                   xor    al,0x6c
52 109 ---
   0:   34 6d                   xor    al,0x6d
52 110 ---
   0:   34 6e                   xor    al,0x6e
52 111 ---
   0:   34 6f                   xor    al,0x6f
52 112 ---
   0:   34 70                   xor    al,0x70
52 113 ---
   0:   34 71                   xor    al,0x71
52 114 ---
   0:   34 72                   xor    al,0x72
52 115 ---
   0:   34 73                   xor    al,0x73
52 116 ---
   0:   34 74                   xor    al,0x74
52 117 ---
   0:   34 75                   xor    al,0x75
52 118 ---
   0:   34 76                   xor    al,0x76
52 119 ---
   0:   34 77                   xor    al,0x77
52 120 ---
   0:   34 78                   xor    al,0x78
52 121 ---
   0:   34 79                   xor    al,0x79
52 122 ---
   0:   34 7a                   xor    al,0x7a
52 123 ---
   0:   34 7b                   xor    al,0x7b
52 124 ---
   0:   34 7c                   xor    al,0x7c
52 125 ---
   0:   34 7d                   xor    al,0x7d
52 126 ---
   0:   34 7e                   xor    al,0x7e
53 32 ---
   0:   35                      .byte 0x35
   1:   20                      .byte 0x20
53 33 ---
   0:   35                      .byte 0x35
   1:   21                      .byte 0x21
53 34 ---
   0:   35                      .byte 0x35
   1:   22                      .byte 0x22
53 35 ---
   0:   35                      .byte 0x35
   1:   23                      .byte 0x23
53 36 ---
   0:   35                      .byte 0x35
   1:   24                      .byte 0x24
53 37 ---
   0:   35                      .byte 0x35
   1:   25                      .byte 0x25
53 38 ---
   0:   35                      .byte 0x35
   1:   26                      es
53 39 ---
   0:   35                      .byte 0x35
   1:   27                      daa
53 40 ---
   0:   35                      .byte 0x35
   1:   28                      .byte 0x28
53 41 ---
   0:   35                      .byte 0x35
   1:   29                      .byte 0x29
53 42 ---
   0:   35                      .byte 0x35
   1:   2a                      .byte 0x2a
53 43 ---
   0:   35                      .byte 0x35
   1:   2b                      .byte 0x2b
53 44 ---
   0:   35                      .byte 0x35
   1:   2c                      .byte 0x2c
53 45 ---
   0:   35                      .byte 0x35
   1:   2d                      .byte 0x2d
53 46 ---
   0:   35                      .byte 0x35
   1:   2e                      cs
53 47 ---
   0:   35                      .byte 0x35
   1:   2f                      das
53 48 ---
   0:   35                      .byte 0x35
   1:   30                      .byte 0x30
53 49 ---
   0:   35                      .byte 0x35
   1:   31                      .byte 0x31
53 50 ---
   0:   35                      .byte 0x35
   1:   32                      .byte 0x32
53 51 ---
   0:   35                      .byte 0x35
   1:   33                      .byte 0x33
53 52 ---
   0:   35                      .byte 0x35
   1:   34                      .byte 0x34
53 53 ---
   0:   35                      .byte 0x35
   1:   35                      .byte 0x35
53 54 ---
   0:   35                      .byte 0x35
   1:   36                      ss
53 55 ---
   0:   35                      .byte 0x35
   1:   37                      aaa
53 56 ---
   0:   35                      .byte 0x35
   1:   38                      .byte 0x38
53 57 ---
   0:   35                      .byte 0x35
   1:   39                      .byte 0x39
53 58 ---
   0:   35                      .byte 0x35
   1:   3a                      .byte 0x3a
53 59 ---
   0:   35                      .byte 0x35
   1:   3b                      .byte 0x3b
53 60 ---
   0:   35                      .byte 0x35
   1:   3c                      .byte 0x3c
53 61 ---
   0:   35                      .byte 0x35
   1:   3d                      .byte 0x3d
53 62 ---
   0:   35                      .byte 0x35
   1:   3e                      ds
53 63 ---
   0:   35                      .byte 0x35
   1:   3f                      aas
53 64 ---
   0:   35                      .byte 0x35
   1:   40                      inc    eax
53 65 ---
   0:   35                      .byte 0x35
   1:   41                      inc    ecx
53 66 ---
   0:   35                      .byte 0x35
   1:   42                      inc    edx
53 67 ---
   0:   35                      .byte 0x35
   1:   43                      inc    ebx
53 68 ---
   0:   35                      .byte 0x35
   1:   44                      inc    esp
53 69 ---
   0:   35                      .byte 0x35
   1:   45                      inc    ebp
53 70 ---
   0:   35                      .byte 0x35
   1:   46                      inc    esi
53 71 ---
   0:   35                      .byte 0x35
   1:   47                      inc    edi
53 72 ---
   0:   35                      .byte 0x35
   1:   48                      dec    eax
53 73 ---
   0:   35                      .byte 0x35
   1:   49                      dec    ecx
53 74 ---
   0:   35                      .byte 0x35
   1:   4a                      dec    edx
53 75 ---
   0:   35                      .byte 0x35
   1:   4b                      dec    ebx
53 76 ---
   0:   35                      .byte 0x35
   1:   4c                      dec    esp
53 77 ---
   0:   35                      .byte 0x35
   1:   4d                      dec    ebp
53 78 ---
   0:   35                      .byte 0x35
   1:   4e                      dec    esi
53 79 ---
   0:   35                      .byte 0x35
   1:   4f                      dec    edi
53 80 ---
   0:   35                      .byte 0x35
   1:   50                      push   eax
53 81 ---
   0:   35                      .byte 0x35
   1:   51                      push   ecx
53 82 ---
   0:   35                      .byte 0x35
   1:   52                      push   edx
53 83 ---
   0:   35                      .byte 0x35
   1:   53                      push   ebx
53 84 ---
   0:   35                      .byte 0x35
   1:   54                      push   esp
53 85 ---
   0:   35                      .byte 0x35
   1:   55                      push   ebp
53 86 ---
   0:   35                      .byte 0x35
   1:   56                      push   esi
53 87 ---
   0:   35                      .byte 0x35
   1:   57                      push   edi
53 88 ---
   0:   35                      .byte 0x35
   1:   58                      pop    eax
53 89 ---
   0:   35                      .byte 0x35
   1:   59                      pop    ecx
53 90 ---
   0:   35                      .byte 0x35
   1:   5a                      pop    edx
53 91 ---
   0:   35                      .byte 0x35
   1:   5b                      pop    ebx
53 92 ---
   0:   35                      .byte 0x35
   1:   5c                      pop    esp
53 93 ---
   0:   35                      .byte 0x35
   1:   5d                      pop    ebp
53 94 ---
   0:   35                      .byte 0x35
   1:   5e                      pop    esi
53 95 ---
   0:   35                      .byte 0x35
   1:   5f                      pop    edi
53 96 ---
   0:   35                      .byte 0x35
   1:   60                      pusha
53 97 ---
   0:   35                      .byte 0x35
   1:   61                      popa
53 98 ---
   0:   35                      .byte 0x35
   1:   62                      .byte 0x62
53 99 ---
   0:   35                      .byte 0x35
   1:   63                      .byte 0x63
53 100 ---
   0:   35                      .byte 0x35
   1:   64                      fs
53 101 ---
   0:   35                      .byte 0x35
   1:   65                      gs
53 102 ---
   0:   35                      .byte 0x35
   1:   66                      data16
53 103 ---
   0:   35                      .byte 0x35
   1:   67                      addr16
53 104 ---
   0:   35                      .byte 0x35
   1:   68                      .byte 0x68
53 105 ---
   0:   35                      .byte 0x35
   1:   69                      .byte 0x69
53 106 ---
   0:   35                      .byte 0x35
   1:   6a                      .byte 0x6a
53 107 ---
   0:   35                      .byte 0x35
   1:   6b                      .byte 0x6b
53 108 ---
   0:   35                      .byte 0x35
   1:   6c                      ins    BYTE PTR es:[edi],dx
53 109 ---
   0:   35                      .byte 0x35
   1:   6d                      ins    DWORD PTR es:[edi],dx
53 110 ---
   0:   35                      .byte 0x35
   1:   6e                      outs   dx,BYTE PTR ds:[esi]
53 111 ---
   0:   35                      .byte 0x35
   1:   6f                      outs   dx,DWORD PTR ds:[esi]
53 112 ---
   0:   35                      .byte 0x35
   1:   70                      .byte 0x70
53 113 ---
   0:   35                      .byte 0x35
   1:   71                      .byte 0x71
53 114 ---
   0:   35                      .byte 0x35
   1:   72                      .byte 0x72
53 115 ---
   0:   35                      .byte 0x35
   1:   73                      .byte 0x73
53 116 ---
   0:   35                      .byte 0x35
   1:   74                      .byte 0x74
53 117 ---
   0:   35                      .byte 0x35
   1:   75                      .byte 0x75
53 118 ---
   0:   35                      .byte 0x35
   1:   76                      .byte 0x76
53 119 ---
   0:   35                      .byte 0x35
   1:   77                      .byte 0x77
53 120 ---
   0:   35                      .byte 0x35
   1:   78                      .byte 0x78
53 121 ---
   0:   35                      .byte 0x35
   1:   79                      .byte 0x79
53 122 ---
   0:   35                      .byte 0x35
   1:   7a                      .byte 0x7a
53 123 ---
   0:   35                      .byte 0x35
   1:   7b                      .byte 0x7b
53 124 ---
   0:   35                      .byte 0x35
   1:   7c                      .byte 0x7c
53 125 ---
   0:   35                      .byte 0x35
   1:   7d                      .byte 0x7d
53 126 ---
   0:   35                      .byte 0x35
   1:   7e                      .byte 0x7e
54 32 ---
   0:   36                      ss
   1:   20                      .byte 0x20
54 33 ---
   0:   36                      ss
   1:   21                      .byte 0x21
54 34 ---
   0:   36                      ss
   1:   22                      .byte 0x22
54 35 ---
   0:   36                      ss
   1:   23                      .byte 0x23
54 36 ---
   0:   36                      ss
   1:   24                      .byte 0x24
54 37 ---
   0:   36                      ss
   1:   25                      .byte 0x25
54 38 ---
   0:   36                      ss
   1:   26                      es
54 39 ---
   0:   36 27                   ss daa
54 40 ---
   0:   36                      ss
   1:   28                      .byte 0x28
54 41 ---
   0:   36                      ss
   1:   29                      .byte 0x29
54 42 ---
   0:   36                      ss
   1:   2a                      .byte 0x2a
54 43 ---
   0:   36                      ss
   1:   2b                      .byte 0x2b
54 44 ---
   0:   36                      ss
   1:   2c                      .byte 0x2c
54 45 ---
   0:   36                      ss
   1:   2d                      .byte 0x2d
54 46 ---
   0:   36                      ss
   1:   2e                      cs
54 47 ---
   0:   36 2f                   ss das
54 48 ---
   0:   36                      ss
   1:   30                      .byte 0x30
54 49 ---
   0:   36                      ss
   1:   31                      .byte 0x31
54 50 ---
   0:   36                      ss
   1:   32                      .byte 0x32
54 51 ---
   0:   36                      ss
   1:   33                      .byte 0x33
54 52 ---
   0:   36                      ss
   1:   34                      .byte 0x34
54 53 ---
   0:   36                      ss
   1:   35                      .byte 0x35
54 54 ---
   0:   36                      ss
   1:   36                      ss
54 55 ---
   0:   36 37                   ss aaa
54 56 ---
   0:   36                      ss
   1:   38                      .byte 0x38
54 57 ---
   0:   36                      ss
   1:   39                      .byte 0x39
54 58 ---
   0:   36                      ss
   1:   3a                      .byte 0x3a
54 59 ---
   0:   36                      ss
   1:   3b                      .byte 0x3b
54 60 ---
   0:   36                      ss
   1:   3c                      .byte 0x3c
54 61 ---
   0:   36                      ss
   1:   3d                      .byte 0x3d
54 62 ---
   0:   36                      ss
   1:   3e                      ds
54 63 ---
   0:   36 3f                   ss aas
54 64 ---
   0:   36 40                   ss inc eax
54 65 ---
   0:   36 41                   ss inc ecx
54 66 ---
   0:   36 42                   ss inc edx
54 67 ---
   0:   36 43                   ss inc ebx
54 68 ---
   0:   36 44                   ss inc esp
54 69 ---
   0:   36 45                   ss inc ebp
54 70 ---
   0:   36 46                   ss inc esi
54 71 ---
   0:   36 47                   ss inc edi
54 72 ---
   0:   36 48                   ss dec eax
54 73 ---
   0:   36 49                   ss dec ecx
54 74 ---
   0:   36 4a                   ss dec edx
54 75 ---
   0:   36 4b                   ss dec ebx
54 76 ---
   0:   36 4c                   ss dec esp
54 77 ---
   0:   36 4d                   ss dec ebp
54 78 ---
   0:   36 4e                   ss dec esi
54 79 ---
   0:   36 4f                   ss dec edi
54 80 ---
   0:   36 50                   ss push eax
54 81 ---
   0:   36 51                   ss push ecx
54 82 ---
   0:   36 52                   ss push edx
54 83 ---
   0:   36 53                   ss push ebx
54 84 ---
   0:   36 54                   ss push esp
54 85 ---
   0:   36 55                   ss push ebp
54 86 ---
   0:   36 56                   ss push esi
54 87 ---
   0:   36 57                   ss push edi
54 88 ---
   0:   36 58                   ss pop eax
54 89 ---
   0:   36 59                   ss pop ecx
54 90 ---
   0:   36 5a                   ss pop edx
54 91 ---
   0:   36 5b                   ss pop ebx
54 92 ---
   0:   36 5c                   ss pop esp
54 93 ---
   0:   36 5d                   ss pop ebp
54 94 ---
   0:   36 5e                   ss pop esi
54 95 ---
   0:   36 5f                   ss pop edi
54 96 ---
   0:   36 60                   ss pusha
54 97 ---
   0:   36 61                   ss popa
54 98 ---
   0:   36                      ss
   1:   62                      .byte 0x62
54 99 ---
   0:   36                      ss
   1:   63                      .byte 0x63
54 100 ---
   0:   36                      ss
   1:   64                      fs
54 101 ---
   0:   36                      ss
   1:   65                      gs
54 102 ---
   0:   36                      ss
   1:   66                      data16
54 103 ---
   0:   36                      ss
   1:   67                      addr16
54 104 ---
   0:   36                      ss
   1:   68                      .byte 0x68
54 105 ---
   0:   36                      ss
   1:   69                      .byte 0x69
54 106 ---
   0:   36                      ss
   1:   6a                      .byte 0x6a
54 107 ---
   0:   36                      ss
   1:   6b                      .byte 0x6b
54 108 ---
   0:   36 6c                   ss ins BYTE PTR es:[edi],dx
54 109 ---
   0:   36 6d                   ss ins DWORD PTR es:[edi],dx
54 110 ---
   0:   36 6e                   outs   dx,BYTE PTR ss:[esi]
54 111 ---
   0:   36 6f                   outs   dx,DWORD PTR ss:[esi]
54 112 ---
   0:   36                      ss
   1:   70                      .byte 0x70
54 113 ---
   0:   36                      ss
   1:   71                      .byte 0x71
54 114 ---
   0:   36                      ss
   1:   72                      .byte 0x72
54 115 ---
   0:   36                      ss
   1:   73                      .byte 0x73
54 116 ---
   0:   36                      ss
   1:   74                      .byte 0x74
54 117 ---
   0:   36                      ss
   1:   75                      .byte 0x75
54 118 ---
   0:   36                      ss
   1:   76                      .byte 0x76
54 119 ---
   0:   36                      ss
   1:   77                      .byte 0x77
54 120 ---
   0:   36                      ss
   1:   78                      .byte 0x78
54 121 ---
   0:   36                      ss
   1:   79                      .byte 0x79
54 122 ---
   0:   36                      ss
   1:   7a                      .byte 0x7a
54 123 ---
   0:   36                      ss
   1:   7b                      .byte 0x7b
54 124 ---
   0:   36                      ss
   1:   7c                      .byte 0x7c
54 125 ---
   0:   36                      ss
   1:   7d                      .byte 0x7d
54 126 ---
   0:   36                      ss
   1:   7e                      .byte 0x7e
55 32 ---
   0:   37                      aaa    
   1:   20                      .byte 0x20
55 33 ---
   0:   37                      aaa    
   1:   21                      .byte 0x21
55 34 ---
   0:   37                      aaa    
   1:   22                      .byte 0x22
55 35 ---
   0:   37                      aaa    
   1:   23                      .byte 0x23
55 36 ---
   0:   37                      aaa    
   1:   24                      .byte 0x24
55 37 ---
   0:   37                      aaa    
   1:   25                      .byte 0x25
55 38 ---
   0:   37                      aaa    
   1:   26                      es
55 39 ---
   0:   37                      aaa    
   1:   27                      daa
55 40 ---
   0:   37                      aaa    
   1:   28                      .byte 0x28
55 41 ---
   0:   37                      aaa    
   1:   29                      .byte 0x29
55 42 ---
   0:   37                      aaa    
   1:   2a                      .byte 0x2a
55 43 ---
   0:   37                      aaa    
   1:   2b                      .byte 0x2b
55 44 ---
   0:   37                      aaa    
   1:   2c                      .byte 0x2c
55 45 ---
   0:   37                      aaa    
   1:   2d                      .byte 0x2d
55 46 ---
   0:   37                      aaa    
   1:   2e                      cs
55 47 ---
   0:   37                      aaa    
   1:   2f                      das
55 48 ---
   0:   37                      aaa    
   1:   30                      .byte 0x30
55 49 ---
   0:   37                      aaa    
   1:   31                      .byte 0x31
55 50 ---
   0:   37                      aaa    
   1:   32                      .byte 0x32
55 51 ---
   0:   37                      aaa    
   1:   33                      .byte 0x33
55 52 ---
   0:   37                      aaa    
   1:   34                      .byte 0x34
55 53 ---
   0:   37                      aaa    
   1:   35                      .byte 0x35
55 54 ---
   0:   37                      aaa    
   1:   36                      ss
55 55 ---
   0:   37                      aaa    
   1:   37                      aaa
55 56 ---
   0:   37                      aaa    
   1:   38                      .byte 0x38
55 57 ---
   0:   37                      aaa    
   1:   39                      .byte 0x39
55 58 ---
   0:   37                      aaa    
   1:   3a                      .byte 0x3a
55 59 ---
   0:   37                      aaa    
   1:   3b                      .byte 0x3b
55 60 ---
   0:   37                      aaa    
   1:   3c                      .byte 0x3c
55 61 ---
   0:   37                      aaa    
   1:   3d                      .byte 0x3d
55 62 ---
   0:   37                      aaa    
   1:   3e                      ds
55 63 ---
   0:   37                      aaa    
   1:   3f                      aas
55 64 ---
   0:   37                      aaa    
   1:   40                      inc    eax
55 65 ---
   0:   37                      aaa    
   1:   41                      inc    ecx
55 66 ---
   0:   37                      aaa    
   1:   42                      inc    edx
55 67 ---
   0:   37                      aaa    
   1:   43                      inc    ebx
55 68 ---
   0:   37                      aaa    
   1:   44                      inc    esp
55 69 ---
   0:   37                      aaa    
   1:   45                      inc    ebp
55 70 ---
   0:   37                      aaa    
   1:   46                      inc    esi
55 71 ---
   0:   37                      aaa    
   1:   47                      inc    edi
55 72 ---
   0:   37                      aaa    
   1:   48                      dec    eax
55 73 ---
   0:   37                      aaa    
   1:   49                      dec    ecx
55 74 ---
   0:   37                      aaa    
   1:   4a                      dec    edx
55 75 ---
   0:   37                      aaa    
   1:   4b                      dec    ebx
55 76 ---
   0:   37                      aaa    
   1:   4c                      dec    esp
55 77 ---
   0:   37                      aaa    
   1:   4d                      dec    ebp
55 78 ---
   0:   37                      aaa    
   1:   4e                      dec    esi
55 79 ---
   0:   37                      aaa    
   1:   4f                      dec    edi
55 80 ---
   0:   37                      aaa    
   1:   50                      push   eax
55 81 ---
   0:   37                      aaa    
   1:   51                      push   ecx
55 82 ---
   0:   37                      aaa    
   1:   52                      push   edx
55 83 ---
   0:   37                      aaa    
   1:   53                      push   ebx
55 84 ---
   0:   37                      aaa    
   1:   54                      push   esp
55 85 ---
   0:   37                      aaa    
   1:   55                      push   ebp
55 86 ---
   0:   37                      aaa    
   1:   56                      push   esi
55 87 ---
   0:   37                      aaa    
   1:   57                      push   edi
55 88 ---
   0:   37                      aaa    
   1:   58                      pop    eax
55 89 ---
   0:   37                      aaa    
   1:   59                      pop    ecx
55 90 ---
   0:   37                      aaa    
   1:   5a                      pop    edx
55 91 ---
   0:   37                      aaa    
   1:   5b                      pop    ebx
55 92 ---
   0:   37                      aaa    
   1:   5c                      pop    esp
55 93 ---
   0:   37                      aaa    
   1:   5d                      pop    ebp
55 94 ---
   0:   37                      aaa    
   1:   5e                      pop    esi
55 95 ---
   0:   37                      aaa    
   1:   5f                      pop    edi
55 96 ---
   0:   37                      aaa    
   1:   60                      pusha
55 97 ---
   0:   37                      aaa    
   1:   61                      popa
55 98 ---
   0:   37                      aaa    
   1:   62                      .byte 0x62
55 99 ---
   0:   37                      aaa    
   1:   63                      .byte 0x63
55 100 ---
   0:   37                      aaa    
   1:   64                      fs
55 101 ---
   0:   37                      aaa    
   1:   65                      gs
55 102 ---
   0:   37                      aaa    
   1:   66                      data16
55 103 ---
   0:   37                      aaa    
   1:   67                      addr16
55 104 ---
   0:   37                      aaa    
   1:   68                      .byte 0x68
55 105 ---
   0:   37                      aaa    
   1:   69                      .byte 0x69
55 106 ---
   0:   37                      aaa    
   1:   6a                      .byte 0x6a
55 107 ---
   0:   37                      aaa    
   1:   6b                      .byte 0x6b
55 108 ---
   0:   37                      aaa    
   1:   6c                      ins    BYTE PTR es:[edi],dx
55 109 ---
   0:   37                      aaa    
   1:   6d                      ins    DWORD PTR es:[edi],dx
55 110 ---
   0:   37                      aaa    
   1:   6e                      outs   dx,BYTE PTR ds:[esi]
55 111 ---
   0:   37                      aaa    
   1:   6f                      outs   dx,DWORD PTR ds:[esi]
55 112 ---
   0:   37                      aaa    
   1:   70                      .byte 0x70
55 113 ---
   0:   37                      aaa    
   1:   71                      .byte 0x71
55 114 ---
   0:   37                      aaa    
   1:   72                      .byte 0x72
55 115 ---
   0:   37                      aaa    
   1:   73                      .byte 0x73
55 116 ---
   0:   37                      aaa    
   1:   74                      .byte 0x74
55 117 ---
   0:   37                      aaa    
   1:   75                      .byte 0x75
55 118 ---
   0:   37                      aaa    
   1:   76                      .byte 0x76
55 119 ---
   0:   37                      aaa    
   1:   77                      .byte 0x77
55 120 ---
   0:   37                      aaa    
   1:   78                      .byte 0x78
55 121 ---
   0:   37                      aaa    
   1:   79                      .byte 0x79
55 122 ---
   0:   37                      aaa    
   1:   7a                      .byte 0x7a
55 123 ---
   0:   37                      aaa    
   1:   7b                      .byte 0x7b
55 124 ---
   0:   37                      aaa    
   1:   7c                      .byte 0x7c
55 125 ---
   0:   37                      aaa    
   1:   7d                      .byte 0x7d
55 126 ---
   0:   37                      aaa    
   1:   7e                      .byte 0x7e
56 32 ---
   0:   38 20                   cmp    BYTE PTR [eax],ah
56 33 ---
   0:   38 21                   cmp    BYTE PTR [ecx],ah
56 34 ---
   0:   38 22                   cmp    BYTE PTR [edx],ah
56 35 ---
   0:   38 23                   cmp    BYTE PTR [ebx],ah
56 36 ---
   0:   38                      .byte 0x38
   1:   24                      .byte 0x24
56 37 ---
   0:   38                      .byte 0x38
   1:   25                      .byte 0x25
56 38 ---
   0:   38 26                   cmp    BYTE PTR [esi],ah
56 39 ---
   0:   38 27                   cmp    BYTE PTR [edi],ah
56 40 ---
   0:   38 28                   cmp    BYTE PTR [eax],ch
56 41 ---
   0:   38 29                   cmp    BYTE PTR [ecx],ch
56 42 ---
   0:   38 2a                   cmp    BYTE PTR [edx],ch
56 43 ---
   0:   38 2b                   cmp    BYTE PTR [ebx],ch
56 44 ---
   0:   38                      .byte 0x38
   1:   2c                      .byte 0x2c
56 45 ---
   0:   38                      .byte 0x38
   1:   2d                      .byte 0x2d
56 46 ---
   0:   38 2e                   cmp    BYTE PTR [esi],ch
56 47 ---
   0:   38 2f                   cmp    BYTE PTR [edi],ch
56 48 ---
   0:   38 30                   cmp    BYTE PTR [eax],dh
56 49 ---
   0:   38 31                   cmp    BYTE PTR [ecx],dh
56 50 ---
   0:   38 32                   cmp    BYTE PTR [edx],dh
56 51 ---
   0:   38 33                   cmp    BYTE PTR [ebx],dh
56 52 ---
   0:   38                      .byte 0x38
   1:   34                      .byte 0x34
56 53 ---
   0:   38                      .byte 0x38
   1:   35                      .byte 0x35
56 54 ---
   0:   38 36                   cmp    BYTE PTR [esi],dh
56 55 ---
   0:   38 37                   cmp    BYTE PTR [edi],dh
56 56 ---
   0:   38 38                   cmp    BYTE PTR [eax],bh
56 57 ---
   0:   38 39                   cmp    BYTE PTR [ecx],bh
56 58 ---
   0:   38 3a                   cmp    BYTE PTR [edx],bh
56 59 ---
   0:   38 3b                   cmp    BYTE PTR [ebx],bh
56 60 ---
   0:   38                      .byte 0x38
   1:   3c                      .byte 0x3c
56 61 ---
   0:   38                      .byte 0x38
   1:   3d                      .byte 0x3d
56 62 ---
   0:   38 3e                   cmp    BYTE PTR [esi],bh
56 63 ---
   0:   38 3f                   cmp    BYTE PTR [edi],bh
56 64 ---
   0:   38                      .byte 0x38
   1:   40                      inc    eax
56 65 ---
   0:   38                      .byte 0x38
   1:   41                      inc    ecx
56 66 ---
   0:   38                      .byte 0x38
   1:   42                      inc    edx
56 67 ---
   0:   38                      .byte 0x38
   1:   43                      inc    ebx
56 68 ---
   0:   38                      .byte 0x38
   1:   44                      inc    esp
56 69 ---
   0:   38                      .byte 0x38
   1:   45                      inc    ebp
56 70 ---
   0:   38                      .byte 0x38
   1:   46                      inc    esi
56 71 ---
   0:   38                      .byte 0x38
   1:   47                      inc    edi
56 72 ---
   0:   38                      .byte 0x38
   1:   48                      dec    eax
56 73 ---
   0:   38                      .byte 0x38
   1:   49                      dec    ecx
56 74 ---
   0:   38                      .byte 0x38
   1:   4a                      dec    edx
56 75 ---
   0:   38                      .byte 0x38
   1:   4b                      dec    ebx
56 76 ---
   0:   38                      .byte 0x38
   1:   4c                      dec    esp
56 77 ---
   0:   38                      .byte 0x38
   1:   4d                      dec    ebp
56 78 ---
   0:   38                      .byte 0x38
   1:   4e                      dec    esi
56 79 ---
   0:   38                      .byte 0x38
   1:   4f                      dec    edi
56 80 ---
   0:   38                      .byte 0x38
   1:   50                      push   eax
56 81 ---
   0:   38                      .byte 0x38
   1:   51                      push   ecx
56 82 ---
   0:   38                      .byte 0x38
   1:   52                      push   edx
56 83 ---
   0:   38                      .byte 0x38
   1:   53                      push   ebx
56 84 ---
   0:   38                      .byte 0x38
   1:   54                      push   esp
56 85 ---
   0:   38                      .byte 0x38
   1:   55                      push   ebp
56 86 ---
   0:   38                      .byte 0x38
   1:   56                      push   esi
56 87 ---
   0:   38                      .byte 0x38
   1:   57                      push   edi
56 88 ---
   0:   38                      .byte 0x38
   1:   58                      pop    eax
56 89 ---
   0:   38                      .byte 0x38
   1:   59                      pop    ecx
56 90 ---
   0:   38                      .byte 0x38
   1:   5a                      pop    edx
56 91 ---
   0:   38                      .byte 0x38
   1:   5b                      pop    ebx
56 92 ---
   0:   38                      .byte 0x38
   1:   5c                      pop    esp
56 93 ---
   0:   38                      .byte 0x38
   1:   5d                      pop    ebp
56 94 ---
   0:   38                      .byte 0x38
   1:   5e                      pop    esi
56 95 ---
   0:   38                      .byte 0x38
   1:   5f                      pop    edi
56 96 ---
   0:   38                      .byte 0x38
   1:   60                      pusha
56 97 ---
   0:   38                      .byte 0x38
   1:   61                      popa
56 98 ---
   0:   38                      .byte 0x38
   1:   62                      .byte 0x62
56 99 ---
   0:   38                      .byte 0x38
   1:   63                      .byte 0x63
56 100 ---
   0:   38                      .byte 0x38
   1:   64                      fs
56 101 ---
   0:   38                      .byte 0x38
   1:   65                      gs
56 102 ---
   0:   38                      .byte 0x38
   1:   66                      data16
56 103 ---
   0:   38                      .byte 0x38
   1:   67                      addr16
56 104 ---
   0:   38                      .byte 0x38
   1:   68                      .byte 0x68
56 105 ---
   0:   38                      .byte 0x38
   1:   69                      .byte 0x69
56 106 ---
   0:   38                      .byte 0x38
   1:   6a                      .byte 0x6a
56 107 ---
   0:   38                      .byte 0x38
   1:   6b                      .byte 0x6b
56 108 ---
   0:   38                      .byte 0x38
   1:   6c                      ins    BYTE PTR es:[edi],dx
56 109 ---
   0:   38                      .byte 0x38
   1:   6d                      ins    DWORD PTR es:[edi],dx
56 110 ---
   0:   38                      .byte 0x38
   1:   6e                      outs   dx,BYTE PTR ds:[esi]
56 111 ---
   0:   38                      .byte 0x38
   1:   6f                      outs   dx,DWORD PTR ds:[esi]
56 112 ---
   0:   38                      .byte 0x38
   1:   70                      .byte 0x70
56 113 ---
   0:   38                      .byte 0x38
   1:   71                      .byte 0x71
56 114 ---
   0:   38                      .byte 0x38
   1:   72                      .byte 0x72
56 115 ---
   0:   38                      .byte 0x38
   1:   73                      .byte 0x73
56 116 ---
   0:   38                      .byte 0x38
   1:   74                      .byte 0x74
56 117 ---
   0:   38                      .byte 0x38
   1:   75                      .byte 0x75
56 118 ---
   0:   38                      .byte 0x38
   1:   76                      .byte 0x76
56 119 ---
   0:   38                      .byte 0x38
   1:   77                      .byte 0x77
56 120 ---
   0:   38                      .byte 0x38
   1:   78                      .byte 0x78
56 121 ---
   0:   38                      .byte 0x38
   1:   79                      .byte 0x79
56 122 ---
   0:   38                      .byte 0x38
   1:   7a                      .byte 0x7a
56 123 ---
   0:   38                      .byte 0x38
   1:   7b                      .byte 0x7b
56 124 ---
   0:   38                      .byte 0x38
   1:   7c                      .byte 0x7c
56 125 ---
   0:   38                      .byte 0x38
   1:   7d                      .byte 0x7d
56 126 ---
   0:   38                      .byte 0x38
   1:   7e                      .byte 0x7e
57 32 ---
   0:   39 20                   cmp    DWORD PTR [eax],esp
57 33 ---
   0:   39 21                   cmp    DWORD PTR [ecx],esp
57 34 ---
   0:   39 22                   cmp    DWORD PTR [edx],esp
57 35 ---
   0:   39 23                   cmp    DWORD PTR [ebx],esp
57 36 ---
   0:   39                      .byte 0x39
   1:   24                      .byte 0x24
57 37 ---
   0:   39                      .byte 0x39
   1:   25                      .byte 0x25
57 38 ---
   0:   39 26                   cmp    DWORD PTR [esi],esp
57 39 ---
   0:   39 27                   cmp    DWORD PTR [edi],esp
57 40 ---
   0:   39 28                   cmp    DWORD PTR [eax],ebp
57 41 ---
   0:   39 29                   cmp    DWORD PTR [ecx],ebp
57 42 ---
   0:   39 2a                   cmp    DWORD PTR [edx],ebp
57 43 ---
   0:   39 2b                   cmp    DWORD PTR [ebx],ebp
57 44 ---
   0:   39                      .byte 0x39
   1:   2c                      .byte 0x2c
57 45 ---
   0:   39                      .byte 0x39
   1:   2d                      .byte 0x2d
57 46 ---
   0:   39 2e                   cmp    DWORD PTR [esi],ebp
57 47 ---
   0:   39 2f                   cmp    DWORD PTR [edi],ebp
57 48 ---
   0:   39 30                   cmp    DWORD PTR [eax],esi
57 49 ---
   0:   39 31                   cmp    DWORD PTR [ecx],esi
57 50 ---
   0:   39 32                   cmp    DWORD PTR [edx],esi
57 51 ---
   0:   39 33                   cmp    DWORD PTR [ebx],esi
57 52 ---
   0:   39                      .byte 0x39
   1:   34                      .byte 0x34
57 53 ---
   0:   39                      .byte 0x39
   1:   35                      .byte 0x35
57 54 ---
   0:   39 36                   cmp    DWORD PTR [esi],esi
57 55 ---
   0:   39 37                   cmp    DWORD PTR [edi],esi
57 56 ---
   0:   39 38                   cmp    DWORD PTR [eax],edi
57 57 ---
   0:   39 39                   cmp    DWORD PTR [ecx],edi
57 58 ---
   0:   39 3a                   cmp    DWORD PTR [edx],edi
57 59 ---
   0:   39 3b                   cmp    DWORD PTR [ebx],edi
57 60 ---
   0:   39                      .byte 0x39
   1:   3c                      .byte 0x3c
57 61 ---
   0:   39                      .byte 0x39
   1:   3d                      .byte 0x3d
57 62 ---
   0:   39 3e                   cmp    DWORD PTR [esi],edi
57 63 ---
   0:   39 3f                   cmp    DWORD PTR [edi],edi
57 64 ---
   0:   39                      .byte 0x39
   1:   40                      inc    eax
57 65 ---
   0:   39                      .byte 0x39
   1:   41                      inc    ecx
57 66 ---
   0:   39                      .byte 0x39
   1:   42                      inc    edx
57 67 ---
   0:   39                      .byte 0x39
   1:   43                      inc    ebx
57 68 ---
   0:   39                      .byte 0x39
   1:   44                      inc    esp
57 69 ---
   0:   39                      .byte 0x39
   1:   45                      inc    ebp
57 70 ---
   0:   39                      .byte 0x39
   1:   46                      inc    esi
57 71 ---
   0:   39                      .byte 0x39
   1:   47                      inc    edi
57 72 ---
   0:   39                      .byte 0x39
   1:   48                      dec    eax
57 73 ---
   0:   39                      .byte 0x39
   1:   49                      dec    ecx
57 74 ---
   0:   39                      .byte 0x39
   1:   4a                      dec    edx
57 75 ---
   0:   39                      .byte 0x39
   1:   4b                      dec    ebx
57 76 ---
   0:   39                      .byte 0x39
   1:   4c                      dec    esp
57 77 ---
   0:   39                      .byte 0x39
   1:   4d                      dec    ebp
57 78 ---
   0:   39                      .byte 0x39
   1:   4e                      dec    esi
57 79 ---
   0:   39                      .byte 0x39
   1:   4f                      dec    edi
57 80 ---
   0:   39                      .byte 0x39
   1:   50                      push   eax
57 81 ---
   0:   39                      .byte 0x39
   1:   51                      push   ecx
57 82 ---
   0:   39                      .byte 0x39
   1:   52                      push   edx
57 83 ---
   0:   39                      .byte 0x39
   1:   53                      push   ebx
57 84 ---
   0:   39                      .byte 0x39
   1:   54                      push   esp
57 85 ---
   0:   39                      .byte 0x39
   1:   55                      push   ebp
57 86 ---
   0:   39                      .byte 0x39
   1:   56                      push   esi
57 87 ---
   0:   39                      .byte 0x39
   1:   57                      push   edi
57 88 ---
   0:   39                      .byte 0x39
   1:   58                      pop    eax
57 89 ---
   0:   39                      .byte 0x39
   1:   59                      pop    ecx
57 90 ---
   0:   39                      .byte 0x39
   1:   5a                      pop    edx
57 91 ---
   0:   39                      .byte 0x39
   1:   5b                      pop    ebx
57 92 ---
   0:   39                      .byte 0x39
   1:   5c                      pop    esp
57 93 ---
   0:   39                      .byte 0x39
   1:   5d                      pop    ebp
57 94 ---
   0:   39                      .byte 0x39
   1:   5e                      pop    esi
57 95 ---
   0:   39                      .byte 0x39
   1:   5f                      pop    edi
57 96 ---
   0:   39                      .byte 0x39
   1:   60                      pusha
57 97 ---
   0:   39                      .byte 0x39
   1:   61                      popa
57 98 ---
   0:   39                      .byte 0x39
   1:   62                      .byte 0x62
57 99 ---
   0:   39                      .byte 0x39
   1:   63                      .byte 0x63
57 100 ---
   0:   39                      .byte 0x39
   1:   64                      fs
57 101 ---
   0:   39                      .byte 0x39
   1:   65                      gs
57 102 ---
   0:   39                      .byte 0x39
   1:   66                      data16
57 103 ---
   0:   39                      .byte 0x39
   1:   67                      addr16
57 104 ---
   0:   39                      .byte 0x39
   1:   68                      .byte 0x68
57 105 ---
   0:   39                      .byte 0x39
   1:   69                      .byte 0x69
57 106 ---
   0:   39                      .byte 0x39
   1:   6a                      .byte 0x6a
57 107 ---
   0:   39                      .byte 0x39
   1:   6b                      .byte 0x6b
57 108 ---
   0:   39                      .byte 0x39
   1:   6c                      ins    BYTE PTR es:[edi],dx
57 109 ---
   0:   39                      .byte 0x39
   1:   6d                      ins    DWORD PTR es:[edi],dx
57 110 ---
   0:   39                      .byte 0x39
   1:   6e                      outs   dx,BYTE PTR ds:[esi]
57 111 ---
   0:   39                      .byte 0x39
   1:   6f                      outs   dx,DWORD PTR ds:[esi]
57 112 ---
   0:   39                      .byte 0x39
   1:   70                      .byte 0x70
57 113 ---
   0:   39                      .byte 0x39
   1:   71                      .byte 0x71
57 114 ---
   0:   39                      .byte 0x39
   1:   72                      .byte 0x72
57 115 ---
   0:   39                      .byte 0x39
   1:   73                      .byte 0x73
57 116 ---
   0:   39                      .byte 0x39
   1:   74                      .byte 0x74
57 117 ---
   0:   39                      .byte 0x39
   1:   75                      .byte 0x75
57 118 ---
   0:   39                      .byte 0x39
   1:   76                      .byte 0x76
57 119 ---
   0:   39                      .byte 0x39
   1:   77                      .byte 0x77
57 120 ---
   0:   39                      .byte 0x39
   1:   78                      .byte 0x78
57 121 ---
   0:   39                      .byte 0x39
   1:   79                      .byte 0x79
57 122 ---
   0:   39                      .byte 0x39
   1:   7a                      .byte 0x7a
57 123 ---
   0:   39                      .byte 0x39
   1:   7b                      .byte 0x7b
57 124 ---
   0:   39                      .byte 0x39
   1:   7c                      .byte 0x7c
57 125 ---
   0:   39                      .byte 0x39
   1:   7d                      .byte 0x7d
57 126 ---
   0:   39                      .byte 0x39
   1:   7e                      .byte 0x7e
58 32 ---
   0:   3a 20                   cmp    ah,BYTE PTR [eax]
58 33 ---
   0:   3a 21                   cmp    ah,BYTE PTR [ecx]
58 34 ---
   0:   3a 22                   cmp    ah,BYTE PTR [edx]
58 35 ---
   0:   3a 23                   cmp    ah,BYTE PTR [ebx]
58 36 ---
   0:   3a                      .byte 0x3a
   1:   24                      .byte 0x24
58 37 ---
   0:   3a                      .byte 0x3a
   1:   25                      .byte 0x25
58 38 ---
   0:   3a 26                   cmp    ah,BYTE PTR [esi]
58 39 ---
   0:   3a 27                   cmp    ah,BYTE PTR [edi]
58 40 ---
   0:   3a 28                   cmp    ch,BYTE PTR [eax]
58 41 ---
   0:   3a 29                   cmp    ch,BYTE PTR [ecx]
58 42 ---
   0:   3a 2a                   cmp    ch,BYTE PTR [edx]
58 43 ---
   0:   3a 2b                   cmp    ch,BYTE PTR [ebx]
58 44 ---
   0:   3a                      .byte 0x3a
   1:   2c                      .byte 0x2c
58 45 ---
   0:   3a                      .byte 0x3a
   1:   2d                      .byte 0x2d
58 46 ---
   0:   3a 2e                   cmp    ch,BYTE PTR [esi]
58 47 ---
   0:   3a 2f                   cmp    ch,BYTE PTR [edi]
58 48 ---
   0:   3a 30                   cmp    dh,BYTE PTR [eax]
58 49 ---
   0:   3a 31                   cmp    dh,BYTE PTR [ecx]
58 50 ---
   0:   3a 32                   cmp    dh,BYTE PTR [edx]
58 51 ---
   0:   3a 33                   cmp    dh,BYTE PTR [ebx]
58 52 ---
   0:   3a                      .byte 0x3a
   1:   34                      .byte 0x34
58 53 ---
   0:   3a                      .byte 0x3a
   1:   35                      .byte 0x35
58 54 ---
   0:   3a 36                   cmp    dh,BYTE PTR [esi]
58 55 ---
   0:   3a 37                   cmp    dh,BYTE PTR [edi]
58 56 ---
   0:   3a 38                   cmp    bh,BYTE PTR [eax]
58 57 ---
   0:   3a 39                   cmp    bh,BYTE PTR [ecx]
58 58 ---
   0:   3a 3a                   cmp    bh,BYTE PTR [edx]
58 59 ---
   0:   3a 3b                   cmp    bh,BYTE PTR [ebx]
58 60 ---
   0:   3a                      .byte 0x3a
   1:   3c                      .byte 0x3c
58 61 ---
   0:   3a                      .byte 0x3a
   1:   3d                      .byte 0x3d
58 62 ---
   0:   3a 3e                   cmp    bh,BYTE PTR [esi]
58 63 ---
   0:   3a 3f                   cmp    bh,BYTE PTR [edi]
58 64 ---
   0:   3a                      .byte 0x3a
   1:   40                      inc    eax
58 65 ---
   0:   3a                      .byte 0x3a
   1:   41                      inc    ecx
58 66 ---
   0:   3a                      .byte 0x3a
   1:   42                      inc    edx
58 67 ---
   0:   3a                      .byte 0x3a
   1:   43                      inc    ebx
58 68 ---
   0:   3a                      .byte 0x3a
   1:   44                      inc    esp
58 69 ---
   0:   3a                      .byte 0x3a
   1:   45                      inc    ebp
58 70 ---
   0:   3a                      .byte 0x3a
   1:   46                      inc    esi
58 71 ---
   0:   3a                      .byte 0x3a
   1:   47                      inc    edi
58 72 ---
   0:   3a                      .byte 0x3a
   1:   48                      dec    eax
58 73 ---
   0:   3a                      .byte 0x3a
   1:   49                      dec    ecx
58 74 ---
   0:   3a                      .byte 0x3a
   1:   4a                      dec    edx
58 75 ---
   0:   3a                      .byte 0x3a
   1:   4b                      dec    ebx
58 76 ---
   0:   3a                      .byte 0x3a
   1:   4c                      dec    esp
58 77 ---
   0:   3a                      .byte 0x3a
   1:   4d                      dec    ebp
58 78 ---
   0:   3a                      .byte 0x3a
   1:   4e                      dec    esi
58 79 ---
   0:   3a                      .byte 0x3a
   1:   4f                      dec    edi
58 80 ---
   0:   3a                      .byte 0x3a
   1:   50                      push   eax
58 81 ---
   0:   3a                      .byte 0x3a
   1:   51                      push   ecx
58 82 ---
   0:   3a                      .byte 0x3a
   1:   52                      push   edx
58 83 ---
   0:   3a                      .byte 0x3a
   1:   53                      push   ebx
58 84 ---
   0:   3a                      .byte 0x3a
   1:   54                      push   esp
58 85 ---
   0:   3a                      .byte 0x3a
   1:   55                      push   ebp
58 86 ---
   0:   3a                      .byte 0x3a
   1:   56                      push   esi
58 87 ---
   0:   3a                      .byte 0x3a
   1:   57                      push   edi
58 88 ---
   0:   3a                      .byte 0x3a
   1:   58                      pop    eax
58 89 ---
   0:   3a                      .byte 0x3a
   1:   59                      pop    ecx
58 90 ---
   0:   3a                      .byte 0x3a
   1:   5a                      pop    edx
58 91 ---
   0:   3a                      .byte 0x3a
   1:   5b                      pop    ebx
58 92 ---
   0:   3a                      .byte 0x3a
   1:   5c                      pop    esp
58 93 ---
   0:   3a                      .byte 0x3a
   1:   5d                      pop    ebp
58 94 ---
   0:   3a                      .byte 0x3a
   1:   5e                      pop    esi
58 95 ---
   0:   3a                      .byte 0x3a
   1:   5f                      pop    edi
58 96 ---
   0:   3a                      .byte 0x3a
   1:   60                      pusha
58 97 ---
   0:   3a                      .byte 0x3a
   1:   61                      popa
58 98 ---
   0:   3a                      .byte 0x3a
   1:   62                      .byte 0x62
58 99 ---
   0:   3a                      .byte 0x3a
   1:   63                      .byte 0x63
58 100 ---
   0:   3a                      .byte 0x3a
   1:   64                      fs
58 101 ---
   0:   3a                      .byte 0x3a
   1:   65                      gs
58 102 ---
   0:   3a                      .byte 0x3a
   1:   66                      data16
58 103 ---
   0:   3a                      .byte 0x3a
   1:   67                      addr16
58 104 ---
   0:   3a                      .byte 0x3a
   1:   68                      .byte 0x68
58 105 ---
   0:   3a                      .byte 0x3a
   1:   69                      .byte 0x69
58 106 ---
   0:   3a                      .byte 0x3a
   1:   6a                      .byte 0x6a
58 107 ---
   0:   3a                      .byte 0x3a
   1:   6b                      .byte 0x6b
58 108 ---
   0:   3a                      .byte 0x3a
   1:   6c                      ins    BYTE PTR es:[edi],dx
58 109 ---
   0:   3a                      .byte 0x3a
   1:   6d                      ins    DWORD PTR es:[edi],dx
58 110 ---
   0:   3a                      .byte 0x3a
   1:   6e                      outs   dx,BYTE PTR ds:[esi]
58 111 ---
   0:   3a                      .byte 0x3a
   1:   6f                      outs   dx,DWORD PTR ds:[esi]
58 112 ---
   0:   3a                      .byte 0x3a
   1:   70                      .byte 0x70
58 113 ---
   0:   3a                      .byte 0x3a
   1:   71                      .byte 0x71
58 114 ---
   0:   3a                      .byte 0x3a
   1:   72                      .byte 0x72
58 115 ---
   0:   3a                      .byte 0x3a
   1:   73                      .byte 0x73
58 116 ---
   0:   3a                      .byte 0x3a
   1:   74                      .byte 0x74
58 117 ---
   0:   3a                      .byte 0x3a
   1:   75                      .byte 0x75
58 118 ---
   0:   3a                      .byte 0x3a
   1:   76                      .byte 0x76
58 119 ---
   0:   3a                      .byte 0x3a
   1:   77                      .byte 0x77
58 120 ---
   0:   3a                      .byte 0x3a
   1:   78                      .byte 0x78
58 121 ---
   0:   3a                      .byte 0x3a
   1:   79                      .byte 0x79
58 122 ---
   0:   3a                      .byte 0x3a
   1:   7a                      .byte 0x7a
58 123 ---
   0:   3a                      .byte 0x3a
   1:   7b                      .byte 0x7b
58 124 ---
   0:   3a                      .byte 0x3a
   1:   7c                      .byte 0x7c
58 125 ---
   0:   3a                      .byte 0x3a
   1:   7d                      .byte 0x7d
58 126 ---
   0:   3a                      .byte 0x3a
   1:   7e                      .byte 0x7e
59 32 ---
   0:   3b 20                   cmp    esp,DWORD PTR [eax]
59 33 ---
   0:   3b 21                   cmp    esp,DWORD PTR [ecx]
59 34 ---
   0:   3b 22                   cmp    esp,DWORD PTR [edx]
59 35 ---
   0:   3b 23                   cmp    esp,DWORD PTR [ebx]
59 36 ---
   0:   3b                      .byte 0x3b
   1:   24                      .byte 0x24
59 37 ---
   0:   3b                      .byte 0x3b
   1:   25                      .byte 0x25
59 38 ---
   0:   3b 26                   cmp    esp,DWORD PTR [esi]
59 39 ---
   0:   3b 27                   cmp    esp,DWORD PTR [edi]
59 40 ---
   0:   3b 28                   cmp    ebp,DWORD PTR [eax]
59 41 ---
   0:   3b 29                   cmp    ebp,DWORD PTR [ecx]
59 42 ---
   0:   3b 2a                   cmp    ebp,DWORD PTR [edx]
59 43 ---
   0:   3b 2b                   cmp    ebp,DWORD PTR [ebx]
59 44 ---
   0:   3b                      .byte 0x3b
   1:   2c                      .byte 0x2c
59 45 ---
   0:   3b                      .byte 0x3b
   1:   2d                      .byte 0x2d
59 46 ---
   0:   3b 2e                   cmp    ebp,DWORD PTR [esi]
59 47 ---
   0:   3b 2f                   cmp    ebp,DWORD PTR [edi]
59 48 ---
   0:   3b 30                   cmp    esi,DWORD PTR [eax]
59 49 ---
   0:   3b 31                   cmp    esi,DWORD PTR [ecx]
59 50 ---
   0:   3b 32                   cmp    esi,DWORD PTR [edx]
59 51 ---
   0:   3b 33                   cmp    esi,DWORD PTR [ebx]
59 52 ---
   0:   3b                      .byte 0x3b
   1:   34                      .byte 0x34
59 53 ---
   0:   3b                      .byte 0x3b
   1:   35                      .byte 0x35
59 54 ---
   0:   3b 36                   cmp    esi,DWORD PTR [esi]
59 55 ---
   0:   3b 37                   cmp    esi,DWORD PTR [edi]
59 56 ---
   0:   3b 38                   cmp    edi,DWORD PTR [eax]
59 57 ---
   0:   3b 39                   cmp    edi,DWORD PTR [ecx]
59 58 ---
   0:   3b 3a                   cmp    edi,DWORD PTR [edx]
59 59 ---
   0:   3b 3b                   cmp    edi,DWORD PTR [ebx]
59 60 ---
   0:   3b                      .byte 0x3b
   1:   3c                      .byte 0x3c
59 61 ---
   0:   3b                      .byte 0x3b
   1:   3d                      .byte 0x3d
59 62 ---
   0:   3b 3e                   cmp    edi,DWORD PTR [esi]
59 63 ---
   0:   3b 3f                   cmp    edi,DWORD PTR [edi]
59 64 ---
   0:   3b                      .byte 0x3b
   1:   40                      inc    eax
59 65 ---
   0:   3b                      .byte 0x3b
   1:   41                      inc    ecx
59 66 ---
   0:   3b                      .byte 0x3b
   1:   42                      inc    edx
59 67 ---
   0:   3b                      .byte 0x3b
   1:   43                      inc    ebx
59 68 ---
   0:   3b                      .byte 0x3b
   1:   44                      inc    esp
59 69 ---
   0:   3b                      .byte 0x3b
   1:   45                      inc    ebp
59 70 ---
   0:   3b                      .byte 0x3b
   1:   46                      inc    esi
59 71 ---
   0:   3b                      .byte 0x3b
   1:   47                      inc    edi
59 72 ---
   0:   3b                      .byte 0x3b
   1:   48                      dec    eax
59 73 ---
   0:   3b                      .byte 0x3b
   1:   49                      dec    ecx
59 74 ---
   0:   3b                      .byte 0x3b
   1:   4a                      dec    edx
59 75 ---
   0:   3b                      .byte 0x3b
   1:   4b                      dec    ebx
59 76 ---
   0:   3b                      .byte 0x3b
   1:   4c                      dec    esp
59 77 ---
   0:   3b                      .byte 0x3b
   1:   4d                      dec    ebp
59 78 ---
   0:   3b                      .byte 0x3b
   1:   4e                      dec    esi
59 79 ---
   0:   3b                      .byte 0x3b
   1:   4f                      dec    edi
59 80 ---
   0:   3b                      .byte 0x3b
   1:   50                      push   eax
59 81 ---
   0:   3b                      .byte 0x3b
   1:   51                      push   ecx
59 82 ---
   0:   3b                      .byte 0x3b
   1:   52                      push   edx
59 83 ---
   0:   3b                      .byte 0x3b
   1:   53                      push   ebx
59 84 ---
   0:   3b                      .byte 0x3b
   1:   54                      push   esp
59 85 ---
   0:   3b                      .byte 0x3b
   1:   55                      push   ebp
59 86 ---
   0:   3b                      .byte 0x3b
   1:   56                      push   esi
59 87 ---
   0:   3b                      .byte 0x3b
   1:   57                      push   edi
59 88 ---
   0:   3b                      .byte 0x3b
   1:   58                      pop    eax
59 89 ---
   0:   3b                      .byte 0x3b
   1:   59                      pop    ecx
59 90 ---
   0:   3b                      .byte 0x3b
   1:   5a                      pop    edx
59 91 ---
   0:   3b                      .byte 0x3b
   1:   5b                      pop    ebx
59 92 ---
   0:   3b                      .byte 0x3b
   1:   5c                      pop    esp
59 93 ---
   0:   3b                      .byte 0x3b
   1:   5d                      pop    ebp
59 94 ---
   0:   3b                      .byte 0x3b
   1:   5e                      pop    esi
59 95 ---
   0:   3b                      .byte 0x3b
   1:   5f                      pop    edi
59 96 ---
   0:   3b                      .byte 0x3b
   1:   60                      pusha
59 97 ---
   0:   3b                      .byte 0x3b
   1:   61                      popa
59 98 ---
   0:   3b                      .byte 0x3b
   1:   62                      .byte 0x62
59 99 ---
   0:   3b                      .byte 0x3b
   1:   63                      .byte 0x63
59 100 ---
   0:   3b                      .byte 0x3b
   1:   64                      fs
59 101 ---
   0:   3b                      .byte 0x3b
   1:   65                      gs
59 102 ---
   0:   3b                      .byte 0x3b
   1:   66                      data16
59 103 ---
   0:   3b                      .byte 0x3b
   1:   67                      addr16
59 104 ---
   0:   3b                      .byte 0x3b
   1:   68                      .byte 0x68
59 105 ---
   0:   3b                      .byte 0x3b
   1:   69                      .byte 0x69
59 106 ---
   0:   3b                      .byte 0x3b
   1:   6a                      .byte 0x6a
59 107 ---
   0:   3b                      .byte 0x3b
   1:   6b                      .byte 0x6b
59 108 ---
   0:   3b                      .byte 0x3b
   1:   6c                      ins    BYTE PTR es:[edi],dx
59 109 ---
   0:   3b                      .byte 0x3b
   1:   6d                      ins    DWORD PTR es:[edi],dx
59 110 ---
   0:   3b                      .byte 0x3b
   1:   6e                      outs   dx,BYTE PTR ds:[esi]
59 111 ---
   0:   3b                      .byte 0x3b
   1:   6f                      outs   dx,DWORD PTR ds:[esi]
59 112 ---
   0:   3b                      .byte 0x3b
   1:   70                      .byte 0x70
59 113 ---
   0:   3b                      .byte 0x3b
   1:   71                      .byte 0x71
59 114 ---
   0:   3b                      .byte 0x3b
   1:   72                      .byte 0x72
59 115 ---
   0:   3b                      .byte 0x3b
   1:   73                      .byte 0x73
59 116 ---
   0:   3b                      .byte 0x3b
   1:   74                      .byte 0x74
59 117 ---
   0:   3b                      .byte 0x3b
   1:   75                      .byte 0x75
59 118 ---
   0:   3b                      .byte 0x3b
   1:   76                      .byte 0x76
59 119 ---
   0:   3b                      .byte 0x3b
   1:   77                      .byte 0x77
59 120 ---
   0:   3b                      .byte 0x3b
   1:   78                      .byte 0x78
59 121 ---
   0:   3b                      .byte 0x3b
   1:   79                      .byte 0x79
59 122 ---
   0:   3b                      .byte 0x3b
   1:   7a                      .byte 0x7a
59 123 ---
   0:   3b                      .byte 0x3b
   1:   7b                      .byte 0x7b
59 124 ---
   0:   3b                      .byte 0x3b
   1:   7c                      .byte 0x7c
59 125 ---
   0:   3b                      .byte 0x3b
   1:   7d                      .byte 0x7d
59 126 ---
   0:   3b                      .byte 0x3b
   1:   7e                      .byte 0x7e
60 32 ---
   0:   3c 20                   cmp    al,0x20
60 33 ---
   0:   3c 21                   cmp    al,0x21
60 34 ---
   0:   3c 22                   cmp    al,0x22
60 35 ---
   0:   3c 23                   cmp    al,0x23
60 36 ---
   0:   3c 24                   cmp    al,0x24
60 37 ---
   0:   3c 25                   cmp    al,0x25
60 38 ---
   0:   3c 26                   cmp    al,0x26
60 39 ---
   0:   3c 27                   cmp    al,0x27
60 40 ---
   0:   3c 28                   cmp    al,0x28
60 41 ---
   0:   3c 29                   cmp    al,0x29
60 42 ---
   0:   3c 2a                   cmp    al,0x2a
60 43 ---
   0:   3c 2b                   cmp    al,0x2b
60 44 ---
   0:   3c 2c                   cmp    al,0x2c
60 45 ---
   0:   3c 2d                   cmp    al,0x2d
60 46 ---
   0:   3c 2e                   cmp    al,0x2e
60 47 ---
   0:   3c 2f                   cmp    al,0x2f
60 48 ---
   0:   3c 30                   cmp    al,0x30
60 49 ---
   0:   3c 31                   cmp    al,0x31
60 50 ---
   0:   3c 32                   cmp    al,0x32
60 51 ---
   0:   3c 33                   cmp    al,0x33
60 52 ---
   0:   3c 34                   cmp    al,0x34
60 53 ---
   0:   3c 35                   cmp    al,0x35
60 54 ---
   0:   3c 36                   cmp    al,0x36
60 55 ---
   0:   3c 37                   cmp    al,0x37
60 56 ---
   0:   3c 38                   cmp    al,0x38
60 57 ---
   0:   3c 39                   cmp    al,0x39
60 58 ---
   0:   3c 3a                   cmp    al,0x3a
60 59 ---
   0:   3c 3b                   cmp    al,0x3b
60 60 ---
   0:   3c 3c                   cmp    al,0x3c
60 61 ---
   0:   3c 3d                   cmp    al,0x3d
60 62 ---
   0:   3c 3e                   cmp    al,0x3e
60 63 ---
   0:   3c 3f                   cmp    al,0x3f
60 64 ---
   0:   3c 40                   cmp    al,0x40
60 65 ---
   0:   3c 41                   cmp    al,0x41
60 66 ---
   0:   3c 42                   cmp    al,0x42
60 67 ---
   0:   3c 43                   cmp    al,0x43
60 68 ---
   0:   3c 44                   cmp    al,0x44
60 69 ---
   0:   3c 45                   cmp    al,0x45
60 70 ---
   0:   3c 46                   cmp    al,0x46
60 71 ---
   0:   3c 47                   cmp    al,0x47
60 72 ---
   0:   3c 48                   cmp    al,0x48
60 73 ---
   0:   3c 49                   cmp    al,0x49
60 74 ---
   0:   3c 4a                   cmp    al,0x4a
60 75 ---
   0:   3c 4b                   cmp    al,0x4b
60 76 ---
   0:   3c 4c                   cmp    al,0x4c
60 77 ---
   0:   3c 4d                   cmp    al,0x4d
60 78 ---
   0:   3c 4e                   cmp    al,0x4e
60 79 ---
   0:   3c 4f                   cmp    al,0x4f
60 80 ---
   0:   3c 50                   cmp    al,0x50
60 81 ---
   0:   3c 51                   cmp    al,0x51
60 82 ---
   0:   3c 52                   cmp    al,0x52
60 83 ---
   0:   3c 53                   cmp    al,0x53
60 84 ---
   0:   3c 54                   cmp    al,0x54
60 85 ---
   0:   3c 55                   cmp    al,0x55
60 86 ---
   0:   3c 56                   cmp    al,0x56
60 87 ---
   0:   3c 57                   cmp    al,0x57
60 88 ---
   0:   3c 58                   cmp    al,0x58
60 89 ---
   0:   3c 59                   cmp    al,0x59
60 90 ---
   0:   3c 5a                   cmp    al,0x5a
60 91 ---
   0:   3c 5b                   cmp    al,0x5b
60 92 ---
   0:   3c 5c                   cmp    al,0x5c
60 93 ---
   0:   3c 5d                   cmp    al,0x5d
60 94 ---
   0:   3c 5e                   cmp    al,0x5e
60 95 ---
   0:   3c 5f                   cmp    al,0x5f
60 96 ---
   0:   3c 60                   cmp    al,0x60
60 97 ---
   0:   3c 61                   cmp    al,0x61
60 98 ---
   0:   3c 62                   cmp    al,0x62
60 99 ---
   0:   3c 63                   cmp    al,0x63
60 100 ---
   0:   3c 64                   cmp    al,0x64
60 101 ---
   0:   3c 65                   cmp    al,0x65
60 102 ---
   0:   3c 66                   cmp    al,0x66
60 103 ---
   0:   3c 67                   cmp    al,0x67
60 104 ---
   0:   3c 68                   cmp    al,0x68
60 105 ---
   0:   3c 69                   cmp    al,0x69
60 106 ---
   0:   3c 6a                   cmp    al,0x6a
60 107 ---
   0:   3c 6b                   cmp    al,0x6b
60 108 ---
   0:   3c 6c                   cmp    al,0x6c
60 109 ---
   0:   3c 6d                   cmp    al,0x6d
60 110 ---
   0:   3c 6e                   cmp    al,0x6e
60 111 ---
   0:   3c 6f                   cmp    al,0x6f
60 112 ---
   0:   3c 70                   cmp    al,0x70
60 113 ---
   0:   3c 71                   cmp    al,0x71
60 114 ---
   0:   3c 72                   cmp    al,0x72
60 115 ---
   0:   3c 73                   cmp    al,0x73
60 116 ---
   0:   3c 74                   cmp    al,0x74
60 117 ---
   0:   3c 75                   cmp    al,0x75
60 118 ---
   0:   3c 76                   cmp    al,0x76
60 119 ---
   0:   3c 77                   cmp    al,0x77
60 120 ---
   0:   3c 78                   cmp    al,0x78
60 121 ---
   0:   3c 79                   cmp    al,0x79
60 122 ---
   0:   3c 7a                   cmp    al,0x7a
60 123 ---
   0:   3c 7b                   cmp    al,0x7b
60 124 ---
   0:   3c 7c                   cmp    al,0x7c
60 125 ---
   0:   3c 7d                   cmp    al,0x7d
60 126 ---
   0:   3c 7e                   cmp    al,0x7e
61 32 ---
   0:   3d                      .byte 0x3d
   1:   20                      .byte 0x20
61 33 ---
   0:   3d                      .byte 0x3d
   1:   21                      .byte 0x21
61 34 ---
   0:   3d                      .byte 0x3d
   1:   22                      .byte 0x22
61 35 ---
   0:   3d                      .byte 0x3d
   1:   23                      .byte 0x23
61 36 ---
   0:   3d                      .byte 0x3d
   1:   24                      .byte 0x24
61 37 ---
   0:   3d                      .byte 0x3d
   1:   25                      .byte 0x25
61 38 ---
   0:   3d                      .byte 0x3d
   1:   26                      es
61 39 ---
   0:   3d                      .byte 0x3d
   1:   27                      daa
61 40 ---
   0:   3d                      .byte 0x3d
   1:   28                      .byte 0x28
61 41 ---
   0:   3d                      .byte 0x3d
   1:   29                      .byte 0x29
61 42 ---
   0:   3d                      .byte 0x3d
   1:   2a                      .byte 0x2a
61 43 ---
   0:   3d                      .byte 0x3d
   1:   2b                      .byte 0x2b
61 44 ---
   0:   3d                      .byte 0x3d
   1:   2c                      .byte 0x2c
61 45 ---
   0:   3d                      .byte 0x3d
   1:   2d                      .byte 0x2d
61 46 ---
   0:   3d                      .byte 0x3d
   1:   2e                      cs
61 47 ---
   0:   3d                      .byte 0x3d
   1:   2f                      das
61 48 ---
   0:   3d                      .byte 0x3d
   1:   30                      .byte 0x30
61 49 ---
   0:   3d                      .byte 0x3d
   1:   31                      .byte 0x31
61 50 ---
   0:   3d                      .byte 0x3d
   1:   32                      .byte 0x32
61 51 ---
   0:   3d                      .byte 0x3d
   1:   33                      .byte 0x33
61 52 ---
   0:   3d                      .byte 0x3d
   1:   34                      .byte 0x34
61 53 ---
   0:   3d                      .byte 0x3d
   1:   35                      .byte 0x35
61 54 ---
   0:   3d                      .byte 0x3d
   1:   36                      ss
61 55 ---
   0:   3d                      .byte 0x3d
   1:   37                      aaa
61 56 ---
   0:   3d                      .byte 0x3d
   1:   38                      .byte 0x38
61 57 ---
   0:   3d                      .byte 0x3d
   1:   39                      .byte 0x39
61 58 ---
   0:   3d                      .byte 0x3d
   1:   3a                      .byte 0x3a
61 59 ---
   0:   3d                      .byte 0x3d
   1:   3b                      .byte 0x3b
61 60 ---
   0:   3d                      .byte 0x3d
   1:   3c                      .byte 0x3c
61 61 ---
   0:   3d                      .byte 0x3d
   1:   3d                      .byte 0x3d
61 62 ---
   0:   3d                      .byte 0x3d
   1:   3e                      ds
61 63 ---
   0:   3d                      .byte 0x3d
   1:   3f                      aas
61 64 ---
   0:   3d                      .byte 0x3d
   1:   40                      inc    eax
61 65 ---
   0:   3d                      .byte 0x3d
   1:   41                      inc    ecx
61 66 ---
   0:   3d                      .byte 0x3d
   1:   42                      inc    edx
61 67 ---
   0:   3d                      .byte 0x3d
   1:   43                      inc    ebx
61 68 ---
   0:   3d                      .byte 0x3d
   1:   44                      inc    esp
61 69 ---
   0:   3d                      .byte 0x3d
   1:   45                      inc    ebp
61 70 ---
   0:   3d                      .byte 0x3d
   1:   46                      inc    esi
61 71 ---
   0:   3d                      .byte 0x3d
   1:   47                      inc    edi
61 72 ---
   0:   3d                      .byte 0x3d
   1:   48                      dec    eax
61 73 ---
   0:   3d                      .byte 0x3d
   1:   49                      dec    ecx
61 74 ---
   0:   3d                      .byte 0x3d
   1:   4a                      dec    edx
61 75 ---
   0:   3d                      .byte 0x3d
   1:   4b                      dec    ebx
61 76 ---
   0:   3d                      .byte 0x3d
   1:   4c                      dec    esp
61 77 ---
   0:   3d                      .byte 0x3d
   1:   4d                      dec    ebp
61 78 ---
   0:   3d                      .byte 0x3d
   1:   4e                      dec    esi
61 79 ---
   0:   3d                      .byte 0x3d
   1:   4f                      dec    edi
61 80 ---
   0:   3d                      .byte 0x3d
   1:   50                      push   eax
61 81 ---
   0:   3d                      .byte 0x3d
   1:   51                      push   ecx
61 82 ---
   0:   3d                      .byte 0x3d
   1:   52                      push   edx
61 83 ---
   0:   3d                      .byte 0x3d
   1:   53                      push   ebx
61 84 ---
   0:   3d                      .byte 0x3d
   1:   54                      push   esp
61 85 ---
   0:   3d                      .byte 0x3d
   1:   55                      push   ebp
61 86 ---
   0:   3d                      .byte 0x3d
   1:   56                      push   esi
61 87 ---
   0:   3d                      .byte 0x3d
   1:   57                      push   edi
61 88 ---
   0:   3d                      .byte 0x3d
   1:   58                      pop    eax
61 89 ---
   0:   3d                      .byte 0x3d
   1:   59                      pop    ecx
61 90 ---
   0:   3d                      .byte 0x3d
   1:   5a                      pop    edx
61 91 ---
   0:   3d                      .byte 0x3d
   1:   5b                      pop    ebx
61 92 ---
   0:   3d                      .byte 0x3d
   1:   5c                      pop    esp
61 93 ---
   0:   3d                      .byte 0x3d
   1:   5d                      pop    ebp
61 94 ---
   0:   3d                      .byte 0x3d
   1:   5e                      pop    esi
61 95 ---
   0:   3d                      .byte 0x3d
   1:   5f                      pop    edi
61 96 ---
   0:   3d                      .byte 0x3d
   1:   60                      pusha
61 97 ---
   0:   3d                      .byte 0x3d
   1:   61                      popa
61 98 ---
   0:   3d                      .byte 0x3d
   1:   62                      .byte 0x62
61 99 ---
   0:   3d                      .byte 0x3d
   1:   63                      .byte 0x63
61 100 ---
   0:   3d                      .byte 0x3d
   1:   64                      fs
61 101 ---
   0:   3d                      .byte 0x3d
   1:   65                      gs
61 102 ---
   0:   3d                      .byte 0x3d
   1:   66                      data16
61 103 ---
   0:   3d                      .byte 0x3d
   1:   67                      addr16
61 104 ---
   0:   3d                      .byte 0x3d
   1:   68                      .byte 0x68
61 105 ---
   0:   3d                      .byte 0x3d
   1:   69                      .byte 0x69
61 106 ---
   0:   3d                      .byte 0x3d
   1:   6a                      .byte 0x6a
61 107 ---
   0:   3d                      .byte 0x3d
   1:   6b                      .byte 0x6b
61 108 ---
   0:   3d                      .byte 0x3d
   1:   6c                      ins    BYTE PTR es:[edi],dx
61 109 ---
   0:   3d                      .byte 0x3d
   1:   6d                      ins    DWORD PTR es:[edi],dx
61 110 ---
   0:   3d                      .byte 0x3d
   1:   6e                      outs   dx,BYTE PTR ds:[esi]
61 111 ---
   0:   3d                      .byte 0x3d
   1:   6f                      outs   dx,DWORD PTR ds:[esi]
61 112 ---
   0:   3d                      .byte 0x3d
   1:   70                      .byte 0x70
61 113 ---
   0:   3d                      .byte 0x3d
   1:   71                      .byte 0x71
61 114 ---
   0:   3d                      .byte 0x3d
   1:   72                      .byte 0x72
61 115 ---
   0:   3d                      .byte 0x3d
   1:   73                      .byte 0x73
61 116 ---
   0:   3d                      .byte 0x3d
   1:   74                      .byte 0x74
61 117 ---
   0:   3d                      .byte 0x3d
   1:   75                      .byte 0x75
61 118 ---
   0:   3d                      .byte 0x3d
   1:   76                      .byte 0x76
61 119 ---
   0:   3d                      .byte 0x3d
   1:   77                      .byte 0x77
61 120 ---
   0:   3d                      .byte 0x3d
   1:   78                      .byte 0x78
61 121 ---
   0:   3d                      .byte 0x3d
   1:   79                      .byte 0x79
61 122 ---
   0:   3d                      .byte 0x3d
   1:   7a                      .byte 0x7a
61 123 ---
   0:   3d                      .byte 0x3d
   1:   7b                      .byte 0x7b
61 124 ---
   0:   3d                      .byte 0x3d
   1:   7c                      .byte 0x7c
61 125 ---
   0:   3d                      .byte 0x3d
   1:   7d                      .byte 0x7d
61 126 ---
   0:   3d                      .byte 0x3d
   1:   7e                      .byte 0x7e
62 32 ---
   0:   3e                      ds
   1:   20                      .byte 0x20
62 33 ---
   0:   3e                      ds
   1:   21                      .byte 0x21
62 34 ---
   0:   3e                      ds
   1:   22                      .byte 0x22
62 35 ---
   0:   3e                      ds
   1:   23                      .byte 0x23
62 36 ---
   0:   3e                      ds
   1:   24                      .byte 0x24
62 37 ---
   0:   3e                      ds
   1:   25                      .byte 0x25
62 38 ---
   0:   3e                      ds
   1:   26                      es
62 39 ---
   0:   3e 27                   ds daa
62 40 ---
   0:   3e                      ds
   1:   28                      .byte 0x28
62 41 ---
   0:   3e                      ds
   1:   29                      .byte 0x29
62 42 ---
   0:   3e                      ds
   1:   2a                      .byte 0x2a
62 43 ---
   0:   3e                      ds
   1:   2b                      .byte 0x2b
62 44 ---
   0:   3e                      ds
   1:   2c                      .byte 0x2c
62 45 ---
   0:   3e                      ds
   1:   2d                      .byte 0x2d
62 46 ---
   0:   3e                      ds
   1:   2e                      cs
62 47 ---
   0:   3e 2f                   ds das
62 48 ---
   0:   3e                      ds
   1:   30                      .byte 0x30
62 49 ---
   0:   3e                      ds
   1:   31                      .byte 0x31
62 50 ---
   0:   3e                      ds
   1:   32                      .byte 0x32
62 51 ---
   0:   3e                      ds
   1:   33                      .byte 0x33
62 52 ---
   0:   3e                      ds
   1:   34                      .byte 0x34
62 53 ---
   0:   3e                      ds
   1:   35                      .byte 0x35
62 54 ---
   0:   3e                      ds
   1:   36                      ss
62 55 ---
   0:   3e 37                   ds aaa
62 56 ---
   0:   3e                      ds
   1:   38                      .byte 0x38
62 57 ---
   0:   3e                      ds
   1:   39                      .byte 0x39
62 58 ---
   0:   3e                      ds
   1:   3a                      .byte 0x3a
62 59 ---
   0:   3e                      ds
   1:   3b                      .byte 0x3b
62 60 ---
   0:   3e                      ds
   1:   3c                      .byte 0x3c
62 61 ---
   0:   3e                      ds
   1:   3d                      .byte 0x3d
62 62 ---
   0:   3e                      ds
   1:   3e                      ds
62 63 ---
   0:   3e 3f                   ds aas
62 64 ---
   0:   3e 40                   ds inc eax
62 65 ---
   0:   3e 41                   ds inc ecx
62 66 ---
   0:   3e 42                   ds inc edx
62 67 ---
   0:   3e 43                   ds inc ebx
62 68 ---
   0:   3e 44                   ds inc esp
62 69 ---
   0:   3e 45                   ds inc ebp
62 70 ---
   0:   3e 46                   ds inc esi
62 71 ---
   0:   3e 47                   ds inc edi
62 72 ---
   0:   3e 48                   ds dec eax
62 73 ---
   0:   3e 49                   ds dec ecx
62 74 ---
   0:   3e 4a                   ds dec edx
62 75 ---
   0:   3e 4b                   ds dec ebx
62 76 ---
   0:   3e 4c                   ds dec esp
62 77 ---
   0:   3e 4d                   ds dec ebp
62 78 ---
   0:   3e 4e                   ds dec esi
62 79 ---
   0:   3e 4f                   ds dec edi
62 80 ---
   0:   3e 50                   ds push eax
62 81 ---
   0:   3e 51                   ds push ecx
62 82 ---
   0:   3e 52                   ds push edx
62 83 ---
   0:   3e 53                   ds push ebx
62 84 ---
   0:   3e 54                   ds push esp
62 85 ---
   0:   3e 55                   ds push ebp
62 86 ---
   0:   3e 56                   ds push esi
62 87 ---
   0:   3e 57                   ds push edi
62 88 ---
   0:   3e 58                   ds pop eax
62 89 ---
   0:   3e 59                   ds pop ecx
62 90 ---
   0:   3e 5a                   ds pop edx
62 91 ---
   0:   3e 5b                   ds pop ebx
62 92 ---
   0:   3e 5c                   ds pop esp
62 93 ---
   0:   3e 5d                   ds pop ebp
62 94 ---
   0:   3e 5e                   ds pop esi
62 95 ---
   0:   3e 5f                   ds pop edi
62 96 ---
   0:   3e 60                   ds pusha
62 97 ---
   0:   3e 61                   ds popa
62 98 ---
   0:   3e                      ds
   1:   62                      .byte 0x62
62 99 ---
   0:   3e                      ds
   1:   63                      .byte 0x63
62 100 ---
   0:   3e                      ds
   1:   64                      fs
62 101 ---
   0:   3e                      ds
   1:   65                      gs
62 102 ---
   0:   3e                      ds
   1:   66                      data16
62 103 ---
   0:   3e                      ds
   1:   67                      addr16
62 104 ---
   0:   3e                      ds
   1:   68                      .byte 0x68
62 105 ---
   0:   3e                      ds
   1:   69                      .byte 0x69
62 106 ---
   0:   3e                      ds
   1:   6a                      .byte 0x6a
62 107 ---
   0:   3e                      ds
   1:   6b                      .byte 0x6b
62 108 ---
   0:   3e 6c                   ds ins BYTE PTR es:[edi],dx
62 109 ---
   0:   3e 6d                   ds ins DWORD PTR es:[edi],dx
62 110 ---
   0:   3e 6e                   outs   dx,BYTE PTR ds:[esi]
62 111 ---
   0:   3e 6f                   outs   dx,DWORD PTR ds:[esi]
62 112 ---
   0:   3e                      ds
   1:   70                      .byte 0x70
62 113 ---
   0:   3e                      ds
   1:   71                      .byte 0x71
62 114 ---
   0:   3e                      ds
   1:   72                      .byte 0x72
62 115 ---
   0:   3e                      ds
   1:   73                      .byte 0x73
62 116 ---
   0:   3e                      ds
   1:   74                      .byte 0x74
62 117 ---
   0:   3e                      ds
   1:   75                      .byte 0x75
62 118 ---
   0:   3e                      ds
   1:   76                      .byte 0x76
62 119 ---
   0:   3e                      ds
   1:   77                      .byte 0x77
62 120 ---
   0:   3e                      ds
   1:   78                      .byte 0x78
62 121 ---
   0:   3e                      ds
   1:   79                      .byte 0x79
62 122 ---
   0:   3e                      ds
   1:   7a                      .byte 0x7a
62 123 ---
   0:   3e                      ds
   1:   7b                      .byte 0x7b
62 124 ---
   0:   3e                      ds
   1:   7c                      .byte 0x7c
62 125 ---
   0:   3e                      ds
   1:   7d                      .byte 0x7d
62 126 ---
   0:   3e                      ds
   1:   7e                      .byte 0x7e
63 32 ---
   0:   3f                      aas    
   1:   20                      .byte 0x20
63 33 ---
   0:   3f                      aas    
   1:   21                      .byte 0x21
63 34 ---
   0:   3f                      aas    
   1:   22                      .byte 0x22
63 35 ---
   0:   3f                      aas    
   1:   23                      .byte 0x23
63 36 ---
   0:   3f                      aas    
   1:   24                      .byte 0x24
63 37 ---
   0:   3f                      aas    
   1:   25                      .byte 0x25
63 38 ---
   0:   3f                      aas    
   1:   26                      es
63 39 ---
   0:   3f                      aas    
   1:   27                      daa
63 40 ---
   0:   3f                      aas    
   1:   28                      .byte 0x28
63 41 ---
   0:   3f                      aas    
   1:   29                      .byte 0x29
63 42 ---
   0:   3f                      aas    
   1:   2a                      .byte 0x2a
63 43 ---
   0:   3f                      aas    
   1:   2b                      .byte 0x2b
63 44 ---
   0:   3f                      aas    
   1:   2c                      .byte 0x2c
63 45 ---
   0:   3f                      aas    
   1:   2d                      .byte 0x2d
63 46 ---
   0:   3f                      aas    
   1:   2e                      cs
63 47 ---
   0:   3f                      aas    
   1:   2f                      das
63 48 ---
   0:   3f                      aas    
   1:   30                      .byte 0x30
63 49 ---
   0:   3f                      aas    
   1:   31                      .byte 0x31
63 50 ---
   0:   3f                      aas    
   1:   32                      .byte 0x32
63 51 ---
   0:   3f                      aas    
   1:   33                      .byte 0x33
63 52 ---
   0:   3f                      aas    
   1:   34                      .byte 0x34
63 53 ---
   0:   3f                      aas    
   1:   35                      .byte 0x35
63 54 ---
   0:   3f                      aas    
   1:   36                      ss
63 55 ---
   0:   3f                      aas    
   1:   37                      aaa
63 56 ---
   0:   3f                      aas    
   1:   38                      .byte 0x38
63 57 ---
   0:   3f                      aas    
   1:   39                      .byte 0x39
63 58 ---
   0:   3f                      aas    
   1:   3a                      .byte 0x3a
63 59 ---
   0:   3f                      aas    
   1:   3b                      .byte 0x3b
63 60 ---
   0:   3f                      aas    
   1:   3c                      .byte 0x3c
63 61 ---
   0:   3f                      aas    
   1:   3d                      .byte 0x3d
63 62 ---
   0:   3f                      aas    
   1:   3e                      ds
63 63 ---
   0:   3f                      aas    
   1:   3f                      aas
63 64 ---
   0:   3f                      aas    
   1:   40                      inc    eax
63 65 ---
   0:   3f                      aas    
   1:   41                      inc    ecx
63 66 ---
   0:   3f                      aas    
   1:   42                      inc    edx
63 67 ---
   0:   3f                      aas    
   1:   43                      inc    ebx
63 68 ---
   0:   3f                      aas    
   1:   44                      inc    esp
63 69 ---
   0:   3f                      aas    
   1:   45                      inc    ebp
63 70 ---
   0:   3f                      aas    
   1:   46                      inc    esi
63 71 ---
   0:   3f                      aas    
   1:   47                      inc    edi
63 72 ---
   0:   3f                      aas    
   1:   48                      dec    eax
63 73 ---
   0:   3f                      aas    
   1:   49                      dec    ecx
63 74 ---
   0:   3f                      aas    
   1:   4a                      dec    edx
63 75 ---
   0:   3f                      aas    
   1:   4b                      dec    ebx
63 76 ---
   0:   3f                      aas    
   1:   4c                      dec    esp
63 77 ---
   0:   3f                      aas    
   1:   4d                      dec    ebp
63 78 ---
   0:   3f                      aas    
   1:   4e                      dec    esi
63 79 ---
   0:   3f                      aas    
   1:   4f                      dec    edi
63 80 ---
   0:   3f                      aas    
   1:   50                      push   eax
63 81 ---
   0:   3f                      aas    
   1:   51                      push   ecx
63 82 ---
   0:   3f                      aas    
   1:   52                      push   edx
63 83 ---
   0:   3f                      aas    
   1:   53                      push   ebx
63 84 ---
   0:   3f                      aas    
   1:   54                      push   esp
63 85 ---
   0:   3f                      aas    
   1:   55                      push   ebp
63 86 ---
   0:   3f                      aas    
   1:   56                      push   esi
63 87 ---
   0:   3f                      aas    
   1:   57                      push   edi
63 88 ---
   0:   3f                      aas    
   1:   58                      pop    eax
63 89 ---
   0:   3f                      aas    
   1:   59                      pop    ecx
63 90 ---
   0:   3f                      aas    
   1:   5a                      pop    edx
63 91 ---
   0:   3f                      aas    
   1:   5b                      pop    ebx
63 92 ---
   0:   3f                      aas    
   1:   5c                      pop    esp
63 93 ---
   0:   3f                      aas    
   1:   5d                      pop    ebp
63 94 ---
   0:   3f                      aas    
   1:   5e                      pop    esi
63 95 ---
   0:   3f                      aas    
   1:   5f                      pop    edi
63 96 ---
   0:   3f                      aas    
   1:   60                      pusha
63 97 ---
   0:   3f                      aas    
   1:   61                      popa
63 98 ---
   0:   3f                      aas    
   1:   62                      .byte 0x62
63 99 ---
   0:   3f                      aas    
   1:   63                      .byte 0x63
63 100 ---
   0:   3f                      aas    
   1:   64                      fs
63 101 ---
   0:   3f                      aas    
   1:   65                      gs
63 102 ---
   0:   3f                      aas    
   1:   66                      data16
63 103 ---
   0:   3f                      aas    
   1:   67                      addr16
63 104 ---
   0:   3f                      aas    
   1:   68                      .byte 0x68
63 105 ---
   0:   3f                      aas    
   1:   69                      .byte 0x69
63 106 ---
   0:   3f                      aas    
   1:   6a                      .byte 0x6a
63 107 ---
   0:   3f                      aas    
   1:   6b                      .byte 0x6b
63 108 ---
   0:   3f                      aas    
   1:   6c                      ins    BYTE PTR es:[edi],dx
63 109 ---
   0:   3f                      aas    
   1:   6d                      ins    DWORD PTR es:[edi],dx
63 110 ---
   0:   3f                      aas    
   1:   6e                      outs   dx,BYTE PTR ds:[esi]
63 111 ---
   0:   3f                      aas    
   1:   6f                      outs   dx,DWORD PTR ds:[esi]
63 112 ---
   0:   3f                      aas    
   1:   70                      .byte 0x70
63 113 ---
   0:   3f                      aas    
   1:   71                      .byte 0x71
63 114 ---
   0:   3f                      aas    
   1:   72                      .byte 0x72
63 115 ---
   0:   3f                      aas    
   1:   73                      .byte 0x73
63 116 ---
   0:   3f                      aas    
   1:   74                      .byte 0x74
63 117 ---
   0:   3f                      aas    
   1:   75                      .byte 0x75
63 118 ---
   0:   3f                      aas    
   1:   76                      .byte 0x76
63 119 ---
   0:   3f                      aas    
   1:   77                      .byte 0x77
63 120 ---
   0:   3f                      aas    
   1:   78                      .byte 0x78
63 121 ---
   0:   3f                      aas    
   1:   79                      .byte 0x79
63 122 ---
   0:   3f                      aas    
   1:   7a                      .byte 0x7a
63 123 ---
   0:   3f                      aas    
   1:   7b                      .byte 0x7b
63 124 ---
   0:   3f                      aas    
   1:   7c                      .byte 0x7c
63 125 ---
   0:   3f                      aas    
   1:   7d                      .byte 0x7d
63 126 ---
   0:   3f                      aas    
   1:   7e                      .byte 0x7e
64 32 ---
   0:   40                      inc    eax
   1:   20                      .byte 0x20
64 33 ---
   0:   40                      inc    eax
   1:   21                      .byte 0x21
64 34 ---
   0:   40                      inc    eax
   1:   22                      .byte 0x22
64 35 ---
   0:   40                      inc    eax
   1:   23                      .byte 0x23
64 36 ---
   0:   40                      inc    eax
   1:   24                      .byte 0x24
64 37 ---
   0:   40                      inc    eax
   1:   25                      .byte 0x25
64 38 ---
   0:   40                      inc    eax
   1:   26                      es
64 39 ---
   0:   40                      inc    eax
   1:   27                      daa
64 40 ---
   0:   40                      inc    eax
   1:   28                      .byte 0x28
64 41 ---
   0:   40                      inc    eax
   1:   29                      .byte 0x29
64 42 ---
   0:   40                      inc    eax
   1:   2a                      .byte 0x2a
64 43 ---
   0:   40                      inc    eax
   1:   2b                      .byte 0x2b
64 44 ---
   0:   40                      inc    eax
   1:   2c                      .byte 0x2c
64 45 ---
   0:   40                      inc    eax
   1:   2d                      .byte 0x2d
64 46 ---
   0:   40                      inc    eax
   1:   2e                      cs
64 47 ---
   0:   40                      inc    eax
   1:   2f                      das
64 48 ---
   0:   40                      inc    eax
   1:   30                      .byte 0x30
64 49 ---
   0:   40                      inc    eax
   1:   31                      .byte 0x31
64 50 ---
   0:   40                      inc    eax
   1:   32                      .byte 0x32
64 51 ---
   0:   40                      inc    eax
   1:   33                      .byte 0x33
64 52 ---
   0:   40                      inc    eax
   1:   34                      .byte 0x34
64 53 ---
   0:   40                      inc    eax
   1:   35                      .byte 0x35
64 54 ---
   0:   40                      inc    eax
   1:   36                      ss
64 55 ---
   0:   40                      inc    eax
   1:   37                      aaa
64 56 ---
   0:   40                      inc    eax
   1:   38                      .byte 0x38
64 57 ---
   0:   40                      inc    eax
   1:   39                      .byte 0x39
64 58 ---
   0:   40                      inc    eax
   1:   3a                      .byte 0x3a
64 59 ---
   0:   40                      inc    eax
   1:   3b                      .byte 0x3b
64 60 ---
   0:   40                      inc    eax
   1:   3c                      .byte 0x3c
64 61 ---
   0:   40                      inc    eax
   1:   3d                      .byte 0x3d
64 62 ---
   0:   40                      inc    eax
   1:   3e                      ds
64 63 ---
   0:   40                      inc    eax
   1:   3f                      aas
64 64 ---
   0:   40                      inc    eax
   1:   40                      inc    eax
64 65 ---
   0:   40                      inc    eax
   1:   41                      inc    ecx
64 66 ---
   0:   40                      inc    eax
   1:   42                      inc    edx
64 67 ---
   0:   40                      inc    eax
   1:   43                      inc    ebx
64 68 ---
   0:   40                      inc    eax
   1:   44                      inc    esp
64 69 ---
   0:   40                      inc    eax
   1:   45                      inc    ebp
64 70 ---
   0:   40                      inc    eax
   1:   46                      inc    esi
64 71 ---
   0:   40                      inc    eax
   1:   47                      inc    edi
64 72 ---
   0:   40                      inc    eax
   1:   48                      dec    eax
64 73 ---
   0:   40                      inc    eax
   1:   49                      dec    ecx
64 74 ---
   0:   40                      inc    eax
   1:   4a                      dec    edx
64 75 ---
   0:   40                      inc    eax
   1:   4b                      dec    ebx
64 76 ---
   0:   40                      inc    eax
   1:   4c                      dec    esp
64 77 ---
   0:   40                      inc    eax
   1:   4d                      dec    ebp
64 78 ---
   0:   40                      inc    eax
   1:   4e                      dec    esi
64 79 ---
   0:   40                      inc    eax
   1:   4f                      dec    edi
64 80 ---
   0:   40                      inc    eax
   1:   50                      push   eax
64 81 ---
   0:   40                      inc    eax
   1:   51                      push   ecx
64 82 ---
   0:   40                      inc    eax
   1:   52                      push   edx
64 83 ---
   0:   40                      inc    eax
   1:   53                      push   ebx
64 84 ---
   0:   40                      inc    eax
   1:   54                      push   esp
64 85 ---
   0:   40                      inc    eax
   1:   55                      push   ebp
64 86 ---
   0:   40                      inc    eax
   1:   56                      push   esi
64 87 ---
   0:   40                      inc    eax
   1:   57                      push   edi
64 88 ---
   0:   40                      inc    eax
   1:   58                      pop    eax
64 89 ---
   0:   40                      inc    eax
   1:   59                      pop    ecx
64 90 ---
   0:   40                      inc    eax
   1:   5a                      pop    edx
64 91 ---
   0:   40                      inc    eax
   1:   5b                      pop    ebx
64 92 ---
   0:   40                      inc    eax
   1:   5c                      pop    esp
64 93 ---
   0:   40                      inc    eax
   1:   5d                      pop    ebp
64 94 ---
   0:   40                      inc    eax
   1:   5e                      pop    esi
64 95 ---
   0:   40                      inc    eax
   1:   5f                      pop    edi
64 96 ---
   0:   40                      inc    eax
   1:   60                      pusha
64 97 ---
   0:   40                      inc    eax
   1:   61                      popa
64 98 ---
   0:   40                      inc    eax
   1:   62                      .byte 0x62
64 99 ---
   0:   40                      inc    eax
   1:   63                      .byte 0x63
64 100 ---
   0:   40                      inc    eax
   1:   64                      fs
64 101 ---
   0:   40                      inc    eax
   1:   65                      gs
64 102 ---
   0:   40                      inc    eax
   1:   66                      data16
64 103 ---
   0:   40                      inc    eax
   1:   67                      addr16
64 104 ---
   0:   40                      inc    eax
   1:   68                      .byte 0x68
64 105 ---
   0:   40                      inc    eax
   1:   69                      .byte 0x69
64 106 ---
   0:   40                      inc    eax
   1:   6a                      .byte 0x6a
64 107 ---
   0:   40                      inc    eax
   1:   6b                      .byte 0x6b
64 108 ---
   0:   40                      inc    eax
   1:   6c                      ins    BYTE PTR es:[edi],dx
64 109 ---
   0:   40                      inc    eax
   1:   6d                      ins    DWORD PTR es:[edi],dx
64 110 ---
   0:   40                      inc    eax
   1:   6e                      outs   dx,BYTE PTR ds:[esi]
64 111 ---
   0:   40                      inc    eax
   1:   6f                      outs   dx,DWORD PTR ds:[esi]
64 112 ---
   0:   40                      inc    eax
   1:   70                      .byte 0x70
64 113 ---
   0:   40                      inc    eax
   1:   71                      .byte 0x71
64 114 ---
   0:   40                      inc    eax
   1:   72                      .byte 0x72
64 115 ---
   0:   40                      inc    eax
   1:   73                      .byte 0x73
64 116 ---
   0:   40                      inc    eax
   1:   74                      .byte 0x74
64 117 ---
   0:   40                      inc    eax
   1:   75                      .byte 0x75
64 118 ---
   0:   40                      inc    eax
   1:   76                      .byte 0x76
64 119 ---
   0:   40                      inc    eax
   1:   77                      .byte 0x77
64 120 ---
   0:   40                      inc    eax
   1:   78                      .byte 0x78
64 121 ---
   0:   40                      inc    eax
   1:   79                      .byte 0x79
64 122 ---
   0:   40                      inc    eax
   1:   7a                      .byte 0x7a
64 123 ---
   0:   40                      inc    eax
   1:   7b                      .byte 0x7b
64 124 ---
   0:   40                      inc    eax
   1:   7c                      .byte 0x7c
64 125 ---
   0:   40                      inc    eax
   1:   7d                      .byte 0x7d
64 126 ---
   0:   40                      inc    eax
   1:   7e                      .byte 0x7e
65 32 ---
   0:   41                      inc    ecx
   1:   20                      .byte 0x20
65 33 ---
   0:   41                      inc    ecx
   1:   21                      .byte 0x21
65 34 ---
   0:   41                      inc    ecx
   1:   22                      .byte 0x22
65 35 ---
   0:   41                      inc    ecx
   1:   23                      .byte 0x23
65 36 ---
   0:   41                      inc    ecx
   1:   24                      .byte 0x24
65 37 ---
   0:   41                      inc    ecx
   1:   25                      .byte 0x25
65 38 ---
   0:   41                      inc    ecx
   1:   26                      es
65 39 ---
   0:   41                      inc    ecx
   1:   27                      daa
65 40 ---
   0:   41                      inc    ecx
   1:   28                      .byte 0x28
65 41 ---
   0:   41                      inc    ecx
   1:   29                      .byte 0x29
65 42 ---
   0:   41                      inc    ecx
   1:   2a                      .byte 0x2a
65 43 ---
   0:   41                      inc    ecx
   1:   2b                      .byte 0x2b
65 44 ---
   0:   41                      inc    ecx
   1:   2c                      .byte 0x2c
65 45 ---
   0:   41                      inc    ecx
   1:   2d                      .byte 0x2d
65 46 ---
   0:   41                      inc    ecx
   1:   2e                      cs
65 47 ---
   0:   41                      inc    ecx
   1:   2f                      das
65 48 ---
   0:   41                      inc    ecx
   1:   30                      .byte 0x30
65 49 ---
   0:   41                      inc    ecx
   1:   31                      .byte 0x31
65 50 ---
   0:   41                      inc    ecx
   1:   32                      .byte 0x32
65 51 ---
   0:   41                      inc    ecx
   1:   33                      .byte 0x33
65 52 ---
   0:   41                      inc    ecx
   1:   34                      .byte 0x34
65 53 ---
   0:   41                      inc    ecx
   1:   35                      .byte 0x35
65 54 ---
   0:   41                      inc    ecx
   1:   36                      ss
65 55 ---
   0:   41                      inc    ecx
   1:   37                      aaa
65 56 ---
   0:   41                      inc    ecx
   1:   38                      .byte 0x38
65 57 ---
   0:   41                      inc    ecx
   1:   39                      .byte 0x39
65 58 ---
   0:   41                      inc    ecx
   1:   3a                      .byte 0x3a
65 59 ---
   0:   41                      inc    ecx
   1:   3b                      .byte 0x3b
65 60 ---
   0:   41                      inc    ecx
   1:   3c                      .byte 0x3c
65 61 ---
   0:   41                      inc    ecx
   1:   3d                      .byte 0x3d
65 62 ---
   0:   41                      inc    ecx
   1:   3e                      ds
65 63 ---
   0:   41                      inc    ecx
   1:   3f                      aas
65 64 ---
   0:   41                      inc    ecx
   1:   40                      inc    eax
65 65 ---
   0:   41                      inc    ecx
   1:   41                      inc    ecx
65 66 ---
   0:   41                      inc    ecx
   1:   42                      inc    edx
65 67 ---
   0:   41                      inc    ecx
   1:   43                      inc    ebx
65 68 ---
   0:   41                      inc    ecx
   1:   44                      inc    esp
65 69 ---
   0:   41                      inc    ecx
   1:   45                      inc    ebp
65 70 ---
   0:   41                      inc    ecx
   1:   46                      inc    esi
65 71 ---
   0:   41                      inc    ecx
   1:   47                      inc    edi
65 72 ---
   0:   41                      inc    ecx
   1:   48                      dec    eax
65 73 ---
   0:   41                      inc    ecx
   1:   49                      dec    ecx
65 74 ---
   0:   41                      inc    ecx
   1:   4a                      dec    edx
65 75 ---
   0:   41                      inc    ecx
   1:   4b                      dec    ebx
65 76 ---
   0:   41                      inc    ecx
   1:   4c                      dec    esp
65 77 ---
   0:   41                      inc    ecx
   1:   4d                      dec    ebp
65 78 ---
   0:   41                      inc    ecx
   1:   4e                      dec    esi
65 79 ---
   0:   41                      inc    ecx
   1:   4f                      dec    edi
65 80 ---
   0:   41                      inc    ecx
   1:   50                      push   eax
65 81 ---
   0:   41                      inc    ecx
   1:   51                      push   ecx
65 82 ---
   0:   41                      inc    ecx
   1:   52                      push   edx
65 83 ---
   0:   41                      inc    ecx
   1:   53                      push   ebx
65 84 ---
   0:   41                      inc    ecx
   1:   54                      push   esp
65 85 ---
   0:   41                      inc    ecx
   1:   55                      push   ebp
65 86 ---
   0:   41                      inc    ecx
   1:   56                      push   esi
65 87 ---
   0:   41                      inc    ecx
   1:   57                      push   edi
65 88 ---
   0:   41                      inc    ecx
   1:   58                      pop    eax
65 89 ---
   0:   41                      inc    ecx
   1:   59                      pop    ecx
65 90 ---
   0:   41                      inc    ecx
   1:   5a                      pop    edx
65 91 ---
   0:   41                      inc    ecx
   1:   5b                      pop    ebx
65 92 ---
   0:   41                      inc    ecx
   1:   5c                      pop    esp
65 93 ---
   0:   41                      inc    ecx
   1:   5d                      pop    ebp
65 94 ---
   0:   41                      inc    ecx
   1:   5e                      pop    esi
65 95 ---
   0:   41                      inc    ecx
   1:   5f                      pop    edi
65 96 ---
   0:   41                      inc    ecx
   1:   60                      pusha
65 97 ---
   0:   41                      inc    ecx
   1:   61                      popa
65 98 ---
   0:   41                      inc    ecx
   1:   62                      .byte 0x62
65 99 ---
   0:   41                      inc    ecx
   1:   63                      .byte 0x63
65 100 ---
   0:   41                      inc    ecx
   1:   64                      fs
65 101 ---
   0:   41                      inc    ecx
   1:   65                      gs
65 102 ---
   0:   41                      inc    ecx
   1:   66                      data16
65 103 ---
   0:   41                      inc    ecx
   1:   67                      addr16
65 104 ---
   0:   41                      inc    ecx
   1:   68                      .byte 0x68
65 105 ---
   0:   41                      inc    ecx
   1:   69                      .byte 0x69
65 106 ---
   0:   41                      inc    ecx
   1:   6a                      .byte 0x6a
65 107 ---
   0:   41                      inc    ecx
   1:   6b                      .byte 0x6b
65 108 ---
   0:   41                      inc    ecx
   1:   6c                      ins    BYTE PTR es:[edi],dx
65 109 ---
   0:   41                      inc    ecx
   1:   6d                      ins    DWORD PTR es:[edi],dx
65 110 ---
   0:   41                      inc    ecx
   1:   6e                      outs   dx,BYTE PTR ds:[esi]
65 111 ---
   0:   41                      inc    ecx
   1:   6f                      outs   dx,DWORD PTR ds:[esi]
65 112 ---
   0:   41                      inc    ecx
   1:   70                      .byte 0x70
65 113 ---
   0:   41                      inc    ecx
   1:   71                      .byte 0x71
65 114 ---
   0:   41                      inc    ecx
   1:   72                      .byte 0x72
65 115 ---
   0:   41                      inc    ecx
   1:   73                      .byte 0x73
65 116 ---
   0:   41                      inc    ecx
   1:   74                      .byte 0x74
65 117 ---
   0:   41                      inc    ecx
   1:   75                      .byte 0x75
65 118 ---
   0:   41                      inc    ecx
   1:   76                      .byte 0x76
65 119 ---
   0:   41                      inc    ecx
   1:   77                      .byte 0x77
65 120 ---
   0:   41                      inc    ecx
   1:   78                      .byte 0x78
65 121 ---
   0:   41                      inc    ecx
   1:   79                      .byte 0x79
65 122 ---
   0:   41                      inc    ecx
   1:   7a                      .byte 0x7a
65 123 ---
   0:   41                      inc    ecx
   1:   7b                      .byte 0x7b
65 124 ---
   0:   41                      inc    ecx
   1:   7c                      .byte 0x7c
65 125 ---
   0:   41                      inc    ecx
   1:   7d                      .byte 0x7d
65 126 ---
   0:   41                      inc    ecx
   1:   7e                      .byte 0x7e
66 32 ---
   0:   42                      inc    edx
   1:   20                      .byte 0x20
66 33 ---
   0:   42                      inc    edx
   1:   21                      .byte 0x21
66 34 ---
   0:   42                      inc    edx
   1:   22                      .byte 0x22
66 35 ---
   0:   42                      inc    edx
   1:   23                      .byte 0x23
66 36 ---
   0:   42                      inc    edx
   1:   24                      .byte 0x24
66 37 ---
   0:   42                      inc    edx
   1:   25                      .byte 0x25
66 38 ---
   0:   42                      inc    edx
   1:   26                      es
66 39 ---
   0:   42                      inc    edx
   1:   27                      daa
66 40 ---
   0:   42                      inc    edx
   1:   28                      .byte 0x28
66 41 ---
   0:   42                      inc    edx
   1:   29                      .byte 0x29
66 42 ---
   0:   42                      inc    edx
   1:   2a                      .byte 0x2a
66 43 ---
   0:   42                      inc    edx
   1:   2b                      .byte 0x2b
66 44 ---
   0:   42                      inc    edx
   1:   2c                      .byte 0x2c
66 45 ---
   0:   42                      inc    edx
   1:   2d                      .byte 0x2d
66 46 ---
   0:   42                      inc    edx
   1:   2e                      cs
66 47 ---
   0:   42                      inc    edx
   1:   2f                      das
66 48 ---
   0:   42                      inc    edx
   1:   30                      .byte 0x30
66 49 ---
   0:   42                      inc    edx
   1:   31                      .byte 0x31
66 50 ---
   0:   42                      inc    edx
   1:   32                      .byte 0x32
66 51 ---
   0:   42                      inc    edx
   1:   33                      .byte 0x33
66 52 ---
   0:   42                      inc    edx
   1:   34                      .byte 0x34
66 53 ---
   0:   42                      inc    edx
   1:   35                      .byte 0x35
66 54 ---
   0:   42                      inc    edx
   1:   36                      ss
66 55 ---
   0:   42                      inc    edx
   1:   37                      aaa
66 56 ---
   0:   42                      inc    edx
   1:   38                      .byte 0x38
66 57 ---
   0:   42                      inc    edx
   1:   39                      .byte 0x39
66 58 ---
   0:   42                      inc    edx
   1:   3a                      .byte 0x3a
66 59 ---
   0:   42                      inc    edx
   1:   3b                      .byte 0x3b
66 60 ---
   0:   42                      inc    edx
   1:   3c                      .byte 0x3c
66 61 ---
   0:   42                      inc    edx
   1:   3d                      .byte 0x3d
66 62 ---
   0:   42                      inc    edx
   1:   3e                      ds
66 63 ---
   0:   42                      inc    edx
   1:   3f                      aas
66 64 ---
   0:   42                      inc    edx
   1:   40                      inc    eax
66 65 ---
   0:   42                      inc    edx
   1:   41                      inc    ecx
66 66 ---
   0:   42                      inc    edx
   1:   42                      inc    edx
66 67 ---
   0:   42                      inc    edx
   1:   43                      inc    ebx
66 68 ---
   0:   42                      inc    edx
   1:   44                      inc    esp
66 69 ---
   0:   42                      inc    edx
   1:   45                      inc    ebp
66 70 ---
   0:   42                      inc    edx
   1:   46                      inc    esi
66 71 ---
   0:   42                      inc    edx
   1:   47                      inc    edi
66 72 ---
   0:   42                      inc    edx
   1:   48                      dec    eax
66 73 ---
   0:   42                      inc    edx
   1:   49                      dec    ecx
66 74 ---
   0:   42                      inc    edx
   1:   4a                      dec    edx
66 75 ---
   0:   42                      inc    edx
   1:   4b                      dec    ebx
66 76 ---
   0:   42                      inc    edx
   1:   4c                      dec    esp
66 77 ---
   0:   42                      inc    edx
   1:   4d                      dec    ebp
66 78 ---
   0:   42                      inc    edx
   1:   4e                      dec    esi
66 79 ---
   0:   42                      inc    edx
   1:   4f                      dec    edi
66 80 ---
   0:   42                      inc    edx
   1:   50                      push   eax
66 81 ---
   0:   42                      inc    edx
   1:   51                      push   ecx
66 82 ---
   0:   42                      inc    edx
   1:   52                      push   edx
66 83 ---
   0:   42                      inc    edx
   1:   53                      push   ebx
66 84 ---
   0:   42                      inc    edx
   1:   54                      push   esp
66 85 ---
   0:   42                      inc    edx
   1:   55                      push   ebp
66 86 ---
   0:   42                      inc    edx
   1:   56                      push   esi
66 87 ---
   0:   42                      inc    edx
   1:   57                      push   edi
66 88 ---
   0:   42                      inc    edx
   1:   58                      pop    eax
66 89 ---
   0:   42                      inc    edx
   1:   59                      pop    ecx
66 90 ---
   0:   42                      inc    edx
   1:   5a                      pop    edx
66 91 ---
   0:   42                      inc    edx
   1:   5b                      pop    ebx
66 92 ---
   0:   42                      inc    edx
   1:   5c                      pop    esp
66 93 ---
   0:   42                      inc    edx
   1:   5d                      pop    ebp
66 94 ---
   0:   42                      inc    edx
   1:   5e                      pop    esi
66 95 ---
   0:   42                      inc    edx
   1:   5f                      pop    edi
66 96 ---
   0:   42                      inc    edx
   1:   60                      pusha
66 97 ---
   0:   42                      inc    edx
   1:   61                      popa
66 98 ---
   0:   42                      inc    edx
   1:   62                      .byte 0x62
66 99 ---
   0:   42                      inc    edx
   1:   63                      .byte 0x63
66 100 ---
   0:   42                      inc    edx
   1:   64                      fs
66 101 ---
   0:   42                      inc    edx
   1:   65                      gs
66 102 ---
   0:   42                      inc    edx
   1:   66                      data16
66 103 ---
   0:   42                      inc    edx
   1:   67                      addr16
66 104 ---
   0:   42                      inc    edx
   1:   68                      .byte 0x68
66 105 ---
   0:   42                      inc    edx
   1:   69                      .byte 0x69
66 106 ---
   0:   42                      inc    edx
   1:   6a                      .byte 0x6a
66 107 ---
   0:   42                      inc    edx
   1:   6b                      .byte 0x6b
66 108 ---
   0:   42                      inc    edx
   1:   6c                      ins    BYTE PTR es:[edi],dx
66 109 ---
   0:   42                      inc    edx
   1:   6d                      ins    DWORD PTR es:[edi],dx
66 110 ---
   0:   42                      inc    edx
   1:   6e                      outs   dx,BYTE PTR ds:[esi]
66 111 ---
   0:   42                      inc    edx
   1:   6f                      outs   dx,DWORD PTR ds:[esi]
66 112 ---
   0:   42                      inc    edx
   1:   70                      .byte 0x70
66 113 ---
   0:   42                      inc    edx
   1:   71                      .byte 0x71
66 114 ---
   0:   42                      inc    edx
   1:   72                      .byte 0x72
66 115 ---
   0:   42                      inc    edx
   1:   73                      .byte 0x73
66 116 ---
   0:   42                      inc    edx
   1:   74                      .byte 0x74
66 117 ---
   0:   42                      inc    edx
   1:   75                      .byte 0x75
66 118 ---
   0:   42                      inc    edx
   1:   76                      .byte 0x76
66 119 ---
   0:   42                      inc    edx
   1:   77                      .byte 0x77
66 120 ---
   0:   42                      inc    edx
   1:   78                      .byte 0x78
66 121 ---
   0:   42                      inc    edx
   1:   79                      .byte 0x79
66 122 ---
   0:   42                      inc    edx
   1:   7a                      .byte 0x7a
66 123 ---
   0:   42                      inc    edx
   1:   7b                      .byte 0x7b
66 124 ---
   0:   42                      inc    edx
   1:   7c                      .byte 0x7c
66 125 ---
   0:   42                      inc    edx
   1:   7d                      .byte 0x7d
66 126 ---
   0:   42                      inc    edx
   1:   7e                      .byte 0x7e
67 32 ---
   0:   43                      inc    ebx
   1:   20                      .byte 0x20
67 33 ---
   0:   43                      inc    ebx
   1:   21                      .byte 0x21
67 34 ---
   0:   43                      inc    ebx
   1:   22                      .byte 0x22
67 35 ---
   0:   43                      inc    ebx
   1:   23                      .byte 0x23
67 36 ---
   0:   43                      inc    ebx
   1:   24                      .byte 0x24
67 37 ---
   0:   43                      inc    ebx
   1:   25                      .byte 0x25
67 38 ---
   0:   43                      inc    ebx
   1:   26                      es
67 39 ---
   0:   43                      inc    ebx
   1:   27                      daa
67 40 ---
   0:   43                      inc    ebx
   1:   28                      .byte 0x28
67 41 ---
   0:   43                      inc    ebx
   1:   29                      .byte 0x29
67 42 ---
   0:   43                      inc    ebx
   1:   2a                      .byte 0x2a
67 43 ---
   0:   43                      inc    ebx
   1:   2b                      .byte 0x2b
67 44 ---
   0:   43                      inc    ebx
   1:   2c                      .byte 0x2c
67 45 ---
   0:   43                      inc    ebx
   1:   2d                      .byte 0x2d
67 46 ---
   0:   43                      inc    ebx
   1:   2e                      cs
67 47 ---
   0:   43                      inc    ebx
   1:   2f                      das
67 48 ---
   0:   43                      inc    ebx
   1:   30                      .byte 0x30
67 49 ---
   0:   43                      inc    ebx
   1:   31                      .byte 0x31
67 50 ---
   0:   43                      inc    ebx
   1:   32                      .byte 0x32
67 51 ---
   0:   43                      inc    ebx
   1:   33                      .byte 0x33
67 52 ---
   0:   43                      inc    ebx
   1:   34                      .byte 0x34
67 53 ---
   0:   43                      inc    ebx
   1:   35                      .byte 0x35
67 54 ---
   0:   43                      inc    ebx
   1:   36                      ss
67 55 ---
   0:   43                      inc    ebx
   1:   37                      aaa
67 56 ---
   0:   43                      inc    ebx
   1:   38                      .byte 0x38
67 57 ---
   0:   43                      inc    ebx
   1:   39                      .byte 0x39
67 58 ---
   0:   43                      inc    ebx
   1:   3a                      .byte 0x3a
67 59 ---
   0:   43                      inc    ebx
   1:   3b                      .byte 0x3b
67 60 ---
   0:   43                      inc    ebx
   1:   3c                      .byte 0x3c
67 61 ---
   0:   43                      inc    ebx
   1:   3d                      .byte 0x3d
67 62 ---
   0:   43                      inc    ebx
   1:   3e                      ds
67 63 ---
   0:   43                      inc    ebx
   1:   3f                      aas
67 64 ---
   0:   43                      inc    ebx
   1:   40                      inc    eax
67 65 ---
   0:   43                      inc    ebx
   1:   41                      inc    ecx
67 66 ---
   0:   43                      inc    ebx
   1:   42                      inc    edx
67 67 ---
   0:   43                      inc    ebx
   1:   43                      inc    ebx
67 68 ---
   0:   43                      inc    ebx
   1:   44                      inc    esp
67 69 ---
   0:   43                      inc    ebx
   1:   45                      inc    ebp
67 70 ---
   0:   43                      inc    ebx
   1:   46                      inc    esi
67 71 ---
   0:   43                      inc    ebx
   1:   47                      inc    edi
67 72 ---
   0:   43                      inc    ebx
   1:   48                      dec    eax
67 73 ---
   0:   43                      inc    ebx
   1:   49                      dec    ecx
67 74 ---
   0:   43                      inc    ebx
   1:   4a                      dec    edx
67 75 ---
   0:   43                      inc    ebx
   1:   4b                      dec    ebx
67 76 ---
   0:   43                      inc    ebx
   1:   4c                      dec    esp
67 77 ---
   0:   43                      inc    ebx
   1:   4d                      dec    ebp
67 78 ---
   0:   43                      inc    ebx
   1:   4e                      dec    esi
67 79 ---
   0:   43                      inc    ebx
   1:   4f                      dec    edi
67 80 ---
   0:   43                      inc    ebx
   1:   50                      push   eax
67 81 ---
   0:   43                      inc    ebx
   1:   51                      push   ecx
67 82 ---
   0:   43                      inc    ebx
   1:   52                      push   edx
67 83 ---
   0:   43                      inc    ebx
   1:   53                      push   ebx
67 84 ---
   0:   43                      inc    ebx
   1:   54                      push   esp
67 85 ---
   0:   43                      inc    ebx
   1:   55                      push   ebp
67 86 ---
   0:   43                      inc    ebx
   1:   56                      push   esi
67 87 ---
   0:   43                      inc    ebx
   1:   57                      push   edi
67 88 ---
   0:   43                      inc    ebx
   1:   58                      pop    eax
67 89 ---
   0:   43                      inc    ebx
   1:   59                      pop    ecx
67 90 ---
   0:   43                      inc    ebx
   1:   5a                      pop    edx
67 91 ---
   0:   43                      inc    ebx
   1:   5b                      pop    ebx
67 92 ---
   0:   43                      inc    ebx
   1:   5c                      pop    esp
67 93 ---
   0:   43                      inc    ebx
   1:   5d                      pop    ebp
67 94 ---
   0:   43                      inc    ebx
   1:   5e                      pop    esi
67 95 ---
   0:   43                      inc    ebx
   1:   5f                      pop    edi
67 96 ---
   0:   43                      inc    ebx
   1:   60                      pusha
67 97 ---
   0:   43                      inc    ebx
   1:   61                      popa
67 98 ---
   0:   43                      inc    ebx
   1:   62                      .byte 0x62
67 99 ---
   0:   43                      inc    ebx
   1:   63                      .byte 0x63
67 100 ---
   0:   43                      inc    ebx
   1:   64                      fs
67 101 ---
   0:   43                      inc    ebx
   1:   65                      gs
67 102 ---
   0:   43                      inc    ebx
   1:   66                      data16
67 103 ---
   0:   43                      inc    ebx
   1:   67                      addr16
67 104 ---
   0:   43                      inc    ebx
   1:   68                      .byte 0x68
67 105 ---
   0:   43                      inc    ebx
   1:   69                      .byte 0x69
67 106 ---
   0:   43                      inc    ebx
   1:   6a                      .byte 0x6a
67 107 ---
   0:   43                      inc    ebx
   1:   6b                      .byte 0x6b
67 108 ---
   0:   43                      inc    ebx
   1:   6c                      ins    BYTE PTR es:[edi],dx
67 109 ---
   0:   43                      inc    ebx
   1:   6d                      ins    DWORD PTR es:[edi],dx
67 110 ---
   0:   43                      inc    ebx
   1:   6e                      outs   dx,BYTE PTR ds:[esi]
67 111 ---
   0:   43                      inc    ebx
   1:   6f                      outs   dx,DWORD PTR ds:[esi]
67 112 ---
   0:   43                      inc    ebx
   1:   70                      .byte 0x70
67 113 ---
   0:   43                      inc    ebx
   1:   71                      .byte 0x71
67 114 ---
   0:   43                      inc    ebx
   1:   72                      .byte 0x72
67 115 ---
   0:   43                      inc    ebx
   1:   73                      .byte 0x73
67 116 ---
   0:   43                      inc    ebx
   1:   74                      .byte 0x74
67 117 ---
   0:   43                      inc    ebx
   1:   75                      .byte 0x75
67 118 ---
   0:   43                      inc    ebx
   1:   76                      .byte 0x76
67 119 ---
   0:   43                      inc    ebx
   1:   77                      .byte 0x77
67 120 ---
   0:   43                      inc    ebx
   1:   78                      .byte 0x78
67 121 ---
   0:   43                      inc    ebx
   1:   79                      .byte 0x79
67 122 ---
   0:   43                      inc    ebx
   1:   7a                      .byte 0x7a
67 123 ---
   0:   43                      inc    ebx
   1:   7b                      .byte 0x7b
67 124 ---
   0:   43                      inc    ebx
   1:   7c                      .byte 0x7c
67 125 ---
   0:   43                      inc    ebx
   1:   7d                      .byte 0x7d
67 126 ---
   0:   43                      inc    ebx
   1:   7e                      .byte 0x7e
68 32 ---
   0:   44                      inc    esp
   1:   20                      .byte 0x20
68 33 ---
   0:   44                      inc    esp
   1:   21                      .byte 0x21
68 34 ---
   0:   44                      inc    esp
   1:   22                      .byte 0x22
68 35 ---
   0:   44                      inc    esp
   1:   23                      .byte 0x23
68 36 ---
   0:   44                      inc    esp
   1:   24                      .byte 0x24
68 37 ---
   0:   44                      inc    esp
   1:   25                      .byte 0x25
68 38 ---
   0:   44                      inc    esp
   1:   26                      es
68 39 ---
   0:   44                      inc    esp
   1:   27                      daa
68 40 ---
   0:   44                      inc    esp
   1:   28                      .byte 0x28
68 41 ---
   0:   44                      inc    esp
   1:   29                      .byte 0x29
68 42 ---
   0:   44                      inc    esp
   1:   2a                      .byte 0x2a
68 43 ---
   0:   44                      inc    esp
   1:   2b                      .byte 0x2b
68 44 ---
   0:   44                      inc    esp
   1:   2c                      .byte 0x2c
68 45 ---
   0:   44                      inc    esp
   1:   2d                      .byte 0x2d
68 46 ---
   0:   44                      inc    esp
   1:   2e                      cs
68 47 ---
   0:   44                      inc    esp
   1:   2f                      das
68 48 ---
   0:   44                      inc    esp
   1:   30                      .byte 0x30
68 49 ---
   0:   44                      inc    esp
   1:   31                      .byte 0x31
68 50 ---
   0:   44                      inc    esp
   1:   32                      .byte 0x32
68 51 ---
   0:   44                      inc    esp
   1:   33                      .byte 0x33
68 52 ---
   0:   44                      inc    esp
   1:   34                      .byte 0x34
68 53 ---
   0:   44                      inc    esp
   1:   35                      .byte 0x35
68 54 ---
   0:   44                      inc    esp
   1:   36                      ss
68 55 ---
   0:   44                      inc    esp
   1:   37                      aaa
68 56 ---
   0:   44                      inc    esp
   1:   38                      .byte 0x38
68 57 ---
   0:   44                      inc    esp
   1:   39                      .byte 0x39
68 58 ---
   0:   44                      inc    esp
   1:   3a                      .byte 0x3a
68 59 ---
   0:   44                      inc    esp
   1:   3b                      .byte 0x3b
68 60 ---
   0:   44                      inc    esp
   1:   3c                      .byte 0x3c
68 61 ---
   0:   44                      inc    esp
   1:   3d                      .byte 0x3d
68 62 ---
   0:   44                      inc    esp
   1:   3e                      ds
68 63 ---
   0:   44                      inc    esp
   1:   3f                      aas
68 64 ---
   0:   44                      inc    esp
   1:   40                      inc    eax
68 65 ---
   0:   44                      inc    esp
   1:   41                      inc    ecx
68 66 ---
   0:   44                      inc    esp
   1:   42                      inc    edx
68 67 ---
   0:   44                      inc    esp
   1:   43                      inc    ebx
68 68 ---
   0:   44                      inc    esp
   1:   44                      inc    esp
68 69 ---
   0:   44                      inc    esp
   1:   45                      inc    ebp
68 70 ---
   0:   44                      inc    esp
   1:   46                      inc    esi
68 71 ---
   0:   44                      inc    esp
   1:   47                      inc    edi
68 72 ---
   0:   44                      inc    esp
   1:   48                      dec    eax
68 73 ---
   0:   44                      inc    esp
   1:   49                      dec    ecx
68 74 ---
   0:   44                      inc    esp
   1:   4a                      dec    edx
68 75 ---
   0:   44                      inc    esp
   1:   4b                      dec    ebx
68 76 ---
   0:   44                      inc    esp
   1:   4c                      dec    esp
68 77 ---
   0:   44                      inc    esp
   1:   4d                      dec    ebp
68 78 ---
   0:   44                      inc    esp
   1:   4e                      dec    esi
68 79 ---
   0:   44                      inc    esp
   1:   4f                      dec    edi
68 80 ---
   0:   44                      inc    esp
   1:   50                      push   eax
68 81 ---
   0:   44                      inc    esp
   1:   51                      push   ecx
68 82 ---
   0:   44                      inc    esp
   1:   52                      push   edx
68 83 ---
   0:   44                      inc    esp
   1:   53                      push   ebx
68 84 ---
   0:   44                      inc    esp
   1:   54                      push   esp
68 85 ---
   0:   44                      inc    esp
   1:   55                      push   ebp
68 86 ---
   0:   44                      inc    esp
   1:   56                      push   esi
68 87 ---
   0:   44                      inc    esp
   1:   57                      push   edi
68 88 ---
   0:   44                      inc    esp
   1:   58                      pop    eax
68 89 ---
   0:   44                      inc    esp
   1:   59                      pop    ecx
68 90 ---
   0:   44                      inc    esp
   1:   5a                      pop    edx
68 91 ---
   0:   44                      inc    esp
   1:   5b                      pop    ebx
68 92 ---
   0:   44                      inc    esp
   1:   5c                      pop    esp
68 93 ---
   0:   44                      inc    esp
   1:   5d                      pop    ebp
68 94 ---
   0:   44                      inc    esp
   1:   5e                      pop    esi
68 95 ---
   0:   44                      inc    esp
   1:   5f                      pop    edi
68 96 ---
   0:   44                      inc    esp
   1:   60                      pusha
68 97 ---
   0:   44                      inc    esp
   1:   61                      popa
68 98 ---
   0:   44                      inc    esp
   1:   62                      .byte 0x62
68 99 ---
   0:   44                      inc    esp
   1:   63                      .byte 0x63
68 100 ---
   0:   44                      inc    esp
   1:   64                      fs
68 101 ---
   0:   44                      inc    esp
   1:   65                      gs
68 102 ---
   0:   44                      inc    esp
   1:   66                      data16
68 103 ---
   0:   44                      inc    esp
   1:   67                      addr16
68 104 ---
   0:   44                      inc    esp
   1:   68                      .byte 0x68
68 105 ---
   0:   44                      inc    esp
   1:   69                      .byte 0x69
68 106 ---
   0:   44                      inc    esp
   1:   6a                      .byte 0x6a
68 107 ---
   0:   44                      inc    esp
   1:   6b                      .byte 0x6b
68 108 ---
   0:   44                      inc    esp
   1:   6c                      ins    BYTE PTR es:[edi],dx
68 109 ---
   0:   44                      inc    esp
   1:   6d                      ins    DWORD PTR es:[edi],dx
68 110 ---
   0:   44                      inc    esp
   1:   6e                      outs   dx,BYTE PTR ds:[esi]
68 111 ---
   0:   44                      inc    esp
   1:   6f                      outs   dx,DWORD PTR ds:[esi]
68 112 ---
   0:   44                      inc    esp
   1:   70                      .byte 0x70
68 113 ---
   0:   44                      inc    esp
   1:   71                      .byte 0x71
68 114 ---
   0:   44                      inc    esp
   1:   72                      .byte 0x72
68 115 ---
   0:   44                      inc    esp
   1:   73                      .byte 0x73
68 116 ---
   0:   44                      inc    esp
   1:   74                      .byte 0x74
68 117 ---
   0:   44                      inc    esp
   1:   75                      .byte 0x75
68 118 ---
   0:   44                      inc    esp
   1:   76                      .byte 0x76
68 119 ---
   0:   44                      inc    esp
   1:   77                      .byte 0x77
68 120 ---
   0:   44                      inc    esp
   1:   78                      .byte 0x78
68 121 ---
   0:   44                      inc    esp
   1:   79                      .byte 0x79
68 122 ---
   0:   44                      inc    esp
   1:   7a                      .byte 0x7a
68 123 ---
   0:   44                      inc    esp
   1:   7b                      .byte 0x7b
68 124 ---
   0:   44                      inc    esp
   1:   7c                      .byte 0x7c
68 125 ---
   0:   44                      inc    esp
   1:   7d                      .byte 0x7d
68 126 ---
   0:   44                      inc    esp
   1:   7e                      .byte 0x7e
69 32 ---
   0:   45                      inc    ebp
   1:   20                      .byte 0x20
69 33 ---
   0:   45                      inc    ebp
   1:   21                      .byte 0x21
69 34 ---
   0:   45                      inc    ebp
   1:   22                      .byte 0x22
69 35 ---
   0:   45                      inc    ebp
   1:   23                      .byte 0x23
69 36 ---
   0:   45                      inc    ebp
   1:   24                      .byte 0x24
69 37 ---
   0:   45                      inc    ebp
   1:   25                      .byte 0x25
69 38 ---
   0:   45                      inc    ebp
   1:   26                      es
69 39 ---
   0:   45                      inc    ebp
   1:   27                      daa
69 40 ---
   0:   45                      inc    ebp
   1:   28                      .byte 0x28
69 41 ---
   0:   45                      inc    ebp
   1:   29                      .byte 0x29
69 42 ---
   0:   45                      inc    ebp
   1:   2a                      .byte 0x2a
69 43 ---
   0:   45                      inc    ebp
   1:   2b                      .byte 0x2b
69 44 ---
   0:   45                      inc    ebp
   1:   2c                      .byte 0x2c
69 45 ---
   0:   45                      inc    ebp
   1:   2d                      .byte 0x2d
69 46 ---
   0:   45                      inc    ebp
   1:   2e                      cs
69 47 ---
   0:   45                      inc    ebp
   1:   2f                      das
69 48 ---
   0:   45                      inc    ebp
   1:   30                      .byte 0x30
69 49 ---
   0:   45                      inc    ebp
   1:   31                      .byte 0x31
69 50 ---
   0:   45                      inc    ebp
   1:   32                      .byte 0x32
69 51 ---
   0:   45                      inc    ebp
   1:   33                      .byte 0x33
69 52 ---
   0:   45                      inc    ebp
   1:   34                      .byte 0x34
69 53 ---
   0:   45                      inc    ebp
   1:   35                      .byte 0x35
69 54 ---
   0:   45                      inc    ebp
   1:   36                      ss
69 55 ---
   0:   45                      inc    ebp
   1:   37                      aaa
69 56 ---
   0:   45                      inc    ebp
   1:   38                      .byte 0x38
69 57 ---
   0:   45                      inc    ebp
   1:   39                      .byte 0x39
69 58 ---
   0:   45                      inc    ebp
   1:   3a                      .byte 0x3a
69 59 ---
   0:   45                      inc    ebp
   1:   3b                      .byte 0x3b
69 60 ---
   0:   45                      inc    ebp
   1:   3c                      .byte 0x3c
69 61 ---
   0:   45                      inc    ebp
   1:   3d                      .byte 0x3d
69 62 ---
   0:   45                      inc    ebp
   1:   3e                      ds
69 63 ---
   0:   45                      inc    ebp
   1:   3f                      aas
69 64 ---
   0:   45                      inc    ebp
   1:   40                      inc    eax
69 65 ---
   0:   45                      inc    ebp
   1:   41                      inc    ecx
69 66 ---
   0:   45                      inc    ebp
   1:   42                      inc    edx
69 67 ---
   0:   45                      inc    ebp
   1:   43                      inc    ebx
69 68 ---
   0:   45                      inc    ebp
   1:   44                      inc    esp
69 69 ---
   0:   45                      inc    ebp
   1:   45                      inc    ebp
69 70 ---
   0:   45                      inc    ebp
   1:   46                      inc    esi
69 71 ---
   0:   45                      inc    ebp
   1:   47                      inc    edi
69 72 ---
   0:   45                      inc    ebp
   1:   48                      dec    eax
69 73 ---
   0:   45                      inc    ebp
   1:   49                      dec    ecx
69 74 ---
   0:   45                      inc    ebp
   1:   4a                      dec    edx
69 75 ---
   0:   45                      inc    ebp
   1:   4b                      dec    ebx
69 76 ---
   0:   45                      inc    ebp
   1:   4c                      dec    esp
69 77 ---
   0:   45                      inc    ebp
   1:   4d                      dec    ebp
69 78 ---
   0:   45                      inc    ebp
   1:   4e                      dec    esi
69 79 ---
   0:   45                      inc    ebp
   1:   4f                      dec    edi
69 80 ---
   0:   45                      inc    ebp
   1:   50                      push   eax
69 81 ---
   0:   45                      inc    ebp
   1:   51                      push   ecx
69 82 ---
   0:   45                      inc    ebp
   1:   52                      push   edx
69 83 ---
   0:   45                      inc    ebp
   1:   53                      push   ebx
69 84 ---
   0:   45                      inc    ebp
   1:   54                      push   esp
69 85 ---
   0:   45                      inc    ebp
   1:   55                      push   ebp
69 86 ---
   0:   45                      inc    ebp
   1:   56                      push   esi
69 87 ---
   0:   45                      inc    ebp
   1:   57                      push   edi
69 88 ---
   0:   45                      inc    ebp
   1:   58                      pop    eax
69 89 ---
   0:   45                      inc    ebp
   1:   59                      pop    ecx
69 90 ---
   0:   45                      inc    ebp
   1:   5a                      pop    edx
69 91 ---
   0:   45                      inc    ebp
   1:   5b                      pop    ebx
69 92 ---
   0:   45                      inc    ebp
   1:   5c                      pop    esp
69 93 ---
   0:   45                      inc    ebp
   1:   5d                      pop    ebp
69 94 ---
   0:   45                      inc    ebp
   1:   5e                      pop    esi
69 95 ---
   0:   45                      inc    ebp
   1:   5f                      pop    edi
69 96 ---
   0:   45                      inc    ebp
   1:   60                      pusha
69 97 ---
   0:   45                      inc    ebp
   1:   61                      popa
69 98 ---
   0:   45                      inc    ebp
   1:   62                      .byte 0x62
69 99 ---
   0:   45                      inc    ebp
   1:   63                      .byte 0x63
69 100 ---
   0:   45                      inc    ebp
   1:   64                      fs
69 101 ---
   0:   45                      inc    ebp
   1:   65                      gs
69 102 ---
   0:   45                      inc    ebp
   1:   66                      data16
69 103 ---
   0:   45                      inc    ebp
   1:   67                      addr16
69 104 ---
   0:   45                      inc    ebp
   1:   68                      .byte 0x68
69 105 ---
   0:   45                      inc    ebp
   1:   69                      .byte 0x69
69 106 ---
   0:   45                      inc    ebp
   1:   6a                      .byte 0x6a
69 107 ---
   0:   45                      inc    ebp
   1:   6b                      .byte 0x6b
69 108 ---
   0:   45                      inc    ebp
   1:   6c                      ins    BYTE PTR es:[edi],dx
69 109 ---
   0:   45                      inc    ebp
   1:   6d                      ins    DWORD PTR es:[edi],dx
69 110 ---
   0:   45                      inc    ebp
   1:   6e                      outs   dx,BYTE PTR ds:[esi]
69 111 ---
   0:   45                      inc    ebp
   1:   6f                      outs   dx,DWORD PTR ds:[esi]
69 112 ---
   0:   45                      inc    ebp
   1:   70                      .byte 0x70
69 113 ---
   0:   45                      inc    ebp
   1:   71                      .byte 0x71
69 114 ---
   0:   45                      inc    ebp
   1:   72                      .byte 0x72
69 115 ---
   0:   45                      inc    ebp
   1:   73                      .byte 0x73
69 116 ---
   0:   45                      inc    ebp
   1:   74                      .byte 0x74
69 117 ---
   0:   45                      inc    ebp
   1:   75                      .byte 0x75
69 118 ---
   0:   45                      inc    ebp
   1:   76                      .byte 0x76
69 119 ---
   0:   45                      inc    ebp
   1:   77                      .byte 0x77
69 120 ---
   0:   45                      inc    ebp
   1:   78                      .byte 0x78
69 121 ---
   0:   45                      inc    ebp
   1:   79                      .byte 0x79
69 122 ---
   0:   45                      inc    ebp
   1:   7a                      .byte 0x7a
69 123 ---
   0:   45                      inc    ebp
   1:   7b                      .byte 0x7b
69 124 ---
   0:   45                      inc    ebp
   1:   7c                      .byte 0x7c
69 125 ---
   0:   45                      inc    ebp
   1:   7d                      .byte 0x7d
69 126 ---
   0:   45                      inc    ebp
   1:   7e                      .byte 0x7e
70 32 ---
   0:   46                      inc    esi
   1:   20                      .byte 0x20
70 33 ---
   0:   46                      inc    esi
   1:   21                      .byte 0x21
70 34 ---
   0:   46                      inc    esi
   1:   22                      .byte 0x22
70 35 ---
   0:   46                      inc    esi
   1:   23                      .byte 0x23
70 36 ---
   0:   46                      inc    esi
   1:   24                      .byte 0x24
70 37 ---
   0:   46                      inc    esi
   1:   25                      .byte 0x25
70 38 ---
   0:   46                      inc    esi
   1:   26                      es
70 39 ---
   0:   46                      inc    esi
   1:   27                      daa
70 40 ---
   0:   46                      inc    esi
   1:   28                      .byte 0x28
70 41 ---
   0:   46                      inc    esi
   1:   29                      .byte 0x29
70 42 ---
   0:   46                      inc    esi
   1:   2a                      .byte 0x2a
70 43 ---
   0:   46                      inc    esi
   1:   2b                      .byte 0x2b
70 44 ---
   0:   46                      inc    esi
   1:   2c                      .byte 0x2c
70 45 ---
   0:   46                      inc    esi
   1:   2d                      .byte 0x2d
70 46 ---
   0:   46                      inc    esi
   1:   2e                      cs
70 47 ---
   0:   46                      inc    esi
   1:   2f                      das
70 48 ---
   0:   46                      inc    esi
   1:   30                      .byte 0x30
70 49 ---
   0:   46                      inc    esi
   1:   31                      .byte 0x31
70 50 ---
   0:   46                      inc    esi
   1:   32                      .byte 0x32
70 51 ---
   0:   46                      inc    esi
   1:   33                      .byte 0x33
70 52 ---
   0:   46                      inc    esi
   1:   34                      .byte 0x34
70 53 ---
   0:   46                      inc    esi
   1:   35                      .byte 0x35
70 54 ---
   0:   46                      inc    esi
   1:   36                      ss
70 55 ---
   0:   46                      inc    esi
   1:   37                      aaa
70 56 ---
   0:   46                      inc    esi
   1:   38                      .byte 0x38
70 57 ---
   0:   46                      inc    esi
   1:   39                      .byte 0x39
70 58 ---
   0:   46                      inc    esi
   1:   3a                      .byte 0x3a
70 59 ---
   0:   46                      inc    esi
   1:   3b                      .byte 0x3b
70 60 ---
   0:   46                      inc    esi
   1:   3c                      .byte 0x3c
70 61 ---
   0:   46                      inc    esi
   1:   3d                      .byte 0x3d
70 62 ---
   0:   46                      inc    esi
   1:   3e                      ds
70 63 ---
   0:   46                      inc    esi
   1:   3f                      aas
70 64 ---
   0:   46                      inc    esi
   1:   40                      inc    eax
70 65 ---
   0:   46                      inc    esi
   1:   41                      inc    ecx
70 66 ---
   0:   46                      inc    esi
   1:   42                      inc    edx
70 67 ---
   0:   46                      inc    esi
   1:   43                      inc    ebx
70 68 ---
   0:   46                      inc    esi
   1:   44                      inc    esp
70 69 ---
   0:   46                      inc    esi
   1:   45                      inc    ebp
70 70 ---
   0:   46                      inc    esi
   1:   46                      inc    esi
70 71 ---
   0:   46                      inc    esi
   1:   47                      inc    edi
70 72 ---
   0:   46                      inc    esi
   1:   48                      dec    eax
70 73 ---
   0:   46                      inc    esi
   1:   49                      dec    ecx
70 74 ---
   0:   46                      inc    esi
   1:   4a                      dec    edx
70 75 ---
   0:   46                      inc    esi
   1:   4b                      dec    ebx
70 76 ---
   0:   46                      inc    esi
   1:   4c                      dec    esp
70 77 ---
   0:   46                      inc    esi
   1:   4d                      dec    ebp
70 78 ---
   0:   46                      inc    esi
   1:   4e                      dec    esi
70 79 ---
   0:   46                      inc    esi
   1:   4f                      dec    edi
70 80 ---
   0:   46                      inc    esi
   1:   50                      push   eax
70 81 ---
   0:   46                      inc    esi
   1:   51                      push   ecx
70 82 ---
   0:   46                      inc    esi
   1:   52                      push   edx
70 83 ---
   0:   46                      inc    esi
   1:   53                      push   ebx
70 84 ---
   0:   46                      inc    esi
   1:   54                      push   esp
70 85 ---
   0:   46                      inc    esi
   1:   55                      push   ebp
70 86 ---
   0:   46                      inc    esi
   1:   56                      push   esi
70 87 ---
   0:   46                      inc    esi
   1:   57                      push   edi
70 88 ---
   0:   46                      inc    esi
   1:   58                      pop    eax
70 89 ---
   0:   46                      inc    esi
   1:   59                      pop    ecx
70 90 ---
   0:   46                      inc    esi
   1:   5a                      pop    edx
70 91 ---
   0:   46                      inc    esi
   1:   5b                      pop    ebx
70 92 ---
   0:   46                      inc    esi
   1:   5c                      pop    esp
70 93 ---
   0:   46                      inc    esi
   1:   5d                      pop    ebp
70 94 ---
   0:   46                      inc    esi
   1:   5e                      pop    esi
70 95 ---
   0:   46                      inc    esi
   1:   5f                      pop    edi
70 96 ---
   0:   46                      inc    esi
   1:   60                      pusha
70 97 ---
   0:   46                      inc    esi
   1:   61                      popa
70 98 ---
   0:   46                      inc    esi
   1:   62                      .byte 0x62
70 99 ---
   0:   46                      inc    esi
   1:   63                      .byte 0x63
70 100 ---
   0:   46                      inc    esi
   1:   64                      fs
70 101 ---
   0:   46                      inc    esi
   1:   65                      gs
70 102 ---
   0:   46                      inc    esi
   1:   66                      data16
70 103 ---
   0:   46                      inc    esi
   1:   67                      addr16
70 104 ---
   0:   46                      inc    esi
   1:   68                      .byte 0x68
70 105 ---
   0:   46                      inc    esi
   1:   69                      .byte 0x69
70 106 ---
   0:   46                      inc    esi
   1:   6a                      .byte 0x6a
70 107 ---
   0:   46                      inc    esi
   1:   6b                      .byte 0x6b
70 108 ---
   0:   46                      inc    esi
   1:   6c                      ins    BYTE PTR es:[edi],dx
70 109 ---
   0:   46                      inc    esi
   1:   6d                      ins    DWORD PTR es:[edi],dx
70 110 ---
   0:   46                      inc    esi
   1:   6e                      outs   dx,BYTE PTR ds:[esi]
70 111 ---
   0:   46                      inc    esi
   1:   6f                      outs   dx,DWORD PTR ds:[esi]
70 112 ---
   0:   46                      inc    esi
   1:   70                      .byte 0x70
70 113 ---
   0:   46                      inc    esi
   1:   71                      .byte 0x71
70 114 ---
   0:   46                      inc    esi
   1:   72                      .byte 0x72
70 115 ---
   0:   46                      inc    esi
   1:   73                      .byte 0x73
70 116 ---
   0:   46                      inc    esi
   1:   74                      .byte 0x74
70 117 ---
   0:   46                      inc    esi
   1:   75                      .byte 0x75
70 118 ---
   0:   46                      inc    esi
   1:   76                      .byte 0x76
70 119 ---
   0:   46                      inc    esi
   1:   77                      .byte 0x77
70 120 ---
   0:   46                      inc    esi
   1:   78                      .byte 0x78
70 121 ---
   0:   46                      inc    esi
   1:   79                      .byte 0x79
70 122 ---
   0:   46                      inc    esi
   1:   7a                      .byte 0x7a
70 123 ---
   0:   46                      inc    esi
   1:   7b                      .byte 0x7b
70 124 ---
   0:   46                      inc    esi
   1:   7c                      .byte 0x7c
70 125 ---
   0:   46                      inc    esi
   1:   7d                      .byte 0x7d
70 126 ---
   0:   46                      inc    esi
   1:   7e                      .byte 0x7e
71 32 ---
   0:   47                      inc    edi
   1:   20                      .byte 0x20
71 33 ---
   0:   47                      inc    edi
   1:   21                      .byte 0x21
71 34 ---
   0:   47                      inc    edi
   1:   22                      .byte 0x22
71 35 ---
   0:   47                      inc    edi
   1:   23                      .byte 0x23
71 36 ---
   0:   47                      inc    edi
   1:   24                      .byte 0x24
71 37 ---
   0:   47                      inc    edi
   1:   25                      .byte 0x25
71 38 ---
   0:   47                      inc    edi
   1:   26                      es
71 39 ---
   0:   47                      inc    edi
   1:   27                      daa
71 40 ---
   0:   47                      inc    edi
   1:   28                      .byte 0x28
71 41 ---
   0:   47                      inc    edi
   1:   29                      .byte 0x29
71 42 ---
   0:   47                      inc    edi
   1:   2a                      .byte 0x2a
71 43 ---
   0:   47                      inc    edi
   1:   2b                      .byte 0x2b
71 44 ---
   0:   47                      inc    edi
   1:   2c                      .byte 0x2c
71 45 ---
   0:   47                      inc    edi
   1:   2d                      .byte 0x2d
71 46 ---
   0:   47                      inc    edi
   1:   2e                      cs
71 47 ---
   0:   47                      inc    edi
   1:   2f                      das
71 48 ---
   0:   47                      inc    edi
   1:   30                      .byte 0x30
71 49 ---
   0:   47                      inc    edi
   1:   31                      .byte 0x31
71 50 ---
   0:   47                      inc    edi
   1:   32                      .byte 0x32
71 51 ---
   0:   47                      inc    edi
   1:   33                      .byte 0x33
71 52 ---
   0:   47                      inc    edi
   1:   34                      .byte 0x34
71 53 ---
   0:   47                      inc    edi
   1:   35                      .byte 0x35
71 54 ---
   0:   47                      inc    edi
   1:   36                      ss
71 55 ---
   0:   47                      inc    edi
   1:   37                      aaa
71 56 ---
   0:   47                      inc    edi
   1:   38                      .byte 0x38
71 57 ---
   0:   47                      inc    edi
   1:   39                      .byte 0x39
71 58 ---
   0:   47                      inc    edi
   1:   3a                      .byte 0x3a
71 59 ---
   0:   47                      inc    edi
   1:   3b                      .byte 0x3b
71 60 ---
   0:   47                      inc    edi
   1:   3c                      .byte 0x3c
71 61 ---
   0:   47                      inc    edi
   1:   3d                      .byte 0x3d
71 62 ---
   0:   47                      inc    edi
   1:   3e                      ds
71 63 ---
   0:   47                      inc    edi
   1:   3f                      aas
71 64 ---
   0:   47                      inc    edi
   1:   40                      inc    eax
71 65 ---
   0:   47                      inc    edi
   1:   41                      inc    ecx
71 66 ---
   0:   47                      inc    edi
   1:   42                      inc    edx
71 67 ---
   0:   47                      inc    edi
   1:   43                      inc    ebx
71 68 ---
   0:   47                      inc    edi
   1:   44                      inc    esp
71 69 ---
   0:   47                      inc    edi
   1:   45                      inc    ebp
71 70 ---
   0:   47                      inc    edi
   1:   46                      inc    esi
71 71 ---
   0:   47                      inc    edi
   1:   47                      inc    edi
71 72 ---
   0:   47                      inc    edi
   1:   48                      dec    eax
71 73 ---
   0:   47                      inc    edi
   1:   49                      dec    ecx
71 74 ---
   0:   47                      inc    edi
   1:   4a                      dec    edx
71 75 ---
   0:   47                      inc    edi
   1:   4b                      dec    ebx
71 76 ---
   0:   47                      inc    edi
   1:   4c                      dec    esp
71 77 ---
   0:   47                      inc    edi
   1:   4d                      dec    ebp
71 78 ---
   0:   47                      inc    edi
   1:   4e                      dec    esi
71 79 ---
   0:   47                      inc    edi
   1:   4f                      dec    edi
71 80 ---
   0:   47                      inc    edi
   1:   50                      push   eax
71 81 ---
   0:   47                      inc    edi
   1:   51                      push   ecx
71 82 ---
   0:   47                      inc    edi
   1:   52                      push   edx
71 83 ---
   0:   47                      inc    edi
   1:   53                      push   ebx
71 84 ---
   0:   47                      inc    edi
   1:   54                      push   esp
71 85 ---
   0:   47                      inc    edi
   1:   55                      push   ebp
71 86 ---
   0:   47                      inc    edi
   1:   56                      push   esi
71 87 ---
   0:   47                      inc    edi
   1:   57                      push   edi
71 88 ---
   0:   47                      inc    edi
   1:   58                      pop    eax
71 89 ---
   0:   47                      inc    edi
   1:   59                      pop    ecx
71 90 ---
   0:   47                      inc    edi
   1:   5a                      pop    edx
71 91 ---
   0:   47                      inc    edi
   1:   5b                      pop    ebx
71 92 ---
   0:   47                      inc    edi
   1:   5c                      pop    esp
71 93 ---
   0:   47                      inc    edi
   1:   5d                      pop    ebp
71 94 ---
   0:   47                      inc    edi
   1:   5e                      pop    esi
71 95 ---
   0:   47                      inc    edi
   1:   5f                      pop    edi
71 96 ---
   0:   47                      inc    edi
   1:   60                      pusha
71 97 ---
   0:   47                      inc    edi
   1:   61                      popa
71 98 ---
   0:   47                      inc    edi
   1:   62                      .byte 0x62
71 99 ---
   0:   47                      inc    edi
   1:   63                      .byte 0x63
71 100 ---
   0:   47                      inc    edi
   1:   64                      fs
71 101 ---
   0:   47                      inc    edi
   1:   65                      gs
71 102 ---
   0:   47                      inc    edi
   1:   66                      data16
71 103 ---
   0:   47                      inc    edi
   1:   67                      addr16
71 104 ---
   0:   47                      inc    edi
   1:   68                      .byte 0x68
71 105 ---
   0:   47                      inc    edi
   1:   69                      .byte 0x69
71 106 ---
   0:   47                      inc    edi
   1:   6a                      .byte 0x6a
71 107 ---
   0:   47                      inc    edi
   1:   6b                      .byte 0x6b
71 108 ---
   0:   47                      inc    edi
   1:   6c                      ins    BYTE PTR es:[edi],dx
71 109 ---
   0:   47                      inc    edi
   1:   6d                      ins    DWORD PTR es:[edi],dx
71 110 ---
   0:   47                      inc    edi
   1:   6e                      outs   dx,BYTE PTR ds:[esi]
71 111 ---
   0:   47                      inc    edi
   1:   6f                      outs   dx,DWORD PTR ds:[esi]
71 112 ---
   0:   47                      inc    edi
   1:   70                      .byte 0x70
71 113 ---
   0:   47                      inc    edi
   1:   71                      .byte 0x71
71 114 ---
   0:   47                      inc    edi
   1:   72                      .byte 0x72
71 115 ---
   0:   47                      inc    edi
   1:   73                      .byte 0x73
71 116 ---
   0:   47                      inc    edi
   1:   74                      .byte 0x74
71 117 ---
   0:   47                      inc    edi
   1:   75                      .byte 0x75
71 118 ---
   0:   47                      inc    edi
   1:   76                      .byte 0x76
71 119 ---
   0:   47                      inc    edi
   1:   77                      .byte 0x77
71 120 ---
   0:   47                      inc    edi
   1:   78                      .byte 0x78
71 121 ---
   0:   47                      inc    edi
   1:   79                      .byte 0x79
71 122 ---
   0:   47                      inc    edi
   1:   7a                      .byte 0x7a
71 123 ---
   0:   47                      inc    edi
   1:   7b                      .byte 0x7b
71 124 ---
   0:   47                      inc    edi
   1:   7c                      .byte 0x7c
71 125 ---
   0:   47                      inc    edi
   1:   7d                      .byte 0x7d
71 126 ---
   0:   47                      inc    edi
   1:   7e                      .byte 0x7e
72 32 ---
   0:   48                      dec    eax
   1:   20                      .byte 0x20
72 33 ---
   0:   48                      dec    eax
   1:   21                      .byte 0x21
72 34 ---
   0:   48                      dec    eax
   1:   22                      .byte 0x22
72 35 ---
   0:   48                      dec    eax
   1:   23                      .byte 0x23
72 36 ---
   0:   48                      dec    eax
   1:   24                      .byte 0x24
72 37 ---
   0:   48                      dec    eax
   1:   25                      .byte 0x25
72 38 ---
   0:   48                      dec    eax
   1:   26                      es
72 39 ---
   0:   48                      dec    eax
   1:   27                      daa
72 40 ---
   0:   48                      dec    eax
   1:   28                      .byte 0x28
72 41 ---
   0:   48                      dec    eax
   1:   29                      .byte 0x29
72 42 ---
   0:   48                      dec    eax
   1:   2a                      .byte 0x2a
72 43 ---
   0:   48                      dec    eax
   1:   2b                      .byte 0x2b
72 44 ---
   0:   48                      dec    eax
   1:   2c                      .byte 0x2c
72 45 ---
   0:   48                      dec    eax
   1:   2d                      .byte 0x2d
72 46 ---
   0:   48                      dec    eax
   1:   2e                      cs
72 47 ---
   0:   48                      dec    eax
   1:   2f                      das
72 48 ---
   0:   48                      dec    eax
   1:   30                      .byte 0x30
72 49 ---
   0:   48                      dec    eax
   1:   31                      .byte 0x31
72 50 ---
   0:   48                      dec    eax
   1:   32                      .byte 0x32
72 51 ---
   0:   48                      dec    eax
   1:   33                      .byte 0x33
72 52 ---
   0:   48                      dec    eax
   1:   34                      .byte 0x34
72 53 ---
   0:   48                      dec    eax
   1:   35                      .byte 0x35
72 54 ---
   0:   48                      dec    eax
   1:   36                      ss
72 55 ---
   0:   48                      dec    eax
   1:   37                      aaa
72 56 ---
   0:   48                      dec    eax
   1:   38                      .byte 0x38
72 57 ---
   0:   48                      dec    eax
   1:   39                      .byte 0x39
72 58 ---
   0:   48                      dec    eax
   1:   3a                      .byte 0x3a
72 59 ---
   0:   48                      dec    eax
   1:   3b                      .byte 0x3b
72 60 ---
   0:   48                      dec    eax
   1:   3c                      .byte 0x3c
72 61 ---
   0:   48                      dec    eax
   1:   3d                      .byte 0x3d
72 62 ---
   0:   48                      dec    eax
   1:   3e                      ds
72 63 ---
   0:   48                      dec    eax
   1:   3f                      aas
72 64 ---
   0:   48                      dec    eax
   1:   40                      inc    eax
72 65 ---
   0:   48                      dec    eax
   1:   41                      inc    ecx
72 66 ---
   0:   48                      dec    eax
   1:   42                      inc    edx
72 67 ---
   0:   48                      dec    eax
   1:   43                      inc    ebx
72 68 ---
   0:   48                      dec    eax
   1:   44                      inc    esp
72 69 ---
   0:   48                      dec    eax
   1:   45                      inc    ebp
72 70 ---
   0:   48                      dec    eax
   1:   46                      inc    esi
72 71 ---
   0:   48                      dec    eax
   1:   47                      inc    edi
72 72 ---
   0:   48                      dec    eax
   1:   48                      dec    eax
72 73 ---
   0:   48                      dec    eax
   1:   49                      dec    ecx
72 74 ---
   0:   48                      dec    eax
   1:   4a                      dec    edx
72 75 ---
   0:   48                      dec    eax
   1:   4b                      dec    ebx
72 76 ---
   0:   48                      dec    eax
   1:   4c                      dec    esp
72 77 ---
   0:   48                      dec    eax
   1:   4d                      dec    ebp
72 78 ---
   0:   48                      dec    eax
   1:   4e                      dec    esi
72 79 ---
   0:   48                      dec    eax
   1:   4f                      dec    edi
72 80 ---
   0:   48                      dec    eax
   1:   50                      push   eax
72 81 ---
   0:   48                      dec    eax
   1:   51                      push   ecx
72 82 ---
   0:   48                      dec    eax
   1:   52                      push   edx
72 83 ---
   0:   48                      dec    eax
   1:   53                      push   ebx
72 84 ---
   0:   48                      dec    eax
   1:   54                      push   esp
72 85 ---
   0:   48                      dec    eax
   1:   55                      push   ebp
72 86 ---
   0:   48                      dec    eax
   1:   56                      push   esi
72 87 ---
   0:   48                      dec    eax
   1:   57                      push   edi
72 88 ---
   0:   48                      dec    eax
   1:   58                      pop    eax
72 89 ---
   0:   48                      dec    eax
   1:   59                      pop    ecx
72 90 ---
   0:   48                      dec    eax
   1:   5a                      pop    edx
72 91 ---
   0:   48                      dec    eax
   1:   5b                      pop    ebx
72 92 ---
   0:   48                      dec    eax
   1:   5c                      pop    esp
72 93 ---
   0:   48                      dec    eax
   1:   5d                      pop    ebp
72 94 ---
   0:   48                      dec    eax
   1:   5e                      pop    esi
72 95 ---
   0:   48                      dec    eax
   1:   5f                      pop    edi
72 96 ---
   0:   48                      dec    eax
   1:   60                      pusha
72 97 ---
   0:   48                      dec    eax
   1:   61                      popa
72 98 ---
   0:   48                      dec    eax
   1:   62                      .byte 0x62
72 99 ---
   0:   48                      dec    eax
   1:   63                      .byte 0x63
72 100 ---
   0:   48                      dec    eax
   1:   64                      fs
72 101 ---
   0:   48                      dec    eax
   1:   65                      gs
72 102 ---
   0:   48                      dec    eax
   1:   66                      data16
72 103 ---
   0:   48                      dec    eax
   1:   67                      addr16
72 104 ---
   0:   48                      dec    eax
   1:   68                      .byte 0x68
72 105 ---
   0:   48                      dec    eax
   1:   69                      .byte 0x69
72 106 ---
   0:   48                      dec    eax
   1:   6a                      .byte 0x6a
72 107 ---
   0:   48                      dec    eax
   1:   6b                      .byte 0x6b
72 108 ---
   0:   48                      dec    eax
   1:   6c                      ins    BYTE PTR es:[edi],dx
72 109 ---
   0:   48                      dec    eax
   1:   6d                      ins    DWORD PTR es:[edi],dx
72 110 ---
   0:   48                      dec    eax
   1:   6e                      outs   dx,BYTE PTR ds:[esi]
72 111 ---
   0:   48                      dec    eax
   1:   6f                      outs   dx,DWORD PTR ds:[esi]
72 112 ---
   0:   48                      dec    eax
   1:   70                      .byte 0x70
72 113 ---
   0:   48                      dec    eax
   1:   71                      .byte 0x71
72 114 ---
   0:   48                      dec    eax
   1:   72                      .byte 0x72
72 115 ---
   0:   48                      dec    eax
   1:   73                      .byte 0x73
72 116 ---
   0:   48                      dec    eax
   1:   74                      .byte 0x74
72 117 ---
   0:   48                      dec    eax
   1:   75                      .byte 0x75
72 118 ---
   0:   48                      dec    eax
   1:   76                      .byte 0x76
72 119 ---
   0:   48                      dec    eax
   1:   77                      .byte 0x77
72 120 ---
   0:   48                      dec    eax
   1:   78                      .byte 0x78
72 121 ---
   0:   48                      dec    eax
   1:   79                      .byte 0x79
72 122 ---
   0:   48                      dec    eax
   1:   7a                      .byte 0x7a
72 123 ---
   0:   48                      dec    eax
   1:   7b                      .byte 0x7b
72 124 ---
   0:   48                      dec    eax
   1:   7c                      .byte 0x7c
72 125 ---
   0:   48                      dec    eax
   1:   7d                      .byte 0x7d
72 126 ---
   0:   48                      dec    eax
   1:   7e                      .byte 0x7e
73 32 ---
   0:   49                      dec    ecx
   1:   20                      .byte 0x20
73 33 ---
   0:   49                      dec    ecx
   1:   21                      .byte 0x21
73 34 ---
   0:   49                      dec    ecx
   1:   22                      .byte 0x22
73 35 ---
   0:   49                      dec    ecx
   1:   23                      .byte 0x23
73 36 ---
   0:   49                      dec    ecx
   1:   24                      .byte 0x24
73 37 ---
   0:   49                      dec    ecx
   1:   25                      .byte 0x25
73 38 ---
   0:   49                      dec    ecx
   1:   26                      es
73 39 ---
   0:   49                      dec    ecx
   1:   27                      daa
73 40 ---
   0:   49                      dec    ecx
   1:   28                      .byte 0x28
73 41 ---
   0:   49                      dec    ecx
   1:   29                      .byte 0x29
73 42 ---
   0:   49                      dec    ecx
   1:   2a                      .byte 0x2a
73 43 ---
   0:   49                      dec    ecx
   1:   2b                      .byte 0x2b
73 44 ---
   0:   49                      dec    ecx
   1:   2c                      .byte 0x2c
73 45 ---
   0:   49                      dec    ecx
   1:   2d                      .byte 0x2d
73 46 ---
   0:   49                      dec    ecx
   1:   2e                      cs
73 47 ---
   0:   49                      dec    ecx
   1:   2f                      das
73 48 ---
   0:   49                      dec    ecx
   1:   30                      .byte 0x30
73 49 ---
   0:   49                      dec    ecx
   1:   31                      .byte 0x31
73 50 ---
   0:   49                      dec    ecx
   1:   32                      .byte 0x32
73 51 ---
   0:   49                      dec    ecx
   1:   33                      .byte 0x33
73 52 ---
   0:   49                      dec    ecx
   1:   34                      .byte 0x34
73 53 ---
   0:   49                      dec    ecx
   1:   35                      .byte 0x35
73 54 ---
   0:   49                      dec    ecx
   1:   36                      ss
73 55 ---
   0:   49                      dec    ecx
   1:   37                      aaa
73 56 ---
   0:   49                      dec    ecx
   1:   38                      .byte 0x38
73 57 ---
   0:   49                      dec    ecx
   1:   39                      .byte 0x39
73 58 ---
   0:   49                      dec    ecx
   1:   3a                      .byte 0x3a
73 59 ---
   0:   49                      dec    ecx
   1:   3b                      .byte 0x3b
73 60 ---
   0:   49                      dec    ecx
   1:   3c                      .byte 0x3c
73 61 ---
   0:   49                      dec    ecx
   1:   3d                      .byte 0x3d
73 62 ---
   0:   49                      dec    ecx
   1:   3e                      ds
73 63 ---
   0:   49                      dec    ecx
   1:   3f                      aas
73 64 ---
   0:   49                      dec    ecx
   1:   40                      inc    eax
73 65 ---
   0:   49                      dec    ecx
   1:   41                      inc    ecx
73 66 ---
   0:   49                      dec    ecx
   1:   42                      inc    edx
73 67 ---
   0:   49                      dec    ecx
   1:   43                      inc    ebx
73 68 ---
   0:   49                      dec    ecx
   1:   44                      inc    esp
73 69 ---
   0:   49                      dec    ecx
   1:   45                      inc    ebp
73 70 ---
   0:   49                      dec    ecx
   1:   46                      inc    esi
73 71 ---
   0:   49                      dec    ecx
   1:   47                      inc    edi
73 72 ---
   0:   49                      dec    ecx
   1:   48                      dec    eax
73 73 ---
   0:   49                      dec    ecx
   1:   49                      dec    ecx
73 74 ---
   0:   49                      dec    ecx
   1:   4a                      dec    edx
73 75 ---
   0:   49                      dec    ecx
   1:   4b                      dec    ebx
73 76 ---
   0:   49                      dec    ecx
   1:   4c                      dec    esp
73 77 ---
   0:   49                      dec    ecx
   1:   4d                      dec    ebp
73 78 ---
   0:   49                      dec    ecx
   1:   4e                      dec    esi
73 79 ---
   0:   49                      dec    ecx
   1:   4f                      dec    edi
73 80 ---
   0:   49                      dec    ecx
   1:   50                      push   eax
73 81 ---
   0:   49                      dec    ecx
   1:   51                      push   ecx
73 82 ---
   0:   49                      dec    ecx
   1:   52                      push   edx
73 83 ---
   0:   49                      dec    ecx
   1:   53                      push   ebx
73 84 ---
   0:   49                      dec    ecx
   1:   54                      push   esp
73 85 ---
   0:   49                      dec    ecx
   1:   55                      push   ebp
73 86 ---
   0:   49                      dec    ecx
   1:   56                      push   esi
73 87 ---
   0:   49                      dec    ecx
   1:   57                      push   edi
73 88 ---
   0:   49                      dec    ecx
   1:   58                      pop    eax
73 89 ---
   0:   49                      dec    ecx
   1:   59                      pop    ecx
73 90 ---
   0:   49                      dec    ecx
   1:   5a                      pop    edx
73 91 ---
   0:   49                      dec    ecx
   1:   5b                      pop    ebx
73 92 ---
   0:   49                      dec    ecx
   1:   5c                      pop    esp
73 93 ---
   0:   49                      dec    ecx
   1:   5d                      pop    ebp
73 94 ---
   0:   49                      dec    ecx
   1:   5e                      pop    esi
73 95 ---
   0:   49                      dec    ecx
   1:   5f                      pop    edi
73 96 ---
   0:   49                      dec    ecx
   1:   60                      pusha
73 97 ---
   0:   49                      dec    ecx
   1:   61                      popa
73 98 ---
   0:   49                      dec    ecx
   1:   62                      .byte 0x62
73 99 ---
   0:   49                      dec    ecx
   1:   63                      .byte 0x63
73 100 ---
   0:   49                      dec    ecx
   1:   64                      fs
73 101 ---
   0:   49                      dec    ecx
   1:   65                      gs
73 102 ---
   0:   49                      dec    ecx
   1:   66                      data16
73 103 ---
   0:   49                      dec    ecx
   1:   67                      addr16
73 104 ---
   0:   49                      dec    ecx
   1:   68                      .byte 0x68
73 105 ---
   0:   49                      dec    ecx
   1:   69                      .byte 0x69
73 106 ---
   0:   49                      dec    ecx
   1:   6a                      .byte 0x6a
73 107 ---
   0:   49                      dec    ecx
   1:   6b                      .byte 0x6b
73 108 ---
   0:   49                      dec    ecx
   1:   6c                      ins    BYTE PTR es:[edi],dx
73 109 ---
   0:   49                      dec    ecx
   1:   6d                      ins    DWORD PTR es:[edi],dx
73 110 ---
   0:   49                      dec    ecx
   1:   6e                      outs   dx,BYTE PTR ds:[esi]
73 111 ---
   0:   49                      dec    ecx
   1:   6f                      outs   dx,DWORD PTR ds:[esi]
73 112 ---
   0:   49                      dec    ecx
   1:   70                      .byte 0x70
73 113 ---
   0:   49                      dec    ecx
   1:   71                      .byte 0x71
73 114 ---
   0:   49                      dec    ecx
   1:   72                      .byte 0x72
73 115 ---
   0:   49                      dec    ecx
   1:   73                      .byte 0x73
73 116 ---
   0:   49                      dec    ecx
   1:   74                      .byte 0x74
73 117 ---
   0:   49                      dec    ecx
   1:   75                      .byte 0x75
73 118 ---
   0:   49                      dec    ecx
   1:   76                      .byte 0x76
73 119 ---
   0:   49                      dec    ecx
   1:   77                      .byte 0x77
73 120 ---
   0:   49                      dec    ecx
   1:   78                      .byte 0x78
73 121 ---
   0:   49                      dec    ecx
   1:   79                      .byte 0x79
73 122 ---
   0:   49                      dec    ecx
   1:   7a                      .byte 0x7a
73 123 ---
   0:   49                      dec    ecx
   1:   7b                      .byte 0x7b
73 124 ---
   0:   49                      dec    ecx
   1:   7c                      .byte 0x7c
73 125 ---
   0:   49                      dec    ecx
   1:   7d                      .byte 0x7d
73 126 ---
   0:   49                      dec    ecx
   1:   7e                      .byte 0x7e
74 32 ---
   0:   4a                      dec    edx
   1:   20                      .byte 0x20
74 33 ---
   0:   4a                      dec    edx
   1:   21                      .byte 0x21
74 34 ---
   0:   4a                      dec    edx
   1:   22                      .byte 0x22
74 35 ---
   0:   4a                      dec    edx
   1:   23                      .byte 0x23
74 36 ---
   0:   4a                      dec    edx
   1:   24                      .byte 0x24
74 37 ---
   0:   4a                      dec    edx
   1:   25                      .byte 0x25
74 38 ---
   0:   4a                      dec    edx
   1:   26                      es
74 39 ---
   0:   4a                      dec    edx
   1:   27                      daa
74 40 ---
   0:   4a                      dec    edx
   1:   28                      .byte 0x28
74 41 ---
   0:   4a                      dec    edx
   1:   29                      .byte 0x29
74 42 ---
   0:   4a                      dec    edx
   1:   2a                      .byte 0x2a
74 43 ---
   0:   4a                      dec    edx
   1:   2b                      .byte 0x2b
74 44 ---
   0:   4a                      dec    edx
   1:   2c                      .byte 0x2c
74 45 ---
   0:   4a                      dec    edx
   1:   2d                      .byte 0x2d
74 46 ---
   0:   4a                      dec    edx
   1:   2e                      cs
74 47 ---
   0:   4a                      dec    edx
   1:   2f                      das
74 48 ---
   0:   4a                      dec    edx
   1:   30                      .byte 0x30
74 49 ---
   0:   4a                      dec    edx
   1:   31                      .byte 0x31
74 50 ---
   0:   4a                      dec    edx
   1:   32                      .byte 0x32
74 51 ---
   0:   4a                      dec    edx
   1:   33                      .byte 0x33
74 52 ---
   0:   4a                      dec    edx
   1:   34                      .byte 0x34
74 53 ---
   0:   4a                      dec    edx
   1:   35                      .byte 0x35
74 54 ---
   0:   4a                      dec    edx
   1:   36                      ss
74 55 ---
   0:   4a                      dec    edx
   1:   37                      aaa
74 56 ---
   0:   4a                      dec    edx
   1:   38                      .byte 0x38
74 57 ---
   0:   4a                      dec    edx
   1:   39                      .byte 0x39
74 58 ---
   0:   4a                      dec    edx
   1:   3a                      .byte 0x3a
74 59 ---
   0:   4a                      dec    edx
   1:   3b                      .byte 0x3b
74 60 ---
   0:   4a                      dec    edx
   1:   3c                      .byte 0x3c
74 61 ---
   0:   4a                      dec    edx
   1:   3d                      .byte 0x3d
74 62 ---
   0:   4a                      dec    edx
   1:   3e                      ds
74 63 ---
   0:   4a                      dec    edx
   1:   3f                      aas
74 64 ---
   0:   4a                      dec    edx
   1:   40                      inc    eax
74 65 ---
   0:   4a                      dec    edx
   1:   41                      inc    ecx
74 66 ---
   0:   4a                      dec    edx
   1:   42                      inc    edx
74 67 ---
   0:   4a                      dec    edx
   1:   43                      inc    ebx
74 68 ---
   0:   4a                      dec    edx
   1:   44                      inc    esp
74 69 ---
   0:   4a                      dec    edx
   1:   45                      inc    ebp
74 70 ---
   0:   4a                      dec    edx
   1:   46                      inc    esi
74 71 ---
   0:   4a                      dec    edx
   1:   47                      inc    edi
74 72 ---
   0:   4a                      dec    edx
   1:   48                      dec    eax
74 73 ---
   0:   4a                      dec    edx
   1:   49                      dec    ecx
74 74 ---
   0:   4a                      dec    edx
   1:   4a                      dec    edx
74 75 ---
   0:   4a                      dec    edx
   1:   4b                      dec    ebx
74 76 ---
   0:   4a                      dec    edx
   1:   4c                      dec    esp
74 77 ---
   0:   4a                      dec    edx
   1:   4d                      dec    ebp
74 78 ---
   0:   4a                      dec    edx
   1:   4e                      dec    esi
74 79 ---
   0:   4a                      dec    edx
   1:   4f                      dec    edi
74 80 ---
   0:   4a                      dec    edx
   1:   50                      push   eax
74 81 ---
   0:   4a                      dec    edx
   1:   51                      push   ecx
74 82 ---
   0:   4a                      dec    edx
   1:   52                      push   edx
74 83 ---
   0:   4a                      dec    edx
   1:   53                      push   ebx
74 84 ---
   0:   4a                      dec    edx
   1:   54                      push   esp
74 85 ---
   0:   4a                      dec    edx
   1:   55                      push   ebp
74 86 ---
   0:   4a                      dec    edx
   1:   56                      push   esi
74 87 ---
   0:   4a                      dec    edx
   1:   57                      push   edi
74 88 ---
   0:   4a                      dec    edx
   1:   58                      pop    eax
74 89 ---
   0:   4a                      dec    edx
   1:   59                      pop    ecx
74 90 ---
   0:   4a                      dec    edx
   1:   5a                      pop    edx
74 91 ---
   0:   4a                      dec    edx
   1:   5b                      pop    ebx
74 92 ---
   0:   4a                      dec    edx
   1:   5c                      pop    esp
74 93 ---
   0:   4a                      dec    edx
   1:   5d                      pop    ebp
74 94 ---
   0:   4a                      dec    edx
   1:   5e                      pop    esi
74 95 ---
   0:   4a                      dec    edx
   1:   5f                      pop    edi
74 96 ---
   0:   4a                      dec    edx
   1:   60                      pusha
74 97 ---
   0:   4a                      dec    edx
   1:   61                      popa
74 98 ---
   0:   4a                      dec    edx
   1:   62                      .byte 0x62
74 99 ---
   0:   4a                      dec    edx
   1:   63                      .byte 0x63
74 100 ---
   0:   4a                      dec    edx
   1:   64                      fs
74 101 ---
   0:   4a                      dec    edx
   1:   65                      gs
74 102 ---
   0:   4a                      dec    edx
   1:   66                      data16
74 103 ---
   0:   4a                      dec    edx
   1:   67                      addr16
74 104 ---
   0:   4a                      dec    edx
   1:   68                      .byte 0x68
74 105 ---
   0:   4a                      dec    edx
   1:   69                      .byte 0x69
74 106 ---
   0:   4a                      dec    edx
   1:   6a                      .byte 0x6a
74 107 ---
   0:   4a                      dec    edx
   1:   6b                      .byte 0x6b
74 108 ---
   0:   4a                      dec    edx
   1:   6c                      ins    BYTE PTR es:[edi],dx
74 109 ---
   0:   4a                      dec    edx
   1:   6d                      ins    DWORD PTR es:[edi],dx
74 110 ---
   0:   4a                      dec    edx
   1:   6e                      outs   dx,BYTE PTR ds:[esi]
74 111 ---
   0:   4a                      dec    edx
   1:   6f                      outs   dx,DWORD PTR ds:[esi]
74 112 ---
   0:   4a                      dec    edx
   1:   70                      .byte 0x70
74 113 ---
   0:   4a                      dec    edx
   1:   71                      .byte 0x71
74 114 ---
   0:   4a                      dec    edx
   1:   72                      .byte 0x72
74 115 ---
   0:   4a                      dec    edx
   1:   73                      .byte 0x73
74 116 ---
   0:   4a                      dec    edx
   1:   74                      .byte 0x74
74 117 ---
   0:   4a                      dec    edx
   1:   75                      .byte 0x75
74 118 ---
   0:   4a                      dec    edx
   1:   76                      .byte 0x76
74 119 ---
   0:   4a                      dec    edx
   1:   77                      .byte 0x77
74 120 ---
   0:   4a                      dec    edx
   1:   78                      .byte 0x78
74 121 ---
   0:   4a                      dec    edx
   1:   79                      .byte 0x79
74 122 ---
   0:   4a                      dec    edx
   1:   7a                      .byte 0x7a
74 123 ---
   0:   4a                      dec    edx
   1:   7b                      .byte 0x7b
74 124 ---
   0:   4a                      dec    edx
   1:   7c                      .byte 0x7c
74 125 ---
   0:   4a                      dec    edx
   1:   7d                      .byte 0x7d
74 126 ---
   0:   4a                      dec    edx
   1:   7e                      .byte 0x7e
75 32 ---
   0:   4b                      dec    ebx
   1:   20                      .byte 0x20
75 33 ---
   0:   4b                      dec    ebx
   1:   21                      .byte 0x21
75 34 ---
   0:   4b                      dec    ebx
   1:   22                      .byte 0x22
75 35 ---
   0:   4b                      dec    ebx
   1:   23                      .byte 0x23
75 36 ---
   0:   4b                      dec    ebx
   1:   24                      .byte 0x24
75 37 ---
   0:   4b                      dec    ebx
   1:   25                      .byte 0x25
75 38 ---
   0:   4b                      dec    ebx
   1:   26                      es
75 39 ---
   0:   4b                      dec    ebx
   1:   27                      daa
75 40 ---
   0:   4b                      dec    ebx
   1:   28                      .byte 0x28
75 41 ---
   0:   4b                      dec    ebx
   1:   29                      .byte 0x29
75 42 ---
   0:   4b                      dec    ebx
   1:   2a                      .byte 0x2a
75 43 ---
   0:   4b                      dec    ebx
   1:   2b                      .byte 0x2b
75 44 ---
   0:   4b                      dec    ebx
   1:   2c                      .byte 0x2c
75 45 ---
   0:   4b                      dec    ebx
   1:   2d                      .byte 0x2d
75 46 ---
   0:   4b                      dec    ebx
   1:   2e                      cs
75 47 ---
   0:   4b                      dec    ebx
   1:   2f                      das
75 48 ---
   0:   4b                      dec    ebx
   1:   30                      .byte 0x30
75 49 ---
   0:   4b                      dec    ebx
   1:   31                      .byte 0x31
75 50 ---
   0:   4b                      dec    ebx
   1:   32                      .byte 0x32
75 51 ---
   0:   4b                      dec    ebx
   1:   33                      .byte 0x33
75 52 ---
   0:   4b                      dec    ebx
   1:   34                      .byte 0x34
75 53 ---
   0:   4b                      dec    ebx
   1:   35                      .byte 0x35
75 54 ---
   0:   4b                      dec    ebx
   1:   36                      ss
75 55 ---
   0:   4b                      dec    ebx
   1:   37                      aaa
75 56 ---
   0:   4b                      dec    ebx
   1:   38                      .byte 0x38
75 57 ---
   0:   4b                      dec    ebx
   1:   39                      .byte 0x39
75 58 ---
   0:   4b                      dec    ebx
   1:   3a                      .byte 0x3a
75 59 ---
   0:   4b                      dec    ebx
   1:   3b                      .byte 0x3b
75 60 ---
   0:   4b                      dec    ebx
   1:   3c                      .byte 0x3c
75 61 ---
   0:   4b                      dec    ebx
   1:   3d                      .byte 0x3d
75 62 ---
   0:   4b                      dec    ebx
   1:   3e                      ds
75 63 ---
   0:   4b                      dec    ebx
   1:   3f                      aas
75 64 ---
   0:   4b                      dec    ebx
   1:   40                      inc    eax
75 65 ---
   0:   4b                      dec    ebx
   1:   41                      inc    ecx
75 66 ---
   0:   4b                      dec    ebx
   1:   42                      inc    edx
75 67 ---
   0:   4b                      dec    ebx
   1:   43                      inc    ebx
75 68 ---
   0:   4b                      dec    ebx
   1:   44                      inc    esp
75 69 ---
   0:   4b                      dec    ebx
   1:   45                      inc    ebp
75 70 ---
   0:   4b                      dec    ebx
   1:   46                      inc    esi
75 71 ---
   0:   4b                      dec    ebx
   1:   47                      inc    edi
75 72 ---
   0:   4b                      dec    ebx
   1:   48                      dec    eax
75 73 ---
   0:   4b                      dec    ebx
   1:   49                      dec    ecx
75 74 ---
   0:   4b                      dec    ebx
   1:   4a                      dec    edx
75 75 ---
   0:   4b                      dec    ebx
   1:   4b                      dec    ebx
75 76 ---
   0:   4b                      dec    ebx
   1:   4c                      dec    esp
75 77 ---
   0:   4b                      dec    ebx
   1:   4d                      dec    ebp
75 78 ---
   0:   4b                      dec    ebx
   1:   4e                      dec    esi
75 79 ---
   0:   4b                      dec    ebx
   1:   4f                      dec    edi
75 80 ---
   0:   4b                      dec    ebx
   1:   50                      push   eax
75 81 ---
   0:   4b                      dec    ebx
   1:   51                      push   ecx
75 82 ---
   0:   4b                      dec    ebx
   1:   52                      push   edx
75 83 ---
   0:   4b                      dec    ebx
   1:   53                      push   ebx
75 84 ---
   0:   4b                      dec    ebx
   1:   54                      push   esp
75 85 ---
   0:   4b                      dec    ebx
   1:   55                      push   ebp
75 86 ---
   0:   4b                      dec    ebx
   1:   56                      push   esi
75 87 ---
   0:   4b                      dec    ebx
   1:   57                      push   edi
75 88 ---
   0:   4b                      dec    ebx
   1:   58                      pop    eax
75 89 ---
   0:   4b                      dec    ebx
   1:   59                      pop    ecx
75 90 ---
   0:   4b                      dec    ebx
   1:   5a                      pop    edx
75 91 ---
   0:   4b                      dec    ebx
   1:   5b                      pop    ebx
75 92 ---
   0:   4b                      dec    ebx
   1:   5c                      pop    esp
75 93 ---
   0:   4b                      dec    ebx
   1:   5d                      pop    ebp
75 94 ---
   0:   4b                      dec    ebx
   1:   5e                      pop    esi
75 95 ---
   0:   4b                      dec    ebx
   1:   5f                      pop    edi
75 96 ---
   0:   4b                      dec    ebx
   1:   60                      pusha
75 97 ---
   0:   4b                      dec    ebx
   1:   61                      popa
75 98 ---
   0:   4b                      dec    ebx
   1:   62                      .byte 0x62
75 99 ---
   0:   4b                      dec    ebx
   1:   63                      .byte 0x63
75 100 ---
   0:   4b                      dec    ebx
   1:   64                      fs
75 101 ---
   0:   4b                      dec    ebx
   1:   65                      gs
75 102 ---
   0:   4b                      dec    ebx
   1:   66                      data16
75 103 ---
   0:   4b                      dec    ebx
   1:   67                      addr16
75 104 ---
   0:   4b                      dec    ebx
   1:   68                      .byte 0x68
75 105 ---
   0:   4b                      dec    ebx
   1:   69                      .byte 0x69
75 106 ---
   0:   4b                      dec    ebx
   1:   6a                      .byte 0x6a
75 107 ---
   0:   4b                      dec    ebx
   1:   6b                      .byte 0x6b
75 108 ---
   0:   4b                      dec    ebx
   1:   6c                      ins    BYTE PTR es:[edi],dx
75 109 ---
   0:   4b                      dec    ebx
   1:   6d                      ins    DWORD PTR es:[edi],dx
75 110 ---
   0:   4b                      dec    ebx
   1:   6e                      outs   dx,BYTE PTR ds:[esi]
75 111 ---
   0:   4b                      dec    ebx
   1:   6f                      outs   dx,DWORD PTR ds:[esi]
75 112 ---
   0:   4b                      dec    ebx
   1:   70                      .byte 0x70
75 113 ---
   0:   4b                      dec    ebx
   1:   71                      .byte 0x71
75 114 ---
   0:   4b                      dec    ebx
   1:   72                      .byte 0x72
75 115 ---
   0:   4b                      dec    ebx
   1:   73                      .byte 0x73
75 116 ---
   0:   4b                      dec    ebx
   1:   74                      .byte 0x74
75 117 ---
   0:   4b                      dec    ebx
   1:   75                      .byte 0x75
75 118 ---
   0:   4b                      dec    ebx
   1:   76                      .byte 0x76
75 119 ---
   0:   4b                      dec    ebx
   1:   77                      .byte 0x77
75 120 ---
   0:   4b                      dec    ebx
   1:   78                      .byte 0x78
75 121 ---
   0:   4b                      dec    ebx
   1:   79                      .byte 0x79
75 122 ---
   0:   4b                      dec    ebx
   1:   7a                      .byte 0x7a
75 123 ---
   0:   4b                      dec    ebx
   1:   7b                      .byte 0x7b
75 124 ---
   0:   4b                      dec    ebx
   1:   7c                      .byte 0x7c
75 125 ---
   0:   4b                      dec    ebx
   1:   7d                      .byte 0x7d
75 126 ---
   0:   4b                      dec    ebx
   1:   7e                      .byte 0x7e
76 32 ---
   0:   4c                      dec    esp
   1:   20                      .byte 0x20
76 33 ---
   0:   4c                      dec    esp
   1:   21                      .byte 0x21
76 34 ---
   0:   4c                      dec    esp
   1:   22                      .byte 0x22
76 35 ---
   0:   4c                      dec    esp
   1:   23                      .byte 0x23
76 36 ---
   0:   4c                      dec    esp
   1:   24                      .byte 0x24
76 37 ---
   0:   4c                      dec    esp
   1:   25                      .byte 0x25
76 38 ---
   0:   4c                      dec    esp
   1:   26                      es
76 39 ---
   0:   4c                      dec    esp
   1:   27                      daa
76 40 ---
   0:   4c                      dec    esp
   1:   28                      .byte 0x28
76 41 ---
   0:   4c                      dec    esp
   1:   29                      .byte 0x29
76 42 ---
   0:   4c                      dec    esp
   1:   2a                      .byte 0x2a
76 43 ---
   0:   4c                      dec    esp
   1:   2b                      .byte 0x2b
76 44 ---
   0:   4c                      dec    esp
   1:   2c                      .byte 0x2c
76 45 ---
   0:   4c                      dec    esp
   1:   2d                      .byte 0x2d
76 46 ---
   0:   4c                      dec    esp
   1:   2e                      cs
76 47 ---
   0:   4c                      dec    esp
   1:   2f                      das
76 48 ---
   0:   4c                      dec    esp
   1:   30                      .byte 0x30
76 49 ---
   0:   4c                      dec    esp
   1:   31                      .byte 0x31
76 50 ---
   0:   4c                      dec    esp
   1:   32                      .byte 0x32
76 51 ---
   0:   4c                      dec    esp
   1:   33                      .byte 0x33
76 52 ---
   0:   4c                      dec    esp
   1:   34                      .byte 0x34
76 53 ---
   0:   4c                      dec    esp
   1:   35                      .byte 0x35
76 54 ---
   0:   4c                      dec    esp
   1:   36                      ss
76 55 ---
   0:   4c                      dec    esp
   1:   37                      aaa
76 56 ---
   0:   4c                      dec    esp
   1:   38                      .byte 0x38
76 57 ---
   0:   4c                      dec    esp
   1:   39                      .byte 0x39
76 58 ---
   0:   4c                      dec    esp
   1:   3a                      .byte 0x3a
76 59 ---
   0:   4c                      dec    esp
   1:   3b                      .byte 0x3b
76 60 ---
   0:   4c                      dec    esp
   1:   3c                      .byte 0x3c
76 61 ---
   0:   4c                      dec    esp
   1:   3d                      .byte 0x3d
76 62 ---
   0:   4c                      dec    esp
   1:   3e                      ds
76 63 ---
   0:   4c                      dec    esp
   1:   3f                      aas
76 64 ---
   0:   4c                      dec    esp
   1:   40                      inc    eax
76 65 ---
   0:   4c                      dec    esp
   1:   41                      inc    ecx
76 66 ---
   0:   4c                      dec    esp
   1:   42                      inc    edx
76 67 ---
   0:   4c                      dec    esp
   1:   43                      inc    ebx
76 68 ---
   0:   4c                      dec    esp
   1:   44                      inc    esp
76 69 ---
   0:   4c                      dec    esp
   1:   45                      inc    ebp
76 70 ---
   0:   4c                      dec    esp
   1:   46                      inc    esi
76 71 ---
   0:   4c                      dec    esp
   1:   47                      inc    edi
76 72 ---
   0:   4c                      dec    esp
   1:   48                      dec    eax
76 73 ---
   0:   4c                      dec    esp
   1:   49                      dec    ecx
76 74 ---
   0:   4c                      dec    esp
   1:   4a                      dec    edx
76 75 ---
   0:   4c                      dec    esp
   1:   4b                      dec    ebx
76 76 ---
   0:   4c                      dec    esp
   1:   4c                      dec    esp
76 77 ---
   0:   4c                      dec    esp
   1:   4d                      dec    ebp
76 78 ---
   0:   4c                      dec    esp
   1:   4e                      dec    esi
76 79 ---
   0:   4c                      dec    esp
   1:   4f                      dec    edi
76 80 ---
   0:   4c                      dec    esp
   1:   50                      push   eax
76 81 ---
   0:   4c                      dec    esp
   1:   51                      push   ecx
76 82 ---
   0:   4c                      dec    esp
   1:   52                      push   edx
76 83 ---
   0:   4c                      dec    esp
   1:   53                      push   ebx
76 84 ---
   0:   4c                      dec    esp
   1:   54                      push   esp
76 85 ---
   0:   4c                      dec    esp
   1:   55                      push   ebp
76 86 ---
   0:   4c                      dec    esp
   1:   56                      push   esi
76 87 ---
   0:   4c                      dec    esp
   1:   57                      push   edi
76 88 ---
   0:   4c                      dec    esp
   1:   58                      pop    eax
76 89 ---
   0:   4c                      dec    esp
   1:   59                      pop    ecx
76 90 ---
   0:   4c                      dec    esp
   1:   5a                      pop    edx
76 91 ---
   0:   4c                      dec    esp
   1:   5b                      pop    ebx
76 92 ---
   0:   4c                      dec    esp
   1:   5c                      pop    esp
76 93 ---
   0:   4c                      dec    esp
   1:   5d                      pop    ebp
76 94 ---
   0:   4c                      dec    esp
   1:   5e                      pop    esi
76 95 ---
   0:   4c                      dec    esp
   1:   5f                      pop    edi
76 96 ---
   0:   4c                      dec    esp
   1:   60                      pusha
76 97 ---
   0:   4c                      dec    esp
   1:   61                      popa
76 98 ---
   0:   4c                      dec    esp
   1:   62                      .byte 0x62
76 99 ---
   0:   4c                      dec    esp
   1:   63                      .byte 0x63
76 100 ---
   0:   4c                      dec    esp
   1:   64                      fs
76 101 ---
   0:   4c                      dec    esp
   1:   65                      gs
76 102 ---
   0:   4c                      dec    esp
   1:   66                      data16
76 103 ---
   0:   4c                      dec    esp
   1:   67                      addr16
76 104 ---
   0:   4c                      dec    esp
   1:   68                      .byte 0x68
76 105 ---
   0:   4c                      dec    esp
   1:   69                      .byte 0x69
76 106 ---
   0:   4c                      dec    esp
   1:   6a                      .byte 0x6a
76 107 ---
   0:   4c                      dec    esp
   1:   6b                      .byte 0x6b
76 108 ---
   0:   4c                      dec    esp
   1:   6c                      ins    BYTE PTR es:[edi],dx
76 109 ---
   0:   4c                      dec    esp
   1:   6d                      ins    DWORD PTR es:[edi],dx
76 110 ---
   0:   4c                      dec    esp
   1:   6e                      outs   dx,BYTE PTR ds:[esi]
76 111 ---
   0:   4c                      dec    esp
   1:   6f                      outs   dx,DWORD PTR ds:[esi]
76 112 ---
   0:   4c                      dec    esp
   1:   70                      .byte 0x70
76 113 ---
   0:   4c                      dec    esp
   1:   71                      .byte 0x71
76 114 ---
   0:   4c                      dec    esp
   1:   72                      .byte 0x72
76 115 ---
   0:   4c                      dec    esp
   1:   73                      .byte 0x73
76 116 ---
   0:   4c                      dec    esp
   1:   74                      .byte 0x74
76 117 ---
   0:   4c                      dec    esp
   1:   75                      .byte 0x75
76 118 ---
   0:   4c                      dec    esp
   1:   76                      .byte 0x76
76 119 ---
   0:   4c                      dec    esp
   1:   77                      .byte 0x77
76 120 ---
   0:   4c                      dec    esp
   1:   78                      .byte 0x78
76 121 ---
   0:   4c                      dec    esp
   1:   79                      .byte 0x79
76 122 ---
   0:   4c                      dec    esp
   1:   7a                      .byte 0x7a
76 123 ---
   0:   4c                      dec    esp
   1:   7b                      .byte 0x7b
76 124 ---
   0:   4c                      dec    esp
   1:   7c                      .byte 0x7c
76 125 ---
   0:   4c                      dec    esp
   1:   7d                      .byte 0x7d
76 126 ---
   0:   4c                      dec    esp
   1:   7e                      .byte 0x7e
77 32 ---
   0:   4d                      dec    ebp
   1:   20                      .byte 0x20
77 33 ---
   0:   4d                      dec    ebp
   1:   21                      .byte 0x21
77 34 ---
   0:   4d                      dec    ebp
   1:   22                      .byte 0x22
77 35 ---
   0:   4d                      dec    ebp
   1:   23                      .byte 0x23
77 36 ---
   0:   4d                      dec    ebp
   1:   24                      .byte 0x24
77 37 ---
   0:   4d                      dec    ebp
   1:   25                      .byte 0x25
77 38 ---
   0:   4d                      dec    ebp
   1:   26                      es
77 39 ---
   0:   4d                      dec    ebp
   1:   27                      daa
77 40 ---
   0:   4d                      dec    ebp
   1:   28                      .byte 0x28
77 41 ---
   0:   4d                      dec    ebp
   1:   29                      .byte 0x29
77 42 ---
   0:   4d                      dec    ebp
   1:   2a                      .byte 0x2a
77 43 ---
   0:   4d                      dec    ebp
   1:   2b                      .byte 0x2b
77 44 ---
   0:   4d                      dec    ebp
   1:   2c                      .byte 0x2c
77 45 ---
   0:   4d                      dec    ebp
   1:   2d                      .byte 0x2d
77 46 ---
   0:   4d                      dec    ebp
   1:   2e                      cs
77 47 ---
   0:   4d                      dec    ebp
   1:   2f                      das
77 48 ---
   0:   4d                      dec    ebp
   1:   30                      .byte 0x30
77 49 ---
   0:   4d                      dec    ebp
   1:   31                      .byte 0x31
77 50 ---
   0:   4d                      dec    ebp
   1:   32                      .byte 0x32
77 51 ---
   0:   4d                      dec    ebp
   1:   33                      .byte 0x33
77 52 ---
   0:   4d                      dec    ebp
   1:   34                      .byte 0x34
77 53 ---
   0:   4d                      dec    ebp
   1:   35                      .byte 0x35
77 54 ---
   0:   4d                      dec    ebp
   1:   36                      ss
77 55 ---
   0:   4d                      dec    ebp
   1:   37                      aaa
77 56 ---
   0:   4d                      dec    ebp
   1:   38                      .byte 0x38
77 57 ---
   0:   4d                      dec    ebp
   1:   39                      .byte 0x39
77 58 ---
   0:   4d                      dec    ebp
   1:   3a                      .byte 0x3a
77 59 ---
   0:   4d                      dec    ebp
   1:   3b                      .byte 0x3b
77 60 ---
   0:   4d                      dec    ebp
   1:   3c                      .byte 0x3c
77 61 ---
   0:   4d                      dec    ebp
   1:   3d                      .byte 0x3d
77 62 ---
   0:   4d                      dec    ebp
   1:   3e                      ds
77 63 ---
   0:   4d                      dec    ebp
   1:   3f                      aas
77 64 ---
   0:   4d                      dec    ebp
   1:   40                      inc    eax
77 65 ---
   0:   4d                      dec    ebp
   1:   41                      inc    ecx
77 66 ---
   0:   4d                      dec    ebp
   1:   42                      inc    edx
77 67 ---
   0:   4d                      dec    ebp
   1:   43                      inc    ebx
77 68 ---
   0:   4d                      dec    ebp
   1:   44                      inc    esp
77 69 ---
   0:   4d                      dec    ebp
   1:   45                      inc    ebp
77 70 ---
   0:   4d                      dec    ebp
   1:   46                      inc    esi
77 71 ---
   0:   4d                      dec    ebp
   1:   47                      inc    edi
77 72 ---
   0:   4d                      dec    ebp
   1:   48                      dec    eax
77 73 ---
   0:   4d                      dec    ebp
   1:   49                      dec    ecx
77 74 ---
   0:   4d                      dec    ebp
   1:   4a                      dec    edx
77 75 ---
   0:   4d                      dec    ebp
   1:   4b                      dec    ebx
77 76 ---
   0:   4d                      dec    ebp
   1:   4c                      dec    esp
77 77 ---
   0:   4d                      dec    ebp
   1:   4d                      dec    ebp
77 78 ---
   0:   4d                      dec    ebp
   1:   4e                      dec    esi
77 79 ---
   0:   4d                      dec    ebp
   1:   4f                      dec    edi
77 80 ---
   0:   4d                      dec    ebp
   1:   50                      push   eax
77 81 ---
   0:   4d                      dec    ebp
   1:   51                      push   ecx
77 82 ---
   0:   4d                      dec    ebp
   1:   52                      push   edx
77 83 ---
   0:   4d                      dec    ebp
   1:   53                      push   ebx
77 84 ---
   0:   4d                      dec    ebp
   1:   54                      push   esp
77 85 ---
   0:   4d                      dec    ebp
   1:   55                      push   ebp
77 86 ---
   0:   4d                      dec    ebp
   1:   56                      push   esi
77 87 ---
   0:   4d                      dec    ebp
   1:   57                      push   edi
77 88 ---
   0:   4d                      dec    ebp
   1:   58                      pop    eax
77 89 ---
   0:   4d                      dec    ebp
   1:   59                      pop    ecx
77 90 ---
   0:   4d                      dec    ebp
   1:   5a                      pop    edx
77 91 ---
   0:   4d                      dec    ebp
   1:   5b                      pop    ebx
77 92 ---
   0:   4d                      dec    ebp
   1:   5c                      pop    esp
77 93 ---
   0:   4d                      dec    ebp
   1:   5d                      pop    ebp
77 94 ---
   0:   4d                      dec    ebp
   1:   5e                      pop    esi
77 95 ---
   0:   4d                      dec    ebp
   1:   5f                      pop    edi
77 96 ---
   0:   4d                      dec    ebp
   1:   60                      pusha
77 97 ---
   0:   4d                      dec    ebp
   1:   61                      popa
77 98 ---
   0:   4d                      dec    ebp
   1:   62                      .byte 0x62
77 99 ---
   0:   4d                      dec    ebp
   1:   63                      .byte 0x63
77 100 ---
   0:   4d                      dec    ebp
   1:   64                      fs
77 101 ---
   0:   4d                      dec    ebp
   1:   65                      gs
77 102 ---
   0:   4d                      dec    ebp
   1:   66                      data16
77 103 ---
   0:   4d                      dec    ebp
   1:   67                      addr16
77 104 ---
   0:   4d                      dec    ebp
   1:   68                      .byte 0x68
77 105 ---
   0:   4d                      dec    ebp
   1:   69                      .byte 0x69
77 106 ---
   0:   4d                      dec    ebp
   1:   6a                      .byte 0x6a
77 107 ---
   0:   4d                      dec    ebp
   1:   6b                      .byte 0x6b
77 108 ---
   0:   4d                      dec    ebp
   1:   6c                      ins    BYTE PTR es:[edi],dx
77 109 ---
   0:   4d                      dec    ebp
   1:   6d                      ins    DWORD PTR es:[edi],dx
77 110 ---
   0:   4d                      dec    ebp
   1:   6e                      outs   dx,BYTE PTR ds:[esi]
77 111 ---
   0:   4d                      dec    ebp
   1:   6f                      outs   dx,DWORD PTR ds:[esi]
77 112 ---
   0:   4d                      dec    ebp
   1:   70                      .byte 0x70
77 113 ---
   0:   4d                      dec    ebp
   1:   71                      .byte 0x71
77 114 ---
   0:   4d                      dec    ebp
   1:   72                      .byte 0x72
77 115 ---
   0:   4d                      dec    ebp
   1:   73                      .byte 0x73
77 116 ---
   0:   4d                      dec    ebp
   1:   74                      .byte 0x74
77 117 ---
   0:   4d                      dec    ebp
   1:   75                      .byte 0x75
77 118 ---
   0:   4d                      dec    ebp
   1:   76                      .byte 0x76
77 119 ---
   0:   4d                      dec    ebp
   1:   77                      .byte 0x77
77 120 ---
   0:   4d                      dec    ebp
   1:   78                      .byte 0x78
77 121 ---
   0:   4d                      dec    ebp
   1:   79                      .byte 0x79
77 122 ---
   0:   4d                      dec    ebp
   1:   7a                      .byte 0x7a
77 123 ---
   0:   4d                      dec    ebp
   1:   7b                      .byte 0x7b
77 124 ---
   0:   4d                      dec    ebp
   1:   7c                      .byte 0x7c
77 125 ---
   0:   4d                      dec    ebp
   1:   7d                      .byte 0x7d
77 126 ---
   0:   4d                      dec    ebp
   1:   7e                      .byte 0x7e
78 32 ---
   0:   4e                      dec    esi
   1:   20                      .byte 0x20
78 33 ---
   0:   4e                      dec    esi
   1:   21                      .byte 0x21
78 34 ---
   0:   4e                      dec    esi
   1:   22                      .byte 0x22
78 35 ---
   0:   4e                      dec    esi
   1:   23                      .byte 0x23
78 36 ---
   0:   4e                      dec    esi
   1:   24                      .byte 0x24
78 37 ---
   0:   4e                      dec    esi
   1:   25                      .byte 0x25
78 38 ---
   0:   4e                      dec    esi
   1:   26                      es
78 39 ---
   0:   4e                      dec    esi
   1:   27                      daa
78 40 ---
   0:   4e                      dec    esi
   1:   28                      .byte 0x28
78 41 ---
   0:   4e                      dec    esi
   1:   29                      .byte 0x29
78 42 ---
   0:   4e                      dec    esi
   1:   2a                      .byte 0x2a
78 43 ---
   0:   4e                      dec    esi
   1:   2b                      .byte 0x2b
78 44 ---
   0:   4e                      dec    esi
   1:   2c                      .byte 0x2c
78 45 ---
   0:   4e                      dec    esi
   1:   2d                      .byte 0x2d
78 46 ---
   0:   4e                      dec    esi
   1:   2e                      cs
78 47 ---
   0:   4e                      dec    esi
   1:   2f                      das
78 48 ---
   0:   4e                      dec    esi
   1:   30                      .byte 0x30
78 49 ---
   0:   4e                      dec    esi
   1:   31                      .byte 0x31
78 50 ---
   0:   4e                      dec    esi
   1:   32                      .byte 0x32
78 51 ---
   0:   4e                      dec    esi
   1:   33                      .byte 0x33
78 52 ---
   0:   4e                      dec    esi
   1:   34                      .byte 0x34
78 53 ---
   0:   4e                      dec    esi
   1:   35                      .byte 0x35
78 54 ---
   0:   4e                      dec    esi
   1:   36                      ss
78 55 ---
   0:   4e                      dec    esi
   1:   37                      aaa
78 56 ---
   0:   4e                      dec    esi
   1:   38                      .byte 0x38
78 57 ---
   0:   4e                      dec    esi
   1:   39                      .byte 0x39
78 58 ---
   0:   4e                      dec    esi
   1:   3a                      .byte 0x3a
78 59 ---
   0:   4e                      dec    esi
   1:   3b                      .byte 0x3b
78 60 ---
   0:   4e                      dec    esi
   1:   3c                      .byte 0x3c
78 61 ---
   0:   4e                      dec    esi
   1:   3d                      .byte 0x3d
78 62 ---
   0:   4e                      dec    esi
   1:   3e                      ds
78 63 ---
   0:   4e                      dec    esi
   1:   3f                      aas
78 64 ---
   0:   4e                      dec    esi
   1:   40                      inc    eax
78 65 ---
   0:   4e                      dec    esi
   1:   41                      inc    ecx
78 66 ---
   0:   4e                      dec    esi
   1:   42                      inc    edx
78 67 ---
   0:   4e                      dec    esi
   1:   43                      inc    ebx
78 68 ---
   0:   4e                      dec    esi
   1:   44                      inc    esp
78 69 ---
   0:   4e                      dec    esi
   1:   45                      inc    ebp
78 70 ---
   0:   4e                      dec    esi
   1:   46                      inc    esi
78 71 ---
   0:   4e                      dec    esi
   1:   47                      inc    edi
78 72 ---
   0:   4e                      dec    esi
   1:   48                      dec    eax
78 73 ---
   0:   4e                      dec    esi
   1:   49                      dec    ecx
78 74 ---
   0:   4e                      dec    esi
   1:   4a                      dec    edx
78 75 ---
   0:   4e                      dec    esi
   1:   4b                      dec    ebx
78 76 ---
   0:   4e                      dec    esi
   1:   4c                      dec    esp
78 77 ---
   0:   4e                      dec    esi
   1:   4d                      dec    ebp
78 78 ---
   0:   4e                      dec    esi
   1:   4e                      dec    esi
78 79 ---
   0:   4e                      dec    esi
   1:   4f                      dec    edi
78 80 ---
   0:   4e                      dec    esi
   1:   50                      push   eax
78 81 ---
   0:   4e                      dec    esi
   1:   51                      push   ecx
78 82 ---
   0:   4e                      dec    esi
   1:   52                      push   edx
78 83 ---
   0:   4e                      dec    esi
   1:   53                      push   ebx
78 84 ---
   0:   4e                      dec    esi
   1:   54                      push   esp
78 85 ---
   0:   4e                      dec    esi
   1:   55                      push   ebp
78 86 ---
   0:   4e                      dec    esi
   1:   56                      push   esi
78 87 ---
   0:   4e                      dec    esi
   1:   57                      push   edi
78 88 ---
   0:   4e                      dec    esi
   1:   58                      pop    eax
78 89 ---
   0:   4e                      dec    esi
   1:   59                      pop    ecx
78 90 ---
   0:   4e                      dec    esi
   1:   5a                      pop    edx
78 91 ---
   0:   4e                      dec    esi
   1:   5b                      pop    ebx
78 92 ---
   0:   4e                      dec    esi
   1:   5c                      pop    esp
78 93 ---
   0:   4e                      dec    esi
   1:   5d                      pop    ebp
78 94 ---
   0:   4e                      dec    esi
   1:   5e                      pop    esi
78 95 ---
   0:   4e                      dec    esi
   1:   5f                      pop    edi
78 96 ---
   0:   4e                      dec    esi
   1:   60                      pusha
78 97 ---
   0:   4e                      dec    esi
   1:   61                      popa
78 98 ---
   0:   4e                      dec    esi
   1:   62                      .byte 0x62
78 99 ---
   0:   4e                      dec    esi
   1:   63                      .byte 0x63
78 100 ---
   0:   4e                      dec    esi
   1:   64                      fs
78 101 ---
   0:   4e                      dec    esi
   1:   65                      gs
78 102 ---
   0:   4e                      dec    esi
   1:   66                      data16
78 103 ---
   0:   4e                      dec    esi
   1:   67                      addr16
78 104 ---
   0:   4e                      dec    esi
   1:   68                      .byte 0x68
78 105 ---
   0:   4e                      dec    esi
   1:   69                      .byte 0x69
78 106 ---
   0:   4e                      dec    esi
   1:   6a                      .byte 0x6a
78 107 ---
   0:   4e                      dec    esi
   1:   6b                      .byte 0x6b
78 108 ---
   0:   4e                      dec    esi
   1:   6c                      ins    BYTE PTR es:[edi],dx
78 109 ---
   0:   4e                      dec    esi
   1:   6d                      ins    DWORD PTR es:[edi],dx
78 110 ---
   0:   4e                      dec    esi
   1:   6e                      outs   dx,BYTE PTR ds:[esi]
78 111 ---
   0:   4e                      dec    esi
   1:   6f                      outs   dx,DWORD PTR ds:[esi]
78 112 ---
   0:   4e                      dec    esi
   1:   70                      .byte 0x70
78 113 ---
   0:   4e                      dec    esi
   1:   71                      .byte 0x71
78 114 ---
   0:   4e                      dec    esi
   1:   72                      .byte 0x72
78 115 ---
   0:   4e                      dec    esi
   1:   73                      .byte 0x73
78 116 ---
   0:   4e                      dec    esi
   1:   74                      .byte 0x74
78 117 ---
   0:   4e                      dec    esi
   1:   75                      .byte 0x75
78 118 ---
   0:   4e                      dec    esi
   1:   76                      .byte 0x76
78 119 ---
   0:   4e                      dec    esi
   1:   77                      .byte 0x77
78 120 ---
   0:   4e                      dec    esi
   1:   78                      .byte 0x78
78 121 ---
   0:   4e                      dec    esi
   1:   79                      .byte 0x79
78 122 ---
   0:   4e                      dec    esi
   1:   7a                      .byte 0x7a
78 123 ---
   0:   4e                      dec    esi
   1:   7b                      .byte 0x7b
78 124 ---
   0:   4e                      dec    esi
   1:   7c                      .byte 0x7c
78 125 ---
   0:   4e                      dec    esi
   1:   7d                      .byte 0x7d
78 126 ---
   0:   4e                      dec    esi
   1:   7e                      .byte 0x7e
79 32 ---
   0:   4f                      dec    edi
   1:   20                      .byte 0x20
79 33 ---
   0:   4f                      dec    edi
   1:   21                      .byte 0x21
79 34 ---
   0:   4f                      dec    edi
   1:   22                      .byte 0x22
79 35 ---
   0:   4f                      dec    edi
   1:   23                      .byte 0x23
79 36 ---
   0:   4f                      dec    edi
   1:   24                      .byte 0x24
79 37 ---
   0:   4f                      dec    edi
   1:   25                      .byte 0x25
79 38 ---
   0:   4f                      dec    edi
   1:   26                      es
79 39 ---
   0:   4f                      dec    edi
   1:   27                      daa
79 40 ---
   0:   4f                      dec    edi
   1:   28                      .byte 0x28
79 41 ---
   0:   4f                      dec    edi
   1:   29                      .byte 0x29
79 42 ---
   0:   4f                      dec    edi
   1:   2a                      .byte 0x2a
79 43 ---
   0:   4f                      dec    edi
   1:   2b                      .byte 0x2b
79 44 ---
   0:   4f                      dec    edi
   1:   2c                      .byte 0x2c
79 45 ---
   0:   4f                      dec    edi
   1:   2d                      .byte 0x2d
79 46 ---
   0:   4f                      dec    edi
   1:   2e                      cs
79 47 ---
   0:   4f                      dec    edi
   1:   2f                      das
79 48 ---
   0:   4f                      dec    edi
   1:   30                      .byte 0x30
79 49 ---
   0:   4f                      dec    edi
   1:   31                      .byte 0x31
79 50 ---
   0:   4f                      dec    edi
   1:   32                      .byte 0x32
79 51 ---
   0:   4f                      dec    edi
   1:   33                      .byte 0x33
79 52 ---
   0:   4f                      dec    edi
   1:   34                      .byte 0x34
79 53 ---
   0:   4f                      dec    edi
   1:   35                      .byte 0x35
79 54 ---
   0:   4f                      dec    edi
   1:   36                      ss
79 55 ---
   0:   4f                      dec    edi
   1:   37                      aaa
79 56 ---
   0:   4f                      dec    edi
   1:   38                      .byte 0x38
79 57 ---
   0:   4f                      dec    edi
   1:   39                      .byte 0x39
79 58 ---
   0:   4f                      dec    edi
   1:   3a                      .byte 0x3a
79 59 ---
   0:   4f                      dec    edi
   1:   3b                      .byte 0x3b
79 60 ---
   0:   4f                      dec    edi
   1:   3c                      .byte 0x3c
79 61 ---
   0:   4f                      dec    edi
   1:   3d                      .byte 0x3d
79 62 ---
   0:   4f                      dec    edi
   1:   3e                      ds
79 63 ---
   0:   4f                      dec    edi
   1:   3f                      aas
79 64 ---
   0:   4f                      dec    edi
   1:   40                      inc    eax
79 65 ---
   0:   4f                      dec    edi
   1:   41                      inc    ecx
79 66 ---
   0:   4f                      dec    edi
   1:   42                      inc    edx
79 67 ---
   0:   4f                      dec    edi
   1:   43                      inc    ebx
79 68 ---
   0:   4f                      dec    edi
   1:   44                      inc    esp
79 69 ---
   0:   4f                      dec    edi
   1:   45                      inc    ebp
79 70 ---
   0:   4f                      dec    edi
   1:   46                      inc    esi
79 71 ---
   0:   4f                      dec    edi
   1:   47                      inc    edi
79 72 ---
   0:   4f                      dec    edi
   1:   48                      dec    eax
79 73 ---
   0:   4f                      dec    edi
   1:   49                      dec    ecx
79 74 ---
   0:   4f                      dec    edi
   1:   4a                      dec    edx
79 75 ---
   0:   4f                      dec    edi
   1:   4b                      dec    ebx
79 76 ---
   0:   4f                      dec    edi
   1:   4c                      dec    esp
79 77 ---
   0:   4f                      dec    edi
   1:   4d                      dec    ebp
79 78 ---
   0:   4f                      dec    edi
   1:   4e                      dec    esi
79 79 ---
   0:   4f                      dec    edi
   1:   4f                      dec    edi
79 80 ---
   0:   4f                      dec    edi
   1:   50                      push   eax
79 81 ---
   0:   4f                      dec    edi
   1:   51                      push   ecx
79 82 ---
   0:   4f                      dec    edi
   1:   52                      push   edx
79 83 ---
   0:   4f                      dec    edi
   1:   53                      push   ebx
79 84 ---
   0:   4f                      dec    edi
   1:   54                      push   esp
79 85 ---
   0:   4f                      dec    edi
   1:   55                      push   ebp
79 86 ---
   0:   4f                      dec    edi
   1:   56                      push   esi
79 87 ---
   0:   4f                      dec    edi
   1:   57                      push   edi
79 88 ---
   0:   4f                      dec    edi
   1:   58                      pop    eax
79 89 ---
   0:   4f                      dec    edi
   1:   59                      pop    ecx
79 90 ---
   0:   4f                      dec    edi
   1:   5a                      pop    edx
79 91 ---
   0:   4f                      dec    edi
   1:   5b                      pop    ebx
79 92 ---
   0:   4f                      dec    edi
   1:   5c                      pop    esp
79 93 ---
   0:   4f                      dec    edi
   1:   5d                      pop    ebp
79 94 ---
   0:   4f                      dec    edi
   1:   5e                      pop    esi
79 95 ---
   0:   4f                      dec    edi
   1:   5f                      pop    edi
79 96 ---
   0:   4f                      dec    edi
   1:   60                      pusha
79 97 ---
   0:   4f                      dec    edi
   1:   61                      popa
79 98 ---
   0:   4f                      dec    edi
   1:   62                      .byte 0x62
79 99 ---
   0:   4f                      dec    edi
   1:   63                      .byte 0x63
79 100 ---
   0:   4f                      dec    edi
   1:   64                      fs
79 101 ---
   0:   4f                      dec    edi
   1:   65                      gs
79 102 ---
   0:   4f                      dec    edi
   1:   66                      data16
79 103 ---
   0:   4f                      dec    edi
   1:   67                      addr16
79 104 ---
   0:   4f                      dec    edi
   1:   68                      .byte 0x68
79 105 ---
   0:   4f                      dec    edi
   1:   69                      .byte 0x69
79 106 ---
   0:   4f                      dec    edi
   1:   6a                      .byte 0x6a
79 107 ---
   0:   4f                      dec    edi
   1:   6b                      .byte 0x6b
79 108 ---
   0:   4f                      dec    edi
   1:   6c                      ins    BYTE PTR es:[edi],dx
79 109 ---
   0:   4f                      dec    edi
   1:   6d                      ins    DWORD PTR es:[edi],dx
79 110 ---
   0:   4f                      dec    edi
   1:   6e                      outs   dx,BYTE PTR ds:[esi]
79 111 ---
   0:   4f                      dec    edi
   1:   6f                      outs   dx,DWORD PTR ds:[esi]
79 112 ---
   0:   4f                      dec    edi
   1:   70                      .byte 0x70
79 113 ---
   0:   4f                      dec    edi
   1:   71                      .byte 0x71
79 114 ---
   0:   4f                      dec    edi
   1:   72                      .byte 0x72
79 115 ---
   0:   4f                      dec    edi
   1:   73                      .byte 0x73
79 116 ---
   0:   4f                      dec    edi
   1:   74                      .byte 0x74
79 117 ---
   0:   4f                      dec    edi
   1:   75                      .byte 0x75
79 118 ---
   0:   4f                      dec    edi
   1:   76                      .byte 0x76
79 119 ---
   0:   4f                      dec    edi
   1:   77                      .byte 0x77
79 120 ---
   0:   4f                      dec    edi
   1:   78                      .byte 0x78
79 121 ---
   0:   4f                      dec    edi
   1:   79                      .byte 0x79
79 122 ---
   0:   4f                      dec    edi
   1:   7a                      .byte 0x7a
79 123 ---
   0:   4f                      dec    edi
   1:   7b                      .byte 0x7b
79 124 ---
   0:   4f                      dec    edi
   1:   7c                      .byte 0x7c
79 125 ---
   0:   4f                      dec    edi
   1:   7d                      .byte 0x7d
79 126 ---
   0:   4f                      dec    edi
   1:   7e                      .byte 0x7e
80 32 ---
   0:   50                      push   eax
   1:   20                      .byte 0x20
80 33 ---
   0:   50                      push   eax
   1:   21                      .byte 0x21
80 34 ---
   0:   50                      push   eax
   1:   22                      .byte 0x22
80 35 ---
   0:   50                      push   eax
   1:   23                      .byte 0x23
80 36 ---
   0:   50                      push   eax
   1:   24                      .byte 0x24
80 37 ---
   0:   50                      push   eax
   1:   25                      .byte 0x25
80 38 ---
   0:   50                      push   eax
   1:   26                      es
80 39 ---
   0:   50                      push   eax
   1:   27                      daa
80 40 ---
   0:   50                      push   eax
   1:   28                      .byte 0x28
80 41 ---
   0:   50                      push   eax
   1:   29                      .byte 0x29
80 42 ---
   0:   50                      push   eax
   1:   2a                      .byte 0x2a
80 43 ---
   0:   50                      push   eax
   1:   2b                      .byte 0x2b
80 44 ---
   0:   50                      push   eax
   1:   2c                      .byte 0x2c
80 45 ---
   0:   50                      push   eax
   1:   2d                      .byte 0x2d
80 46 ---
   0:   50                      push   eax
   1:   2e                      cs
80 47 ---
   0:   50                      push   eax
   1:   2f                      das
80 48 ---
   0:   50                      push   eax
   1:   30                      .byte 0x30
80 49 ---
   0:   50                      push   eax
   1:   31                      .byte 0x31
80 50 ---
   0:   50                      push   eax
   1:   32                      .byte 0x32
80 51 ---
   0:   50                      push   eax
   1:   33                      .byte 0x33
80 52 ---
   0:   50                      push   eax
   1:   34                      .byte 0x34
80 53 ---
   0:   50                      push   eax
   1:   35                      .byte 0x35
80 54 ---
   0:   50                      push   eax
   1:   36                      ss
80 55 ---
   0:   50                      push   eax
   1:   37                      aaa
80 56 ---
   0:   50                      push   eax
   1:   38                      .byte 0x38
80 57 ---
   0:   50                      push   eax
   1:   39                      .byte 0x39
80 58 ---
   0:   50                      push   eax
   1:   3a                      .byte 0x3a
80 59 ---
   0:   50                      push   eax
   1:   3b                      .byte 0x3b
80 60 ---
   0:   50                      push   eax
   1:   3c                      .byte 0x3c
80 61 ---
   0:   50                      push   eax
   1:   3d                      .byte 0x3d
80 62 ---
   0:   50                      push   eax
   1:   3e                      ds
80 63 ---
   0:   50                      push   eax
   1:   3f                      aas
80 64 ---
   0:   50                      push   eax
   1:   40                      inc    eax
80 65 ---
   0:   50                      push   eax
   1:   41                      inc    ecx
80 66 ---
   0:   50                      push   eax
   1:   42                      inc    edx
80 67 ---
   0:   50                      push   eax
   1:   43                      inc    ebx
80 68 ---
   0:   50                      push   eax
   1:   44                      inc    esp
80 69 ---
   0:   50                      push   eax
   1:   45                      inc    ebp
80 70 ---
   0:   50                      push   eax
   1:   46                      inc    esi
80 71 ---
   0:   50                      push   eax
   1:   47                      inc    edi
80 72 ---
   0:   50                      push   eax
   1:   48                      dec    eax
80 73 ---
   0:   50                      push   eax
   1:   49                      dec    ecx
80 74 ---
   0:   50                      push   eax
   1:   4a                      dec    edx
80 75 ---
   0:   50                      push   eax
   1:   4b                      dec    ebx
80 76 ---
   0:   50                      push   eax
   1:   4c                      dec    esp
80 77 ---
   0:   50                      push   eax
   1:   4d                      dec    ebp
80 78 ---
   0:   50                      push   eax
   1:   4e                      dec    esi
80 79 ---
   0:   50                      push   eax
   1:   4f                      dec    edi
80 80 ---
   0:   50                      push   eax
   1:   50                      push   eax
80 81 ---
   0:   50                      push   eax
   1:   51                      push   ecx
80 82 ---
   0:   50                      push   eax
   1:   52                      push   edx
80 83 ---
   0:   50                      push   eax
   1:   53                      push   ebx
80 84 ---
   0:   50                      push   eax
   1:   54                      push   esp
80 85 ---
   0:   50                      push   eax
   1:   55                      push   ebp
80 86 ---
   0:   50                      push   eax
   1:   56                      push   esi
80 87 ---
   0:   50                      push   eax
   1:   57                      push   edi
80 88 ---
   0:   50                      push   eax
   1:   58                      pop    eax
80 89 ---
   0:   50                      push   eax
   1:   59                      pop    ecx
80 90 ---
   0:   50                      push   eax
   1:   5a                      pop    edx
80 91 ---
   0:   50                      push   eax
   1:   5b                      pop    ebx
80 92 ---
   0:   50                      push   eax
   1:   5c                      pop    esp
80 93 ---
   0:   50                      push   eax
   1:   5d                      pop    ebp
80 94 ---
   0:   50                      push   eax
   1:   5e                      pop    esi
80 95 ---
   0:   50                      push   eax
   1:   5f                      pop    edi
80 96 ---
   0:   50                      push   eax
   1:   60                      pusha
80 97 ---
   0:   50                      push   eax
   1:   61                      popa
80 98 ---
   0:   50                      push   eax
   1:   62                      .byte 0x62
80 99 ---
   0:   50                      push   eax
   1:   63                      .byte 0x63
80 100 ---
   0:   50                      push   eax
   1:   64                      fs
80 101 ---
   0:   50                      push   eax
   1:   65                      gs
80 102 ---
   0:   50                      push   eax
   1:   66                      data16
80 103 ---
   0:   50                      push   eax
   1:   67                      addr16
80 104 ---
   0:   50                      push   eax
   1:   68                      .byte 0x68
80 105 ---
   0:   50                      push   eax
   1:   69                      .byte 0x69
80 106 ---
   0:   50                      push   eax
   1:   6a                      .byte 0x6a
80 107 ---
   0:   50                      push   eax
   1:   6b                      .byte 0x6b
80 108 ---
   0:   50                      push   eax
   1:   6c                      ins    BYTE PTR es:[edi],dx
80 109 ---
   0:   50                      push   eax
   1:   6d                      ins    DWORD PTR es:[edi],dx
80 110 ---
   0:   50                      push   eax
   1:   6e                      outs   dx,BYTE PTR ds:[esi]
80 111 ---
   0:   50                      push   eax
   1:   6f                      outs   dx,DWORD PTR ds:[esi]
80 112 ---
   0:   50                      push   eax
   1:   70                      .byte 0x70
80 113 ---
   0:   50                      push   eax
   1:   71                      .byte 0x71
80 114 ---
   0:   50                      push   eax
   1:   72                      .byte 0x72
80 115 ---
   0:   50                      push   eax
   1:   73                      .byte 0x73
80 116 ---
   0:   50                      push   eax
   1:   74                      .byte 0x74
80 117 ---
   0:   50                      push   eax
   1:   75                      .byte 0x75
80 118 ---
   0:   50                      push   eax
   1:   76                      .byte 0x76
80 119 ---
   0:   50                      push   eax
   1:   77                      .byte 0x77
80 120 ---
   0:   50                      push   eax
   1:   78                      .byte 0x78
80 121 ---
   0:   50                      push   eax
   1:   79                      .byte 0x79
80 122 ---
   0:   50                      push   eax
   1:   7a                      .byte 0x7a
80 123 ---
   0:   50                      push   eax
   1:   7b                      .byte 0x7b
80 124 ---
   0:   50                      push   eax
   1:   7c                      .byte 0x7c
80 125 ---
   0:   50                      push   eax
   1:   7d                      .byte 0x7d
80 126 ---
   0:   50                      push   eax
   1:   7e                      .byte 0x7e
81 32 ---
   0:   51                      push   ecx
   1:   20                      .byte 0x20
81 33 ---
   0:   51                      push   ecx
   1:   21                      .byte 0x21
81 34 ---
   0:   51                      push   ecx
   1:   22                      .byte 0x22
81 35 ---
   0:   51                      push   ecx
   1:   23                      .byte 0x23
81 36 ---
   0:   51                      push   ecx
   1:   24                      .byte 0x24
81 37 ---
   0:   51                      push   ecx
   1:   25                      .byte 0x25
81 38 ---
   0:   51                      push   ecx
   1:   26                      es
81 39 ---
   0:   51                      push   ecx
   1:   27                      daa
81 40 ---
   0:   51                      push   ecx
   1:   28                      .byte 0x28
81 41 ---
   0:   51                      push   ecx
   1:   29                      .byte 0x29
81 42 ---
   0:   51                      push   ecx
   1:   2a                      .byte 0x2a
81 43 ---
   0:   51                      push   ecx
   1:   2b                      .byte 0x2b
81 44 ---
   0:   51                      push   ecx
   1:   2c                      .byte 0x2c
81 45 ---
   0:   51                      push   ecx
   1:   2d                      .byte 0x2d
81 46 ---
   0:   51                      push   ecx
   1:   2e                      cs
81 47 ---
   0:   51                      push   ecx
   1:   2f                      das
81 48 ---
   0:   51                      push   ecx
   1:   30                      .byte 0x30
81 49 ---
   0:   51                      push   ecx
   1:   31                      .byte 0x31
81 50 ---
   0:   51                      push   ecx
   1:   32                      .byte 0x32
81 51 ---
   0:   51                      push   ecx
   1:   33                      .byte 0x33
81 52 ---
   0:   51                      push   ecx
   1:   34                      .byte 0x34
81 53 ---
   0:   51                      push   ecx
   1:   35                      .byte 0x35
81 54 ---
   0:   51                      push   ecx
   1:   36                      ss
81 55 ---
   0:   51                      push   ecx
   1:   37                      aaa
81 56 ---
   0:   51                      push   ecx
   1:   38                      .byte 0x38
81 57 ---
   0:   51                      push   ecx
   1:   39                      .byte 0x39
81 58 ---
   0:   51                      push   ecx
   1:   3a                      .byte 0x3a
81 59 ---
   0:   51                      push   ecx
   1:   3b                      .byte 0x3b
81 60 ---
   0:   51                      push   ecx
   1:   3c                      .byte 0x3c
81 61 ---
   0:   51                      push   ecx
   1:   3d                      .byte 0x3d
81 62 ---
   0:   51                      push   ecx
   1:   3e                      ds
81 63 ---
   0:   51                      push   ecx
   1:   3f                      aas
81 64 ---
   0:   51                      push   ecx
   1:   40                      inc    eax
81 65 ---
   0:   51                      push   ecx
   1:   41                      inc    ecx
81 66 ---
   0:   51                      push   ecx
   1:   42                      inc    edx
81 67 ---
   0:   51                      push   ecx
   1:   43                      inc    ebx
81 68 ---
   0:   51                      push   ecx
   1:   44                      inc    esp
81 69 ---
   0:   51                      push   ecx
   1:   45                      inc    ebp
81 70 ---
   0:   51                      push   ecx
   1:   46                      inc    esi
81 71 ---
   0:   51                      push   ecx
   1:   47                      inc    edi
81 72 ---
   0:   51                      push   ecx
   1:   48                      dec    eax
81 73 ---
   0:   51                      push   ecx
   1:   49                      dec    ecx
81 74 ---
   0:   51                      push   ecx
   1:   4a                      dec    edx
81 75 ---
   0:   51                      push   ecx
   1:   4b                      dec    ebx
81 76 ---
   0:   51                      push   ecx
   1:   4c                      dec    esp
81 77 ---
   0:   51                      push   ecx
   1:   4d                      dec    ebp
81 78 ---
   0:   51                      push   ecx
   1:   4e                      dec    esi
81 79 ---
   0:   51                      push   ecx
   1:   4f                      dec    edi
81 80 ---
   0:   51                      push   ecx
   1:   50                      push   eax
81 81 ---
   0:   51                      push   ecx
   1:   51                      push   ecx
81 82 ---
   0:   51                      push   ecx
   1:   52                      push   edx
81 83 ---
   0:   51                      push   ecx
   1:   53                      push   ebx
81 84 ---
   0:   51                      push   ecx
   1:   54                      push   esp
81 85 ---
   0:   51                      push   ecx
   1:   55                      push   ebp
81 86 ---
   0:   51                      push   ecx
   1:   56                      push   esi
81 87 ---
   0:   51                      push   ecx
   1:   57                      push   edi
81 88 ---
   0:   51                      push   ecx
   1:   58                      pop    eax
81 89 ---
   0:   51                      push   ecx
   1:   59                      pop    ecx
81 90 ---
   0:   51                      push   ecx
   1:   5a                      pop    edx
81 91 ---
   0:   51                      push   ecx
   1:   5b                      pop    ebx
81 92 ---
   0:   51                      push   ecx
   1:   5c                      pop    esp
81 93 ---
   0:   51                      push   ecx
   1:   5d                      pop    ebp
81 94 ---
   0:   51                      push   ecx
   1:   5e                      pop    esi
81 95 ---
   0:   51                      push   ecx
   1:   5f                      pop    edi
81 96 ---
   0:   51                      push   ecx
   1:   60                      pusha
81 97 ---
   0:   51                      push   ecx
   1:   61                      popa
81 98 ---
   0:   51                      push   ecx
   1:   62                      .byte 0x62
81 99 ---
   0:   51                      push   ecx
   1:   63                      .byte 0x63
81 100 ---
   0:   51                      push   ecx
   1:   64                      fs
81 101 ---
   0:   51                      push   ecx
   1:   65                      gs
81 102 ---
   0:   51                      push   ecx
   1:   66                      data16
81 103 ---
   0:   51                      push   ecx
   1:   67                      addr16
81 104 ---
   0:   51                      push   ecx
   1:   68                      .byte 0x68
81 105 ---
   0:   51                      push   ecx
   1:   69                      .byte 0x69
81 106 ---
   0:   51                      push   ecx
   1:   6a                      .byte 0x6a
81 107 ---
   0:   51                      push   ecx
   1:   6b                      .byte 0x6b
81 108 ---
   0:   51                      push   ecx
   1:   6c                      ins    BYTE PTR es:[edi],dx
81 109 ---
   0:   51                      push   ecx
   1:   6d                      ins    DWORD PTR es:[edi],dx
81 110 ---
   0:   51                      push   ecx
   1:   6e                      outs   dx,BYTE PTR ds:[esi]
81 111 ---
   0:   51                      push   ecx
   1:   6f                      outs   dx,DWORD PTR ds:[esi]
81 112 ---
   0:   51                      push   ecx
   1:   70                      .byte 0x70
81 113 ---
   0:   51                      push   ecx
   1:   71                      .byte 0x71
81 114 ---
   0:   51                      push   ecx
   1:   72                      .byte 0x72
81 115 ---
   0:   51                      push   ecx
   1:   73                      .byte 0x73
81 116 ---
   0:   51                      push   ecx
   1:   74                      .byte 0x74
81 117 ---
   0:   51                      push   ecx
   1:   75                      .byte 0x75
81 118 ---
   0:   51                      push   ecx
   1:   76                      .byte 0x76
81 119 ---
   0:   51                      push   ecx
   1:   77                      .byte 0x77
81 120 ---
   0:   51                      push   ecx
   1:   78                      .byte 0x78
81 121 ---
   0:   51                      push   ecx
   1:   79                      .byte 0x79
81 122 ---
   0:   51                      push   ecx
   1:   7a                      .byte 0x7a
81 123 ---
   0:   51                      push   ecx
   1:   7b                      .byte 0x7b
81 124 ---
   0:   51                      push   ecx
   1:   7c                      .byte 0x7c
81 125 ---
   0:   51                      push   ecx
   1:   7d                      .byte 0x7d
81 126 ---
   0:   51                      push   ecx
   1:   7e                      .byte 0x7e
82 32 ---
   0:   52                      push   edx
   1:   20                      .byte 0x20
82 33 ---
   0:   52                      push   edx
   1:   21                      .byte 0x21
82 34 ---
   0:   52                      push   edx
   1:   22                      .byte 0x22
82 35 ---
   0:   52                      push   edx
   1:   23                      .byte 0x23
82 36 ---
   0:   52                      push   edx
   1:   24                      .byte 0x24
82 37 ---
   0:   52                      push   edx
   1:   25                      .byte 0x25
82 38 ---
   0:   52                      push   edx
   1:   26                      es
82 39 ---
   0:   52                      push   edx
   1:   27                      daa
82 40 ---
   0:   52                      push   edx
   1:   28                      .byte 0x28
82 41 ---
   0:   52                      push   edx
   1:   29                      .byte 0x29
82 42 ---
   0:   52                      push   edx
   1:   2a                      .byte 0x2a
82 43 ---
   0:   52                      push   edx
   1:   2b                      .byte 0x2b
82 44 ---
   0:   52                      push   edx
   1:   2c                      .byte 0x2c
82 45 ---
   0:   52                      push   edx
   1:   2d                      .byte 0x2d
82 46 ---
   0:   52                      push   edx
   1:   2e                      cs
82 47 ---
   0:   52                      push   edx
   1:   2f                      das
82 48 ---
   0:   52                      push   edx
   1:   30                      .byte 0x30
82 49 ---
   0:   52                      push   edx
   1:   31                      .byte 0x31
82 50 ---
   0:   52                      push   edx
   1:   32                      .byte 0x32
82 51 ---
   0:   52                      push   edx
   1:   33                      .byte 0x33
82 52 ---
   0:   52                      push   edx
   1:   34                      .byte 0x34
82 53 ---
   0:   52                      push   edx
   1:   35                      .byte 0x35
82 54 ---
   0:   52                      push   edx
   1:   36                      ss
82 55 ---
   0:   52                      push   edx
   1:   37                      aaa
82 56 ---
   0:   52                      push   edx
   1:   38                      .byte 0x38
82 57 ---
   0:   52                      push   edx
   1:   39                      .byte 0x39
82 58 ---
   0:   52                      push   edx
   1:   3a                      .byte 0x3a
82 59 ---
   0:   52                      push   edx
   1:   3b                      .byte 0x3b
82 60 ---
   0:   52                      push   edx
   1:   3c                      .byte 0x3c
82 61 ---
   0:   52                      push   edx
   1:   3d                      .byte 0x3d
82 62 ---
   0:   52                      push   edx
   1:   3e                      ds
82 63 ---
   0:   52                      push   edx
   1:   3f                      aas
82 64 ---
   0:   52                      push   edx
   1:   40                      inc    eax
82 65 ---
   0:   52                      push   edx
   1:   41                      inc    ecx
82 66 ---
   0:   52                      push   edx
   1:   42                      inc    edx
82 67 ---
   0:   52                      push   edx
   1:   43                      inc    ebx
82 68 ---
   0:   52                      push   edx
   1:   44                      inc    esp
82 69 ---
   0:   52                      push   edx
   1:   45                      inc    ebp
82 70 ---
   0:   52                      push   edx
   1:   46                      inc    esi
82 71 ---
   0:   52                      push   edx
   1:   47                      inc    edi
82 72 ---
   0:   52                      push   edx
   1:   48                      dec    eax
82 73 ---
   0:   52                      push   edx
   1:   49                      dec    ecx
82 74 ---
   0:   52                      push   edx
   1:   4a                      dec    edx
82 75 ---
   0:   52                      push   edx
   1:   4b                      dec    ebx
82 76 ---
   0:   52                      push   edx
   1:   4c                      dec    esp
82 77 ---
   0:   52                      push   edx
   1:   4d                      dec    ebp
82 78 ---
   0:   52                      push   edx
   1:   4e                      dec    esi
82 79 ---
   0:   52                      push   edx
   1:   4f                      dec    edi
82 80 ---
   0:   52                      push   edx
   1:   50                      push   eax
82 81 ---
   0:   52                      push   edx
   1:   51                      push   ecx
82 82 ---
   0:   52                      push   edx
   1:   52                      push   edx
82 83 ---
   0:   52                      push   edx
   1:   53                      push   ebx
82 84 ---
   0:   52                      push   edx
   1:   54                      push   esp
82 85 ---
   0:   52                      push   edx
   1:   55                      push   ebp
82 86 ---
   0:   52                      push   edx
   1:   56                      push   esi
82 87 ---
   0:   52                      push   edx
   1:   57                      push   edi
82 88 ---
   0:   52                      push   edx
   1:   58                      pop    eax
82 89 ---
   0:   52                      push   edx
   1:   59                      pop    ecx
82 90 ---
   0:   52                      push   edx
   1:   5a                      pop    edx
82 91 ---
   0:   52                      push   edx
   1:   5b                      pop    ebx
82 92 ---
   0:   52                      push   edx
   1:   5c                      pop    esp
82 93 ---
   0:   52                      push   edx
   1:   5d                      pop    ebp
82 94 ---
   0:   52                      push   edx
   1:   5e                      pop    esi
82 95 ---
   0:   52                      push   edx
   1:   5f                      pop    edi
82 96 ---
   0:   52                      push   edx
   1:   60                      pusha
82 97 ---
   0:   52                      push   edx
   1:   61                      popa
82 98 ---
   0:   52                      push   edx
   1:   62                      .byte 0x62
82 99 ---
   0:   52                      push   edx
   1:   63                      .byte 0x63
82 100 ---
   0:   52                      push   edx
   1:   64                      fs
82 101 ---
   0:   52                      push   edx
   1:   65                      gs
82 102 ---
   0:   52                      push   edx
   1:   66                      data16
82 103 ---
   0:   52                      push   edx
   1:   67                      addr16
82 104 ---
   0:   52                      push   edx
   1:   68                      .byte 0x68
82 105 ---
   0:   52                      push   edx
   1:   69                      .byte 0x69
82 106 ---
   0:   52                      push   edx
   1:   6a                      .byte 0x6a
82 107 ---
   0:   52                      push   edx
   1:   6b                      .byte 0x6b
82 108 ---
   0:   52                      push   edx
   1:   6c                      ins    BYTE PTR es:[edi],dx
82 109 ---
   0:   52                      push   edx
   1:   6d                      ins    DWORD PTR es:[edi],dx
82 110 ---
   0:   52                      push   edx
   1:   6e                      outs   dx,BYTE PTR ds:[esi]
82 111 ---
   0:   52                      push   edx
   1:   6f                      outs   dx,DWORD PTR ds:[esi]
82 112 ---
   0:   52                      push   edx
   1:   70                      .byte 0x70
82 113 ---
   0:   52                      push   edx
   1:   71                      .byte 0x71
82 114 ---
   0:   52                      push   edx
   1:   72                      .byte 0x72
82 115 ---
   0:   52                      push   edx
   1:   73                      .byte 0x73
82 116 ---
   0:   52                      push   edx
   1:   74                      .byte 0x74
82 117 ---
   0:   52                      push   edx
   1:   75                      .byte 0x75
82 118 ---
   0:   52                      push   edx
   1:   76                      .byte 0x76
82 119 ---
   0:   52                      push   edx
   1:   77                      .byte 0x77
82 120 ---
   0:   52                      push   edx
   1:   78                      .byte 0x78
82 121 ---
   0:   52                      push   edx
   1:   79                      .byte 0x79
82 122 ---
   0:   52                      push   edx
   1:   7a                      .byte 0x7a
82 123 ---
   0:   52                      push   edx
   1:   7b                      .byte 0x7b
82 124 ---
   0:   52                      push   edx
   1:   7c                      .byte 0x7c
82 125 ---
   0:   52                      push   edx
   1:   7d                      .byte 0x7d
82 126 ---
   0:   52                      push   edx
   1:   7e                      .byte 0x7e
83 32 ---
   0:   53                      push   ebx
   1:   20                      .byte 0x20
83 33 ---
   0:   53                      push   ebx
   1:   21                      .byte 0x21
83 34 ---
   0:   53                      push   ebx
   1:   22                      .byte 0x22
83 35 ---
   0:   53                      push   ebx
   1:   23                      .byte 0x23
83 36 ---
   0:   53                      push   ebx
   1:   24                      .byte 0x24
83 37 ---
   0:   53                      push   ebx
   1:   25                      .byte 0x25
83 38 ---
   0:   53                      push   ebx
   1:   26                      es
83 39 ---
   0:   53                      push   ebx
   1:   27                      daa
83 40 ---
   0:   53                      push   ebx
   1:   28                      .byte 0x28
83 41 ---
   0:   53                      push   ebx
   1:   29                      .byte 0x29
83 42 ---
   0:   53                      push   ebx
   1:   2a                      .byte 0x2a
83 43 ---
   0:   53                      push   ebx
   1:   2b                      .byte 0x2b
83 44 ---
   0:   53                      push   ebx
   1:   2c                      .byte 0x2c
83 45 ---
   0:   53                      push   ebx
   1:   2d                      .byte 0x2d
83 46 ---
   0:   53                      push   ebx
   1:   2e                      cs
83 47 ---
   0:   53                      push   ebx
   1:   2f                      das
83 48 ---
   0:   53                      push   ebx
   1:   30                      .byte 0x30
83 49 ---
   0:   53                      push   ebx
   1:   31                      .byte 0x31
83 50 ---
   0:   53                      push   ebx
   1:   32                      .byte 0x32
83 51 ---
   0:   53                      push   ebx
   1:   33                      .byte 0x33
83 52 ---
   0:   53                      push   ebx
   1:   34                      .byte 0x34
83 53 ---
   0:   53                      push   ebx
   1:   35                      .byte 0x35
83 54 ---
   0:   53                      push   ebx
   1:   36                      ss
83 55 ---
   0:   53                      push   ebx
   1:   37                      aaa
83 56 ---
   0:   53                      push   ebx
   1:   38                      .byte 0x38
83 57 ---
   0:   53                      push   ebx
   1:   39                      .byte 0x39
83 58 ---
   0:   53                      push   ebx
   1:   3a                      .byte 0x3a
83 59 ---
   0:   53                      push   ebx
   1:   3b                      .byte 0x3b
83 60 ---
   0:   53                      push   ebx
   1:   3c                      .byte 0x3c
83 61 ---
   0:   53                      push   ebx
   1:   3d                      .byte 0x3d
83 62 ---
   0:   53                      push   ebx
   1:   3e                      ds
83 63 ---
   0:   53                      push   ebx
   1:   3f                      aas
83 64 ---
   0:   53                      push   ebx
   1:   40                      inc    eax
83 65 ---
   0:   53                      push   ebx
   1:   41                      inc    ecx
83 66 ---
   0:   53                      push   ebx
   1:   42                      inc    edx
83 67 ---
   0:   53                      push   ebx
   1:   43                      inc    ebx
83 68 ---
   0:   53                      push   ebx
   1:   44                      inc    esp
83 69 ---
   0:   53                      push   ebx
   1:   45                      inc    ebp
83 70 ---
   0:   53                      push   ebx
   1:   46                      inc    esi
83 71 ---
   0:   53                      push   ebx
   1:   47                      inc    edi
83 72 ---
   0:   53                      push   ebx
   1:   48                      dec    eax
83 73 ---
   0:   53                      push   ebx
   1:   49                      dec    ecx
83 74 ---
   0:   53                      push   ebx
   1:   4a                      dec    edx
83 75 ---
   0:   53                      push   ebx
   1:   4b                      dec    ebx
83 76 ---
   0:   53                      push   ebx
   1:   4c                      dec    esp
83 77 ---
   0:   53                      push   ebx
   1:   4d                      dec    ebp
83 78 ---
   0:   53                      push   ebx
   1:   4e                      dec    esi
83 79 ---
   0:   53                      push   ebx
   1:   4f                      dec    edi
83 80 ---
   0:   53                      push   ebx
   1:   50                      push   eax
83 81 ---
   0:   53                      push   ebx
   1:   51                      push   ecx
83 82 ---
   0:   53                      push   ebx
   1:   52                      push   edx
83 83 ---
   0:   53                      push   ebx
   1:   53                      push   ebx
83 84 ---
   0:   53                      push   ebx
   1:   54                      push   esp
83 85 ---
   0:   53                      push   ebx
   1:   55                      push   ebp
83 86 ---
   0:   53                      push   ebx
   1:   56                      push   esi
83 87 ---
   0:   53                      push   ebx
   1:   57                      push   edi
83 88 ---
   0:   53                      push   ebx
   1:   58                      pop    eax
83 89 ---
   0:   53                      push   ebx
   1:   59                      pop    ecx
83 90 ---
   0:   53                      push   ebx
   1:   5a                      pop    edx
83 91 ---
   0:   53                      push   ebx
   1:   5b                      pop    ebx
83 92 ---
   0:   53                      push   ebx
   1:   5c                      pop    esp
83 93 ---
   0:   53                      push   ebx
   1:   5d                      pop    ebp
83 94 ---
   0:   53                      push   ebx
   1:   5e                      pop    esi
83 95 ---
   0:   53                      push   ebx
   1:   5f                      pop    edi
83 96 ---
   0:   53                      push   ebx
   1:   60                      pusha
83 97 ---
   0:   53                      push   ebx
   1:   61                      popa
83 98 ---
   0:   53                      push   ebx
   1:   62                      .byte 0x62
83 99 ---
   0:   53                      push   ebx
   1:   63                      .byte 0x63
83 100 ---
   0:   53                      push   ebx
   1:   64                      fs
83 101 ---
   0:   53                      push   ebx
   1:   65                      gs
83 102 ---
   0:   53                      push   ebx
   1:   66                      data16
83 103 ---
   0:   53                      push   ebx
   1:   67                      addr16
83 104 ---
   0:   53                      push   ebx
   1:   68                      .byte 0x68
83 105 ---
   0:   53                      push   ebx
   1:   69                      .byte 0x69
83 106 ---
   0:   53                      push   ebx
   1:   6a                      .byte 0x6a
83 107 ---
   0:   53                      push   ebx
   1:   6b                      .byte 0x6b
83 108 ---
   0:   53                      push   ebx
   1:   6c                      ins    BYTE PTR es:[edi],dx
83 109 ---
   0:   53                      push   ebx
   1:   6d                      ins    DWORD PTR es:[edi],dx
83 110 ---
   0:   53                      push   ebx
   1:   6e                      outs   dx,BYTE PTR ds:[esi]
83 111 ---
   0:   53                      push   ebx
   1:   6f                      outs   dx,DWORD PTR ds:[esi]
83 112 ---
   0:   53                      push   ebx
   1:   70                      .byte 0x70
83 113 ---
   0:   53                      push   ebx
   1:   71                      .byte 0x71
83 114 ---
   0:   53                      push   ebx
   1:   72                      .byte 0x72
83 115 ---
   0:   53                      push   ebx
   1:   73                      .byte 0x73
83 116 ---
   0:   53                      push   ebx
   1:   74                      .byte 0x74
83 117 ---
   0:   53                      push   ebx
   1:   75                      .byte 0x75
83 118 ---
   0:   53                      push   ebx
   1:   76                      .byte 0x76
83 119 ---
   0:   53                      push   ebx
   1:   77                      .byte 0x77
83 120 ---
   0:   53                      push   ebx
   1:   78                      .byte 0x78
83 121 ---
   0:   53                      push   ebx
   1:   79                      .byte 0x79
83 122 ---
   0:   53                      push   ebx
   1:   7a                      .byte 0x7a
83 123 ---
   0:   53                      push   ebx
   1:   7b                      .byte 0x7b
83 124 ---
   0:   53                      push   ebx
   1:   7c                      .byte 0x7c
83 125 ---
   0:   53                      push   ebx
   1:   7d                      .byte 0x7d
83 126 ---
   0:   53                      push   ebx
   1:   7e                      .byte 0x7e
84 32 ---
   0:   54                      push   esp
   1:   20                      .byte 0x20
84 33 ---
   0:   54                      push   esp
   1:   21                      .byte 0x21
84 34 ---
   0:   54                      push   esp
   1:   22                      .byte 0x22
84 35 ---
   0:   54                      push   esp
   1:   23                      .byte 0x23
84 36 ---
   0:   54                      push   esp
   1:   24                      .byte 0x24
84 37 ---
   0:   54                      push   esp
   1:   25                      .byte 0x25
84 38 ---
   0:   54                      push   esp
   1:   26                      es
84 39 ---
   0:   54                      push   esp
   1:   27                      daa
84 40 ---
   0:   54                      push   esp
   1:   28                      .byte 0x28
84 41 ---
   0:   54                      push   esp
   1:   29                      .byte 0x29
84 42 ---
   0:   54                      push   esp
   1:   2a                      .byte 0x2a
84 43 ---
   0:   54                      push   esp
   1:   2b                      .byte 0x2b
84 44 ---
   0:   54                      push   esp
   1:   2c                      .byte 0x2c
84 45 ---
   0:   54                      push   esp
   1:   2d                      .byte 0x2d
84 46 ---
   0:   54                      push   esp
   1:   2e                      cs
84 47 ---
   0:   54                      push   esp
   1:   2f                      das
84 48 ---
   0:   54                      push   esp
   1:   30                      .byte 0x30
84 49 ---
   0:   54                      push   esp
   1:   31                      .byte 0x31
84 50 ---
   0:   54                      push   esp
   1:   32                      .byte 0x32
84 51 ---
   0:   54                      push   esp
   1:   33                      .byte 0x33
84 52 ---
   0:   54                      push   esp
   1:   34                      .byte 0x34
84 53 ---
   0:   54                      push   esp
   1:   35                      .byte 0x35
84 54 ---
   0:   54                      push   esp
   1:   36                      ss
84 55 ---
   0:   54                      push   esp
   1:   37                      aaa
84 56 ---
   0:   54                      push   esp
   1:   38                      .byte 0x38
84 57 ---
   0:   54                      push   esp
   1:   39                      .byte 0x39
84 58 ---
   0:   54                      push   esp
   1:   3a                      .byte 0x3a
84 59 ---
   0:   54                      push   esp
   1:   3b                      .byte 0x3b
84 60 ---
   0:   54                      push   esp
   1:   3c                      .byte 0x3c
84 61 ---
   0:   54                      push   esp
   1:   3d                      .byte 0x3d
84 62 ---
   0:   54                      push   esp
   1:   3e                      ds
84 63 ---
   0:   54                      push   esp
   1:   3f                      aas
84 64 ---
   0:   54                      push   esp
   1:   40                      inc    eax
84 65 ---
   0:   54                      push   esp
   1:   41                      inc    ecx
84 66 ---
   0:   54                      push   esp
   1:   42                      inc    edx
84 67 ---
   0:   54                      push   esp
   1:   43                      inc    ebx
84 68 ---
   0:   54                      push   esp
   1:   44                      inc    esp
84 69 ---
   0:   54                      push   esp
   1:   45                      inc    ebp
84 70 ---
   0:   54                      push   esp
   1:   46                      inc    esi
84 71 ---
   0:   54                      push   esp
   1:   47                      inc    edi
84 72 ---
   0:   54                      push   esp
   1:   48                      dec    eax
84 73 ---
   0:   54                      push   esp
   1:   49                      dec    ecx
84 74 ---
   0:   54                      push   esp
   1:   4a                      dec    edx
84 75 ---
   0:   54                      push   esp
   1:   4b                      dec    ebx
84 76 ---
   0:   54                      push   esp
   1:   4c                      dec    esp
84 77 ---
   0:   54                      push   esp
   1:   4d                      dec    ebp
84 78 ---
   0:   54                      push   esp
   1:   4e                      dec    esi
84 79 ---
   0:   54                      push   esp
   1:   4f                      dec    edi
84 80 ---
   0:   54                      push   esp
   1:   50                      push   eax
84 81 ---
   0:   54                      push   esp
   1:   51                      push   ecx
84 82 ---
   0:   54                      push   esp
   1:   52                      push   edx
84 83 ---
   0:   54                      push   esp
   1:   53                      push   ebx
84 84 ---
   0:   54                      push   esp
   1:   54                      push   esp
84 85 ---
   0:   54                      push   esp
   1:   55                      push   ebp
84 86 ---
   0:   54                      push   esp
   1:   56                      push   esi
84 87 ---
   0:   54                      push   esp
   1:   57                      push   edi
84 88 ---
   0:   54                      push   esp
   1:   58                      pop    eax
84 89 ---
   0:   54                      push   esp
   1:   59                      pop    ecx
84 90 ---
   0:   54                      push   esp
   1:   5a                      pop    edx
84 91 ---
   0:   54                      push   esp
   1:   5b                      pop    ebx
84 92 ---
   0:   54                      push   esp
   1:   5c                      pop    esp
84 93 ---
   0:   54                      push   esp
   1:   5d                      pop    ebp
84 94 ---
   0:   54                      push   esp
   1:   5e                      pop    esi
84 95 ---
   0:   54                      push   esp
   1:   5f                      pop    edi
84 96 ---
   0:   54                      push   esp
   1:   60                      pusha
84 97 ---
   0:   54                      push   esp
   1:   61                      popa
84 98 ---
   0:   54                      push   esp
   1:   62                      .byte 0x62
84 99 ---
   0:   54                      push   esp
   1:   63                      .byte 0x63
84 100 ---
   0:   54                      push   esp
   1:   64                      fs
84 101 ---
   0:   54                      push   esp
   1:   65                      gs
84 102 ---
   0:   54                      push   esp
   1:   66                      data16
84 103 ---
   0:   54                      push   esp
   1:   67                      addr16
84 104 ---
   0:   54                      push   esp
   1:   68                      .byte 0x68
84 105 ---
   0:   54                      push   esp
   1:   69                      .byte 0x69
84 106 ---
   0:   54                      push   esp
   1:   6a                      .byte 0x6a
84 107 ---
   0:   54                      push   esp
   1:   6b                      .byte 0x6b
84 108 ---
   0:   54                      push   esp
   1:   6c                      ins    BYTE PTR es:[edi],dx
84 109 ---
   0:   54                      push   esp
   1:   6d                      ins    DWORD PTR es:[edi],dx
84 110 ---
   0:   54                      push   esp
   1:   6e                      outs   dx,BYTE PTR ds:[esi]
84 111 ---
   0:   54                      push   esp
   1:   6f                      outs   dx,DWORD PTR ds:[esi]
84 112 ---
   0:   54                      push   esp
   1:   70                      .byte 0x70
84 113 ---
   0:   54                      push   esp
   1:   71                      .byte 0x71
84 114 ---
   0:   54                      push   esp
   1:   72                      .byte 0x72
84 115 ---
   0:   54                      push   esp
   1:   73                      .byte 0x73
84 116 ---
   0:   54                      push   esp
   1:   74                      .byte 0x74
84 117 ---
   0:   54                      push   esp
   1:   75                      .byte 0x75
84 118 ---
   0:   54                      push   esp
   1:   76                      .byte 0x76
84 119 ---
   0:   54                      push   esp
   1:   77                      .byte 0x77
84 120 ---
   0:   54                      push   esp
   1:   78                      .byte 0x78
84 121 ---
   0:   54                      push   esp
   1:   79                      .byte 0x79
84 122 ---
   0:   54                      push   esp
   1:   7a                      .byte 0x7a
84 123 ---
   0:   54                      push   esp
   1:   7b                      .byte 0x7b
84 124 ---
   0:   54                      push   esp
   1:   7c                      .byte 0x7c
84 125 ---
   0:   54                      push   esp
   1:   7d                      .byte 0x7d
84 126 ---
   0:   54                      push   esp
   1:   7e                      .byte 0x7e
85 32 ---
   0:   55                      push   ebp
   1:   20                      .byte 0x20
85 33 ---
   0:   55                      push   ebp
   1:   21                      .byte 0x21
85 34 ---
   0:   55                      push   ebp
   1:   22                      .byte 0x22
85 35 ---
   0:   55                      push   ebp
   1:   23                      .byte 0x23
85 36 ---
   0:   55                      push   ebp
   1:   24                      .byte 0x24
85 37 ---
   0:   55                      push   ebp
   1:   25                      .byte 0x25
85 38 ---
   0:   55                      push   ebp
   1:   26                      es
85 39 ---
   0:   55                      push   ebp
   1:   27                      daa
85 40 ---
   0:   55                      push   ebp
   1:   28                      .byte 0x28
85 41 ---
   0:   55                      push   ebp
   1:   29                      .byte 0x29
85 42 ---
   0:   55                      push   ebp
   1:   2a                      .byte 0x2a
85 43 ---
   0:   55                      push   ebp
   1:   2b                      .byte 0x2b
85 44 ---
   0:   55                      push   ebp
   1:   2c                      .byte 0x2c
85 45 ---
   0:   55                      push   ebp
   1:   2d                      .byte 0x2d
85 46 ---
   0:   55                      push   ebp
   1:   2e                      cs
85 47 ---
   0:   55                      push   ebp
   1:   2f                      das
85 48 ---
   0:   55                      push   ebp
   1:   30                      .byte 0x30
85 49 ---
   0:   55                      push   ebp
   1:   31                      .byte 0x31
85 50 ---
   0:   55                      push   ebp
   1:   32                      .byte 0x32
85 51 ---
   0:   55                      push   ebp
   1:   33                      .byte 0x33
85 52 ---
   0:   55                      push   ebp
   1:   34                      .byte 0x34
85 53 ---
   0:   55                      push   ebp
   1:   35                      .byte 0x35
85 54 ---
   0:   55                      push   ebp
   1:   36                      ss
85 55 ---
   0:   55                      push   ebp
   1:   37                      aaa
85 56 ---
   0:   55                      push   ebp
   1:   38                      .byte 0x38
85 57 ---
   0:   55                      push   ebp
   1:   39                      .byte 0x39
85 58 ---
   0:   55                      push   ebp
   1:   3a                      .byte 0x3a
85 59 ---
   0:   55                      push   ebp
   1:   3b                      .byte 0x3b
85 60 ---
   0:   55                      push   ebp
   1:   3c                      .byte 0x3c
85 61 ---
   0:   55                      push   ebp
   1:   3d                      .byte 0x3d
85 62 ---
   0:   55                      push   ebp
   1:   3e                      ds
85 63 ---
   0:   55                      push   ebp
   1:   3f                      aas
85 64 ---
   0:   55                      push   ebp
   1:   40                      inc    eax
85 65 ---
   0:   55                      push   ebp
   1:   41                      inc    ecx
85 66 ---
   0:   55                      push   ebp
   1:   42                      inc    edx
85 67 ---
   0:   55                      push   ebp
   1:   43                      inc    ebx
85 68 ---
   0:   55                      push   ebp
   1:   44                      inc    esp
85 69 ---
   0:   55                      push   ebp
   1:   45                      inc    ebp
85 70 ---
   0:   55                      push   ebp
   1:   46                      inc    esi
85 71 ---
   0:   55                      push   ebp
   1:   47                      inc    edi
85 72 ---
   0:   55                      push   ebp
   1:   48                      dec    eax
85 73 ---
   0:   55                      push   ebp
   1:   49                      dec    ecx
85 74 ---
   0:   55                      push   ebp
   1:   4a                      dec    edx
85 75 ---
   0:   55                      push   ebp
   1:   4b                      dec    ebx
85 76 ---
   0:   55                      push   ebp
   1:   4c                      dec    esp
85 77 ---
   0:   55                      push   ebp
   1:   4d                      dec    ebp
85 78 ---
   0:   55                      push   ebp
   1:   4e                      dec    esi
85 79 ---
   0:   55                      push   ebp
   1:   4f                      dec    edi
85 80 ---
   0:   55                      push   ebp
   1:   50                      push   eax
85 81 ---
   0:   55                      push   ebp
   1:   51                      push   ecx
85 82 ---
   0:   55                      push   ebp
   1:   52                      push   edx
85 83 ---
   0:   55                      push   ebp
   1:   53                      push   ebx
85 84 ---
   0:   55                      push   ebp
   1:   54                      push   esp
85 85 ---
   0:   55                      push   ebp
   1:   55                      push   ebp
85 86 ---
   0:   55                      push   ebp
   1:   56                      push   esi
85 87 ---
   0:   55                      push   ebp
   1:   57                      push   edi
85 88 ---
   0:   55                      push   ebp
   1:   58                      pop    eax
85 89 ---
   0:   55                      push   ebp
   1:   59                      pop    ecx
85 90 ---
   0:   55                      push   ebp
   1:   5a                      pop    edx
85 91 ---
   0:   55                      push   ebp
   1:   5b                      pop    ebx
85 92 ---
   0:   55                      push   ebp
   1:   5c                      pop    esp
85 93 ---
   0:   55                      push   ebp
   1:   5d                      pop    ebp
85 94 ---
   0:   55                      push   ebp
   1:   5e                      pop    esi
85 95 ---
   0:   55                      push   ebp
   1:   5f                      pop    edi
85 96 ---
   0:   55                      push   ebp
   1:   60                      pusha
85 97 ---
   0:   55                      push   ebp
   1:   61                      popa
85 98 ---
   0:   55                      push   ebp
   1:   62                      .byte 0x62
85 99 ---
   0:   55                      push   ebp
   1:   63                      .byte 0x63
85 100 ---
   0:   55                      push   ebp
   1:   64                      fs
85 101 ---
   0:   55                      push   ebp
   1:   65                      gs
85 102 ---
   0:   55                      push   ebp
   1:   66                      data16
85 103 ---
   0:   55                      push   ebp
   1:   67                      addr16
85 104 ---
   0:   55                      push   ebp
   1:   68                      .byte 0x68
85 105 ---
   0:   55                      push   ebp
   1:   69                      .byte 0x69
85 106 ---
   0:   55                      push   ebp
   1:   6a                      .byte 0x6a
85 107 ---
   0:   55                      push   ebp
   1:   6b                      .byte 0x6b
85 108 ---
   0:   55                      push   ebp
   1:   6c                      ins    BYTE PTR es:[edi],dx
85 109 ---
   0:   55                      push   ebp
   1:   6d                      ins    DWORD PTR es:[edi],dx
85 110 ---
   0:   55                      push   ebp
   1:   6e                      outs   dx,BYTE PTR ds:[esi]
85 111 ---
   0:   55                      push   ebp
   1:   6f                      outs   dx,DWORD PTR ds:[esi]
85 112 ---
   0:   55                      push   ebp
   1:   70                      .byte 0x70
85 113 ---
   0:   55                      push   ebp
   1:   71                      .byte 0x71
85 114 ---
   0:   55                      push   ebp
   1:   72                      .byte 0x72
85 115 ---
   0:   55                      push   ebp
   1:   73                      .byte 0x73
85 116 ---
   0:   55                      push   ebp
   1:   74                      .byte 0x74
85 117 ---
   0:   55                      push   ebp
   1:   75                      .byte 0x75
85 118 ---
   0:   55                      push   ebp
   1:   76                      .byte 0x76
85 119 ---
   0:   55                      push   ebp
   1:   77                      .byte 0x77
85 120 ---
   0:   55                      push   ebp
   1:   78                      .byte 0x78
85 121 ---
   0:   55                      push   ebp
   1:   79                      .byte 0x79
85 122 ---
   0:   55                      push   ebp
   1:   7a                      .byte 0x7a
85 123 ---
   0:   55                      push   ebp
   1:   7b                      .byte 0x7b
85 124 ---
   0:   55                      push   ebp
   1:   7c                      .byte 0x7c
85 125 ---
   0:   55                      push   ebp
   1:   7d                      .byte 0x7d
85 126 ---
   0:   55                      push   ebp
   1:   7e                      .byte 0x7e
86 32 ---
   0:   56                      push   esi
   1:   20                      .byte 0x20
86 33 ---
   0:   56                      push   esi
   1:   21                      .byte 0x21
86 34 ---
   0:   56                      push   esi
   1:   22                      .byte 0x22
86 35 ---
   0:   56                      push   esi
   1:   23                      .byte 0x23
86 36 ---
   0:   56                      push   esi
   1:   24                      .byte 0x24
86 37 ---
   0:   56                      push   esi
   1:   25                      .byte 0x25
86 38 ---
   0:   56                      push   esi
   1:   26                      es
86 39 ---
   0:   56                      push   esi
   1:   27                      daa
86 40 ---
   0:   56                      push   esi
   1:   28                      .byte 0x28
86 41 ---
   0:   56                      push   esi
   1:   29                      .byte 0x29
86 42 ---
   0:   56                      push   esi
   1:   2a                      .byte 0x2a
86 43 ---
   0:   56                      push   esi
   1:   2b                      .byte 0x2b
86 44 ---
   0:   56                      push   esi
   1:   2c                      .byte 0x2c
86 45 ---
   0:   56                      push   esi
   1:   2d                      .byte 0x2d
86 46 ---
   0:   56                      push   esi
   1:   2e                      cs
86 47 ---
   0:   56                      push   esi
   1:   2f                      das
86 48 ---
   0:   56                      push   esi
   1:   30                      .byte 0x30
86 49 ---
   0:   56                      push   esi
   1:   31                      .byte 0x31
86 50 ---
   0:   56                      push   esi
   1:   32                      .byte 0x32
86 51 ---
   0:   56                      push   esi
   1:   33                      .byte 0x33
86 52 ---
   0:   56                      push   esi
   1:   34                      .byte 0x34
86 53 ---
   0:   56                      push   esi
   1:   35                      .byte 0x35
86 54 ---
   0:   56                      push   esi
   1:   36                      ss
86 55 ---
   0:   56                      push   esi
   1:   37                      aaa
86 56 ---
   0:   56                      push   esi
   1:   38                      .byte 0x38
86 57 ---
   0:   56                      push   esi
   1:   39                      .byte 0x39
86 58 ---
   0:   56                      push   esi
   1:   3a                      .byte 0x3a
86 59 ---
   0:   56                      push   esi
   1:   3b                      .byte 0x3b
86 60 ---
   0:   56                      push   esi
   1:   3c                      .byte 0x3c
86 61 ---
   0:   56                      push   esi
   1:   3d                      .byte 0x3d
86 62 ---
   0:   56                      push   esi
   1:   3e                      ds
86 63 ---
   0:   56                      push   esi
   1:   3f                      aas
86 64 ---
   0:   56                      push   esi
   1:   40                      inc    eax
86 65 ---
   0:   56                      push   esi
   1:   41                      inc    ecx
86 66 ---
   0:   56                      push   esi
   1:   42                      inc    edx
86 67 ---
   0:   56                      push   esi
   1:   43                      inc    ebx
86 68 ---
   0:   56                      push   esi
   1:   44                      inc    esp
86 69 ---
   0:   56                      push   esi
   1:   45                      inc    ebp
86 70 ---
   0:   56                      push   esi
   1:   46                      inc    esi
86 71 ---
   0:   56                      push   esi
   1:   47                      inc    edi
86 72 ---
   0:   56                      push   esi
   1:   48                      dec    eax
86 73 ---
   0:   56                      push   esi
   1:   49                      dec    ecx
86 74 ---
   0:   56                      push   esi
   1:   4a                      dec    edx
86 75 ---
   0:   56                      push   esi
   1:   4b                      dec    ebx
86 76 ---
   0:   56                      push   esi
   1:   4c                      dec    esp
86 77 ---
   0:   56                      push   esi
   1:   4d                      dec    ebp
86 78 ---
   0:   56                      push   esi
   1:   4e                      dec    esi
86 79 ---
   0:   56                      push   esi
   1:   4f                      dec    edi
86 80 ---
   0:   56                      push   esi
   1:   50                      push   eax
86 81 ---
   0:   56                      push   esi
   1:   51                      push   ecx
86 82 ---
   0:   56                      push   esi
   1:   52                      push   edx
86 83 ---
   0:   56                      push   esi
   1:   53                      push   ebx
86 84 ---
   0:   56                      push   esi
   1:   54                      push   esp
86 85 ---
   0:   56                      push   esi
   1:   55                      push   ebp
86 86 ---
   0:   56                      push   esi
   1:   56                      push   esi
86 87 ---
   0:   56                      push   esi
   1:   57                      push   edi
86 88 ---
   0:   56                      push   esi
   1:   58                      pop    eax
86 89 ---
   0:   56                      push   esi
   1:   59                      pop    ecx
86 90 ---
   0:   56                      push   esi
   1:   5a                      pop    edx
86 91 ---
   0:   56                      push   esi
   1:   5b                      pop    ebx
86 92 ---
   0:   56                      push   esi
   1:   5c                      pop    esp
86 93 ---
   0:   56                      push   esi
   1:   5d                      pop    ebp
86 94 ---
   0:   56                      push   esi
   1:   5e                      pop    esi
86 95 ---
   0:   56                      push   esi
   1:   5f                      pop    edi
86 96 ---
   0:   56                      push   esi
   1:   60                      pusha
86 97 ---
   0:   56                      push   esi
   1:   61                      popa
86 98 ---
   0:   56                      push   esi
   1:   62                      .byte 0x62
86 99 ---
   0:   56                      push   esi
   1:   63                      .byte 0x63
86 100 ---
   0:   56                      push   esi
   1:   64                      fs
86 101 ---
   0:   56                      push   esi
   1:   65                      gs
86 102 ---
   0:   56                      push   esi
   1:   66                      data16
86 103 ---
   0:   56                      push   esi
   1:   67                      addr16
86 104 ---
   0:   56                      push   esi
   1:   68                      .byte 0x68
86 105 ---
   0:   56                      push   esi
   1:   69                      .byte 0x69
86 106 ---
   0:   56                      push   esi
   1:   6a                      .byte 0x6a
86 107 ---
   0:   56                      push   esi
   1:   6b                      .byte 0x6b
86 108 ---
   0:   56                      push   esi
   1:   6c                      ins    BYTE PTR es:[edi],dx
86 109 ---
   0:   56                      push   esi
   1:   6d                      ins    DWORD PTR es:[edi],dx
86 110 ---
   0:   56                      push   esi
   1:   6e                      outs   dx,BYTE PTR ds:[esi]
86 111 ---
   0:   56                      push   esi
   1:   6f                      outs   dx,DWORD PTR ds:[esi]
86 112 ---
   0:   56                      push   esi
   1:   70                      .byte 0x70
86 113 ---
   0:   56                      push   esi
   1:   71                      .byte 0x71
86 114 ---
   0:   56                      push   esi
   1:   72                      .byte 0x72
86 115 ---
   0:   56                      push   esi
   1:   73                      .byte 0x73
86 116 ---
   0:   56                      push   esi
   1:   74                      .byte 0x74
86 117 ---
   0:   56                      push   esi
   1:   75                      .byte 0x75
86 118 ---
   0:   56                      push   esi
   1:   76                      .byte 0x76
86 119 ---
   0:   56                      push   esi
   1:   77                      .byte 0x77
86 120 ---
   0:   56                      push   esi
   1:   78                      .byte 0x78
86 121 ---
   0:   56                      push   esi
   1:   79                      .byte 0x79
86 122 ---
   0:   56                      push   esi
   1:   7a                      .byte 0x7a
86 123 ---
   0:   56                      push   esi
   1:   7b                      .byte 0x7b
86 124 ---
   0:   56                      push   esi
   1:   7c                      .byte 0x7c
86 125 ---
   0:   56                      push   esi
   1:   7d                      .byte 0x7d
86 126 ---
   0:   56                      push   esi
   1:   7e                      .byte 0x7e
87 32 ---
   0:   57                      push   edi
   1:   20                      .byte 0x20
87 33 ---
   0:   57                      push   edi
   1:   21                      .byte 0x21
87 34 ---
   0:   57                      push   edi
   1:   22                      .byte 0x22
87 35 ---
   0:   57                      push   edi
   1:   23                      .byte 0x23
87 36 ---
   0:   57                      push   edi
   1:   24                      .byte 0x24
87 37 ---
   0:   57                      push   edi
   1:   25                      .byte 0x25
87 38 ---
   0:   57                      push   edi
   1:   26                      es
87 39 ---
   0:   57                      push   edi
   1:   27                      daa
87 40 ---
   0:   57                      push   edi
   1:   28                      .byte 0x28
87 41 ---
   0:   57                      push   edi
   1:   29                      .byte 0x29
87 42 ---
   0:   57                      push   edi
   1:   2a                      .byte 0x2a
87 43 ---
   0:   57                      push   edi
   1:   2b                      .byte 0x2b
87 44 ---
   0:   57                      push   edi
   1:   2c                      .byte 0x2c
87 45 ---
   0:   57                      push   edi
   1:   2d                      .byte 0x2d
87 46 ---
   0:   57                      push   edi
   1:   2e                      cs
87 47 ---
   0:   57                      push   edi
   1:   2f                      das
87 48 ---
   0:   57                      push   edi
   1:   30                      .byte 0x30
87 49 ---
   0:   57                      push   edi
   1:   31                      .byte 0x31
87 50 ---
   0:   57                      push   edi
   1:   32                      .byte 0x32
87 51 ---
   0:   57                      push   edi
   1:   33                      .byte 0x33
87 52 ---
   0:   57                      push   edi
   1:   34                      .byte 0x34
87 53 ---
   0:   57                      push   edi
   1:   35                      .byte 0x35
87 54 ---
   0:   57                      push   edi
   1:   36                      ss
87 55 ---
   0:   57                      push   edi
   1:   37                      aaa
87 56 ---
   0:   57                      push   edi
   1:   38                      .byte 0x38
87 57 ---
   0:   57                      push   edi
   1:   39                      .byte 0x39
87 58 ---
   0:   57                      push   edi
   1:   3a                      .byte 0x3a
87 59 ---
   0:   57                      push   edi
   1:   3b                      .byte 0x3b
87 60 ---
   0:   57                      push   edi
   1:   3c                      .byte 0x3c
87 61 ---
   0:   57                      push   edi
   1:   3d                      .byte 0x3d
87 62 ---
   0:   57                      push   edi
   1:   3e                      ds
87 63 ---
   0:   57                      push   edi
   1:   3f                      aas
87 64 ---
   0:   57                      push   edi
   1:   40                      inc    eax
87 65 ---
   0:   57                      push   edi
   1:   41                      inc    ecx
87 66 ---
   0:   57                      push   edi
   1:   42                      inc    edx
87 67 ---
   0:   57                      push   edi
   1:   43                      inc    ebx
87 68 ---
   0:   57                      push   edi
   1:   44                      inc    esp
87 69 ---
   0:   57                      push   edi
   1:   45                      inc    ebp
87 70 ---
   0:   57                      push   edi
   1:   46                      inc    esi
87 71 ---
   0:   57                      push   edi
   1:   47                      inc    edi
87 72 ---
   0:   57                      push   edi
   1:   48                      dec    eax
87 73 ---
   0:   57                      push   edi
   1:   49                      dec    ecx
87 74 ---
   0:   57                      push   edi
   1:   4a                      dec    edx
87 75 ---
   0:   57                      push   edi
   1:   4b                      dec    ebx
87 76 ---
   0:   57                      push   edi
   1:   4c                      dec    esp
87 77 ---
   0:   57                      push   edi
   1:   4d                      dec    ebp
87 78 ---
   0:   57                      push   edi
   1:   4e                      dec    esi
87 79 ---
   0:   57                      push   edi
   1:   4f                      dec    edi
87 80 ---
   0:   57                      push   edi
   1:   50                      push   eax
87 81 ---
   0:   57                      push   edi
   1:   51                      push   ecx
87 82 ---
   0:   57                      push   edi
   1:   52                      push   edx
87 83 ---
   0:   57                      push   edi
   1:   53                      push   ebx
87 84 ---
   0:   57                      push   edi
   1:   54                      push   esp
87 85 ---
   0:   57                      push   edi
   1:   55                      push   ebp
87 86 ---
   0:   57                      push   edi
   1:   56                      push   esi
87 87 ---
   0:   57                      push   edi
   1:   57                      push   edi
87 88 ---
   0:   57                      push   edi
   1:   58                      pop    eax
87 89 ---
   0:   57                      push   edi
   1:   59                      pop    ecx
87 90 ---
   0:   57                      push   edi
   1:   5a                      pop    edx
87 91 ---
   0:   57                      push   edi
   1:   5b                      pop    ebx
87 92 ---
   0:   57                      push   edi
   1:   5c                      pop    esp
87 93 ---
   0:   57                      push   edi
   1:   5d                      pop    ebp
87 94 ---
   0:   57                      push   edi
   1:   5e                      pop    esi
87 95 ---
   0:   57                      push   edi
   1:   5f                      pop    edi
87 96 ---
   0:   57                      push   edi
   1:   60                      pusha
87 97 ---
   0:   57                      push   edi
   1:   61                      popa
87 98 ---
   0:   57                      push   edi
   1:   62                      .byte 0x62
87 99 ---
   0:   57                      push   edi
   1:   63                      .byte 0x63
87 100 ---
   0:   57                      push   edi
   1:   64                      fs
87 101 ---
   0:   57                      push   edi
   1:   65                      gs
87 102 ---
   0:   57                      push   edi
   1:   66                      data16
87 103 ---
   0:   57                      push   edi
   1:   67                      addr16
87 104 ---
   0:   57                      push   edi
   1:   68                      .byte 0x68
87 105 ---
   0:   57                      push   edi
   1:   69                      .byte 0x69
87 106 ---
   0:   57                      push   edi
   1:   6a                      .byte 0x6a
87 107 ---
   0:   57                      push   edi
   1:   6b                      .byte 0x6b
87 108 ---
   0:   57                      push   edi
   1:   6c                      ins    BYTE PTR es:[edi],dx
87 109 ---
   0:   57                      push   edi
   1:   6d                      ins    DWORD PTR es:[edi],dx
87 110 ---
   0:   57                      push   edi
   1:   6e                      outs   dx,BYTE PTR ds:[esi]
87 111 ---
   0:   57                      push   edi
   1:   6f                      outs   dx,DWORD PTR ds:[esi]
87 112 ---
   0:   57                      push   edi
   1:   70                      .byte 0x70
87 113 ---
   0:   57                      push   edi
   1:   71                      .byte 0x71
87 114 ---
   0:   57                      push   edi
   1:   72                      .byte 0x72
87 115 ---
   0:   57                      push   edi
   1:   73                      .byte 0x73
87 116 ---
   0:   57                      push   edi
   1:   74                      .byte 0x74
87 117 ---
   0:   57                      push   edi
   1:   75                      .byte 0x75
87 118 ---
   0:   57                      push   edi
   1:   76                      .byte 0x76
87 119 ---
   0:   57                      push   edi
   1:   77                      .byte 0x77
87 120 ---
   0:   57                      push   edi
   1:   78                      .byte 0x78
87 121 ---
   0:   57                      push   edi
   1:   79                      .byte 0x79
87 122 ---
   0:   57                      push   edi
   1:   7a                      .byte 0x7a
87 123 ---
   0:   57                      push   edi
   1:   7b                      .byte 0x7b
87 124 ---
   0:   57                      push   edi
   1:   7c                      .byte 0x7c
87 125 ---
   0:   57                      push   edi
   1:   7d                      .byte 0x7d
87 126 ---
   0:   57                      push   edi
   1:   7e                      .byte 0x7e
88 32 ---
   0:   58                      pop    eax
   1:   20                      .byte 0x20
88 33 ---
   0:   58                      pop    eax
   1:   21                      .byte 0x21
88 34 ---
   0:   58                      pop    eax
   1:   22                      .byte 0x22
88 35 ---
   0:   58                      pop    eax
   1:   23                      .byte 0x23
88 36 ---
   0:   58                      pop    eax
   1:   24                      .byte 0x24
88 37 ---
   0:   58                      pop    eax
   1:   25                      .byte 0x25
88 38 ---
   0:   58                      pop    eax
   1:   26                      es
88 39 ---
   0:   58                      pop    eax
   1:   27                      daa
88 40 ---
   0:   58                      pop    eax
   1:   28                      .byte 0x28
88 41 ---
   0:   58                      pop    eax
   1:   29                      .byte 0x29
88 42 ---
   0:   58                      pop    eax
   1:   2a                      .byte 0x2a
88 43 ---
   0:   58                      pop    eax
   1:   2b                      .byte 0x2b
88 44 ---
   0:   58                      pop    eax
   1:   2c                      .byte 0x2c
88 45 ---
   0:   58                      pop    eax
   1:   2d                      .byte 0x2d
88 46 ---
   0:   58                      pop    eax
   1:   2e                      cs
88 47 ---
   0:   58                      pop    eax
   1:   2f                      das
88 48 ---
   0:   58                      pop    eax
   1:   30                      .byte 0x30
88 49 ---
   0:   58                      pop    eax
   1:   31                      .byte 0x31
88 50 ---
   0:   58                      pop    eax
   1:   32                      .byte 0x32
88 51 ---
   0:   58                      pop    eax
   1:   33                      .byte 0x33
88 52 ---
   0:   58                      pop    eax
   1:   34                      .byte 0x34
88 53 ---
   0:   58                      pop    eax
   1:   35                      .byte 0x35
88 54 ---
   0:   58                      pop    eax
   1:   36                      ss
88 55 ---
   0:   58                      pop    eax
   1:   37                      aaa
88 56 ---
   0:   58                      pop    eax
   1:   38                      .byte 0x38
88 57 ---
   0:   58                      pop    eax
   1:   39                      .byte 0x39
88 58 ---
   0:   58                      pop    eax
   1:   3a                      .byte 0x3a
88 59 ---
   0:   58                      pop    eax
   1:   3b                      .byte 0x3b
88 60 ---
   0:   58                      pop    eax
   1:   3c                      .byte 0x3c
88 61 ---
   0:   58                      pop    eax
   1:   3d                      .byte 0x3d
88 62 ---
   0:   58                      pop    eax
   1:   3e                      ds
88 63 ---
   0:   58                      pop    eax
   1:   3f                      aas
88 64 ---
   0:   58                      pop    eax
   1:   40                      inc    eax
88 65 ---
   0:   58                      pop    eax
   1:   41                      inc    ecx
88 66 ---
   0:   58                      pop    eax
   1:   42                      inc    edx
88 67 ---
   0:   58                      pop    eax
   1:   43                      inc    ebx
88 68 ---
   0:   58                      pop    eax
   1:   44                      inc    esp
88 69 ---
   0:   58                      pop    eax
   1:   45                      inc    ebp
88 70 ---
   0:   58                      pop    eax
   1:   46                      inc    esi
88 71 ---
   0:   58                      pop    eax
   1:   47                      inc    edi
88 72 ---
   0:   58                      pop    eax
   1:   48                      dec    eax
88 73 ---
   0:   58                      pop    eax
   1:   49                      dec    ecx
88 74 ---
   0:   58                      pop    eax
   1:   4a                      dec    edx
88 75 ---
   0:   58                      pop    eax
   1:   4b                      dec    ebx
88 76 ---
   0:   58                      pop    eax
   1:   4c                      dec    esp
88 77 ---
   0:   58                      pop    eax
   1:   4d                      dec    ebp
88 78 ---
   0:   58                      pop    eax
   1:   4e                      dec    esi
88 79 ---
   0:   58                      pop    eax
   1:   4f                      dec    edi
88 80 ---
   0:   58                      pop    eax
   1:   50                      push   eax
88 81 ---
   0:   58                      pop    eax
   1:   51                      push   ecx
88 82 ---
   0:   58                      pop    eax
   1:   52                      push   edx
88 83 ---
   0:   58                      pop    eax
   1:   53                      push   ebx
88 84 ---
   0:   58                      pop    eax
   1:   54                      push   esp
88 85 ---
   0:   58                      pop    eax
   1:   55                      push   ebp
88 86 ---
   0:   58                      pop    eax
   1:   56                      push   esi
88 87 ---
   0:   58                      pop    eax
   1:   57                      push   edi
88 88 ---
   0:   58                      pop    eax
   1:   58                      pop    eax
88 89 ---
   0:   58                      pop    eax
   1:   59                      pop    ecx
88 90 ---
   0:   58                      pop    eax
   1:   5a                      pop    edx
88 91 ---
   0:   58                      pop    eax
   1:   5b                      pop    ebx
88 92 ---
   0:   58                      pop    eax
   1:   5c                      pop    esp
88 93 ---
   0:   58                      pop    eax
   1:   5d                      pop    ebp
88 94 ---
   0:   58                      pop    eax
   1:   5e                      pop    esi
88 95 ---
   0:   58                      pop    eax
   1:   5f                      pop    edi
88 96 ---
   0:   58                      pop    eax
   1:   60                      pusha
88 97 ---
   0:   58                      pop    eax
   1:   61                      popa
88 98 ---
   0:   58                      pop    eax
   1:   62                      .byte 0x62
88 99 ---
   0:   58                      pop    eax
   1:   63                      .byte 0x63
88 100 ---
   0:   58                      pop    eax
   1:   64                      fs
88 101 ---
   0:   58                      pop    eax
   1:   65                      gs
88 102 ---
   0:   58                      pop    eax
   1:   66                      data16
88 103 ---
   0:   58                      pop    eax
   1:   67                      addr16
88 104 ---
   0:   58                      pop    eax
   1:   68                      .byte 0x68
88 105 ---
   0:   58                      pop    eax
   1:   69                      .byte 0x69
88 106 ---
   0:   58                      pop    eax
   1:   6a                      .byte 0x6a
88 107 ---
   0:   58                      pop    eax
   1:   6b                      .byte 0x6b
88 108 ---
   0:   58                      pop    eax
   1:   6c                      ins    BYTE PTR es:[edi],dx
88 109 ---
   0:   58                      pop    eax
   1:   6d                      ins    DWORD PTR es:[edi],dx
88 110 ---
   0:   58                      pop    eax
   1:   6e                      outs   dx,BYTE PTR ds:[esi]
88 111 ---
   0:   58                      pop    eax
   1:   6f                      outs   dx,DWORD PTR ds:[esi]
88 112 ---
   0:   58                      pop    eax
   1:   70                      .byte 0x70
88 113 ---
   0:   58                      pop    eax
   1:   71                      .byte 0x71
88 114 ---
   0:   58                      pop    eax
   1:   72                      .byte 0x72
88 115 ---
   0:   58                      pop    eax
   1:   73                      .byte 0x73
88 116 ---
   0:   58                      pop    eax
   1:   74                      .byte 0x74
88 117 ---
   0:   58                      pop    eax
   1:   75                      .byte 0x75
88 118 ---
   0:   58                      pop    eax
   1:   76                      .byte 0x76
88 119 ---
   0:   58                      pop    eax
   1:   77                      .byte 0x77
88 120 ---
   0:   58                      pop    eax
   1:   78                      .byte 0x78
88 121 ---
   0:   58                      pop    eax
   1:   79                      .byte 0x79
88 122 ---
   0:   58                      pop    eax
   1:   7a                      .byte 0x7a
88 123 ---
   0:   58                      pop    eax
   1:   7b                      .byte 0x7b
88 124 ---
   0:   58                      pop    eax
   1:   7c                      .byte 0x7c
88 125 ---
   0:   58                      pop    eax
   1:   7d                      .byte 0x7d
88 126 ---
   0:   58                      pop    eax
   1:   7e                      .byte 0x7e
89 32 ---
   0:   59                      pop    ecx
   1:   20                      .byte 0x20
89 33 ---
   0:   59                      pop    ecx
   1:   21                      .byte 0x21
89 34 ---
   0:   59                      pop    ecx
   1:   22                      .byte 0x22
89 35 ---
   0:   59                      pop    ecx
   1:   23                      .byte 0x23
89 36 ---
   0:   59                      pop    ecx
   1:   24                      .byte 0x24
89 37 ---
   0:   59                      pop    ecx
   1:   25                      .byte 0x25
89 38 ---
   0:   59                      pop    ecx
   1:   26                      es
89 39 ---
   0:   59                      pop    ecx
   1:   27                      daa
89 40 ---
   0:   59                      pop    ecx
   1:   28                      .byte 0x28
89 41 ---
   0:   59                      pop    ecx
   1:   29                      .byte 0x29
89 42 ---
   0:   59                      pop    ecx
   1:   2a                      .byte 0x2a
89 43 ---
   0:   59                      pop    ecx
   1:   2b                      .byte 0x2b
89 44 ---
   0:   59                      pop    ecx
   1:   2c                      .byte 0x2c
89 45 ---
   0:   59                      pop    ecx
   1:   2d                      .byte 0x2d
89 46 ---
   0:   59                      pop    ecx
   1:   2e                      cs
89 47 ---
   0:   59                      pop    ecx
   1:   2f                      das
89 48 ---
   0:   59                      pop    ecx
   1:   30                      .byte 0x30
89 49 ---
   0:   59                      pop    ecx
   1:   31                      .byte 0x31
89 50 ---
   0:   59                      pop    ecx
   1:   32                      .byte 0x32
89 51 ---
   0:   59                      pop    ecx
   1:   33                      .byte 0x33
89 52 ---
   0:   59                      pop    ecx
   1:   34                      .byte 0x34
89 53 ---
   0:   59                      pop    ecx
   1:   35                      .byte 0x35
89 54 ---
   0:   59                      pop    ecx
   1:   36                      ss
89 55 ---
   0:   59                      pop    ecx
   1:   37                      aaa
89 56 ---
   0:   59                      pop    ecx
   1:   38                      .byte 0x38
89 57 ---
   0:   59                      pop    ecx
   1:   39                      .byte 0x39
89 58 ---
   0:   59                      pop    ecx
   1:   3a                      .byte 0x3a
89 59 ---
   0:   59                      pop    ecx
   1:   3b                      .byte 0x3b
89 60 ---
   0:   59                      pop    ecx
   1:   3c                      .byte 0x3c
89 61 ---
   0:   59                      pop    ecx
   1:   3d                      .byte 0x3d
89 62 ---
   0:   59                      pop    ecx
   1:   3e                      ds
89 63 ---
   0:   59                      pop    ecx
   1:   3f                      aas
89 64 ---
   0:   59                      pop    ecx
   1:   40                      inc    eax
89 65 ---
   0:   59                      pop    ecx
   1:   41                      inc    ecx
89 66 ---
   0:   59                      pop    ecx
   1:   42                      inc    edx
89 67 ---
   0:   59                      pop    ecx
   1:   43                      inc    ebx
89 68 ---
   0:   59                      pop    ecx
   1:   44                      inc    esp
89 69 ---
   0:   59                      pop    ecx
   1:   45                      inc    ebp
89 70 ---
   0:   59                      pop    ecx
   1:   46                      inc    esi
89 71 ---
   0:   59                      pop    ecx
   1:   47                      inc    edi
89 72 ---
   0:   59                      pop    ecx
   1:   48                      dec    eax
89 73 ---
   0:   59                      pop    ecx
   1:   49                      dec    ecx
89 74 ---
   0:   59                      pop    ecx
   1:   4a                      dec    edx
89 75 ---
   0:   59                      pop    ecx
   1:   4b                      dec    ebx
89 76 ---
   0:   59                      pop    ecx
   1:   4c                      dec    esp
89 77 ---
   0:   59                      pop    ecx
   1:   4d                      dec    ebp
89 78 ---
   0:   59                      pop    ecx
   1:   4e                      dec    esi
89 79 ---
   0:   59                      pop    ecx
   1:   4f                      dec    edi
89 80 ---
   0:   59                      pop    ecx
   1:   50                      push   eax
89 81 ---
   0:   59                      pop    ecx
   1:   51                      push   ecx
89 82 ---
   0:   59                      pop    ecx
   1:   52                      push   edx
89 83 ---
   0:   59                      pop    ecx
   1:   53                      push   ebx
89 84 ---
   0:   59                      pop    ecx
   1:   54                      push   esp
89 85 ---
   0:   59                      pop    ecx
   1:   55                      push   ebp
89 86 ---
   0:   59                      pop    ecx
   1:   56                      push   esi
89 87 ---
   0:   59                      pop    ecx
   1:   57                      push   edi
89 88 ---
   0:   59                      pop    ecx
   1:   58                      pop    eax
89 89 ---
   0:   59                      pop    ecx
   1:   59                      pop    ecx
89 90 ---
   0:   59                      pop    ecx
   1:   5a                      pop    edx
89 91 ---
   0:   59                      pop    ecx
   1:   5b                      pop    ebx
89 92 ---
   0:   59                      pop    ecx
   1:   5c                      pop    esp
89 93 ---
   0:   59                      pop    ecx
   1:   5d                      pop    ebp
89 94 ---
   0:   59                      pop    ecx
   1:   5e                      pop    esi
89 95 ---
   0:   59                      pop    ecx
   1:   5f                      pop    edi
89 96 ---
   0:   59                      pop    ecx
   1:   60                      pusha
89 97 ---
   0:   59                      pop    ecx
   1:   61                      popa
89 98 ---
   0:   59                      pop    ecx
   1:   62                      .byte 0x62
89 99 ---
   0:   59                      pop    ecx
   1:   63                      .byte 0x63
89 100 ---
   0:   59                      pop    ecx
   1:   64                      fs
89 101 ---
   0:   59                      pop    ecx
   1:   65                      gs
89 102 ---
   0:   59                      pop    ecx
   1:   66                      data16
89 103 ---
   0:   59                      pop    ecx
   1:   67                      addr16
89 104 ---
   0:   59                      pop    ecx
   1:   68                      .byte 0x68
89 105 ---
   0:   59                      pop    ecx
   1:   69                      .byte 0x69
89 106 ---
   0:   59                      pop    ecx
   1:   6a                      .byte 0x6a
89 107 ---
   0:   59                      pop    ecx
   1:   6b                      .byte 0x6b
89 108 ---
   0:   59                      pop    ecx
   1:   6c                      ins    BYTE PTR es:[edi],dx
89 109 ---
   0:   59                      pop    ecx
   1:   6d                      ins    DWORD PTR es:[edi],dx
89 110 ---
   0:   59                      pop    ecx
   1:   6e                      outs   dx,BYTE PTR ds:[esi]
89 111 ---
   0:   59                      pop    ecx
   1:   6f                      outs   dx,DWORD PTR ds:[esi]
89 112 ---
   0:   59                      pop    ecx
   1:   70                      .byte 0x70
89 113 ---
   0:   59                      pop    ecx
   1:   71                      .byte 0x71
89 114 ---
   0:   59                      pop    ecx
   1:   72                      .byte 0x72
89 115 ---
   0:   59                      pop    ecx
   1:   73                      .byte 0x73
89 116 ---
   0:   59                      pop    ecx
   1:   74                      .byte 0x74
89 117 ---
   0:   59                      pop    ecx
   1:   75                      .byte 0x75
89 118 ---
   0:   59                      pop    ecx
   1:   76                      .byte 0x76
89 119 ---
   0:   59                      pop    ecx
   1:   77                      .byte 0x77
89 120 ---
   0:   59                      pop    ecx
   1:   78                      .byte 0x78
89 121 ---
   0:   59                      pop    ecx
   1:   79                      .byte 0x79
89 122 ---
   0:   59                      pop    ecx
   1:   7a                      .byte 0x7a
89 123 ---
   0:   59                      pop    ecx
   1:   7b                      .byte 0x7b
89 124 ---
   0:   59                      pop    ecx
   1:   7c                      .byte 0x7c
89 125 ---
   0:   59                      pop    ecx
   1:   7d                      .byte 0x7d
89 126 ---
   0:   59                      pop    ecx
   1:   7e                      .byte 0x7e
90 32 ---
   0:   5a                      pop    edx
   1:   20                      .byte 0x20
90 33 ---
   0:   5a                      pop    edx
   1:   21                      .byte 0x21
90 34 ---
   0:   5a                      pop    edx
   1:   22                      .byte 0x22
90 35 ---
   0:   5a                      pop    edx
   1:   23                      .byte 0x23
90 36 ---
   0:   5a                      pop    edx
   1:   24                      .byte 0x24
90 37 ---
   0:   5a                      pop    edx
   1:   25                      .byte 0x25
90 38 ---
   0:   5a                      pop    edx
   1:   26                      es
90 39 ---
   0:   5a                      pop    edx
   1:   27                      daa
90 40 ---
   0:   5a                      pop    edx
   1:   28                      .byte 0x28
90 41 ---
   0:   5a                      pop    edx
   1:   29                      .byte 0x29
90 42 ---
   0:   5a                      pop    edx
   1:   2a                      .byte 0x2a
90 43 ---
   0:   5a                      pop    edx
   1:   2b                      .byte 0x2b
90 44 ---
   0:   5a                      pop    edx
   1:   2c                      .byte 0x2c
90 45 ---
   0:   5a                      pop    edx
   1:   2d                      .byte 0x2d
90 46 ---
   0:   5a                      pop    edx
   1:   2e                      cs
90 47 ---
   0:   5a                      pop    edx
   1:   2f                      das
90 48 ---
   0:   5a                      pop    edx
   1:   30                      .byte 0x30
90 49 ---
   0:   5a                      pop    edx
   1:   31                      .byte 0x31
90 50 ---
   0:   5a                      pop    edx
   1:   32                      .byte 0x32
90 51 ---
   0:   5a                      pop    edx
   1:   33                      .byte 0x33
90 52 ---
   0:   5a                      pop    edx
   1:   34                      .byte 0x34
90 53 ---
   0:   5a                      pop    edx
   1:   35                      .byte 0x35
90 54 ---
   0:   5a                      pop    edx
   1:   36                      ss
90 55 ---
   0:   5a                      pop    edx
   1:   37                      aaa
90 56 ---
   0:   5a                      pop    edx
   1:   38                      .byte 0x38
90 57 ---
   0:   5a                      pop    edx
   1:   39                      .byte 0x39
90 58 ---
   0:   5a                      pop    edx
   1:   3a                      .byte 0x3a
90 59 ---
   0:   5a                      pop    edx
   1:   3b                      .byte 0x3b
90 60 ---
   0:   5a                      pop    edx
   1:   3c                      .byte 0x3c
90 61 ---
   0:   5a                      pop    edx
   1:   3d                      .byte 0x3d
90 62 ---
   0:   5a                      pop    edx
   1:   3e                      ds
90 63 ---
   0:   5a                      pop    edx
   1:   3f                      aas
90 64 ---
   0:   5a                      pop    edx
   1:   40                      inc    eax
90 65 ---
   0:   5a                      pop    edx
   1:   41                      inc    ecx
90 66 ---
   0:   5a                      pop    edx
   1:   42                      inc    edx
90 67 ---
   0:   5a                      pop    edx
   1:   43                      inc    ebx
90 68 ---
   0:   5a                      pop    edx
   1:   44                      inc    esp
90 69 ---
   0:   5a                      pop    edx
   1:   45                      inc    ebp
90 70 ---
   0:   5a                      pop    edx
   1:   46                      inc    esi
90 71 ---
   0:   5a                      pop    edx
   1:   47                      inc    edi
90 72 ---
   0:   5a                      pop    edx
   1:   48                      dec    eax
90 73 ---
   0:   5a                      pop    edx
   1:   49                      dec    ecx
90 74 ---
   0:   5a                      pop    edx
   1:   4a                      dec    edx
90 75 ---
   0:   5a                      pop    edx
   1:   4b                      dec    ebx
90 76 ---
   0:   5a                      pop    edx
   1:   4c                      dec    esp
90 77 ---
   0:   5a                      pop    edx
   1:   4d                      dec    ebp
90 78 ---
   0:   5a                      pop    edx
   1:   4e                      dec    esi
90 79 ---
   0:   5a                      pop    edx
   1:   4f                      dec    edi
90 80 ---
   0:   5a                      pop    edx
   1:   50                      push   eax
90 81 ---
   0:   5a                      pop    edx
   1:   51                      push   ecx
90 82 ---
   0:   5a                      pop    edx
   1:   52                      push   edx
90 83 ---
   0:   5a                      pop    edx
   1:   53                      push   ebx
90 84 ---
   0:   5a                      pop    edx
   1:   54                      push   esp
90 85 ---
   0:   5a                      pop    edx
   1:   55                      push   ebp
90 86 ---
   0:   5a                      pop    edx
   1:   56                      push   esi
90 87 ---
   0:   5a                      pop    edx
   1:   57                      push   edi
90 88 ---
   0:   5a                      pop    edx
   1:   58                      pop    eax
90 89 ---
   0:   5a                      pop    edx
   1:   59                      pop    ecx
90 90 ---
   0:   5a                      pop    edx
   1:   5a                      pop    edx
90 91 ---
   0:   5a                      pop    edx
   1:   5b                      pop    ebx
90 92 ---
   0:   5a                      pop    edx
   1:   5c                      pop    esp
90 93 ---
   0:   5a                      pop    edx
   1:   5d                      pop    ebp
90 94 ---
   0:   5a                      pop    edx
   1:   5e                      pop    esi
90 95 ---
   0:   5a                      pop    edx
   1:   5f                      pop    edi
90 96 ---
   0:   5a                      pop    edx
   1:   60                      pusha
90 97 ---
   0:   5a                      pop    edx
   1:   61                      popa
90 98 ---
   0:   5a                      pop    edx
   1:   62                      .byte 0x62
90 99 ---
   0:   5a                      pop    edx
   1:   63                      .byte 0x63
90 100 ---
   0:   5a                      pop    edx
   1:   64                      fs
90 101 ---
   0:   5a                      pop    edx
   1:   65                      gs
90 102 ---
   0:   5a                      pop    edx
   1:   66                      data16
90 103 ---
   0:   5a                      pop    edx
   1:   67                      addr16
90 104 ---
   0:   5a                      pop    edx
   1:   68                      .byte 0x68
90 105 ---
   0:   5a                      pop    edx
   1:   69                      .byte 0x69
90 106 ---
   0:   5a                      pop    edx
   1:   6a                      .byte 0x6a
90 107 ---
   0:   5a                      pop    edx
   1:   6b                      .byte 0x6b
90 108 ---
   0:   5a                      pop    edx
   1:   6c                      ins    BYTE PTR es:[edi],dx
90 109 ---
   0:   5a                      pop    edx
   1:   6d                      ins    DWORD PTR es:[edi],dx
90 110 ---
   0:   5a                      pop    edx
   1:   6e                      outs   dx,BYTE PTR ds:[esi]
90 111 ---
   0:   5a                      pop    edx
   1:   6f                      outs   dx,DWORD PTR ds:[esi]
90 112 ---
   0:   5a                      pop    edx
   1:   70                      .byte 0x70
90 113 ---
   0:   5a                      pop    edx
   1:   71                      .byte 0x71
90 114 ---
   0:   5a                      pop    edx
   1:   72                      .byte 0x72
90 115 ---
   0:   5a                      pop    edx
   1:   73                      .byte 0x73
90 116 ---
   0:   5a                      pop    edx
   1:   74                      .byte 0x74
90 117 ---
   0:   5a                      pop    edx
   1:   75                      .byte 0x75
90 118 ---
   0:   5a                      pop    edx
   1:   76                      .byte 0x76
90 119 ---
   0:   5a                      pop    edx
   1:   77                      .byte 0x77
90 120 ---
   0:   5a                      pop    edx
   1:   78                      .byte 0x78
90 121 ---
   0:   5a                      pop    edx
   1:   79                      .byte 0x79
90 122 ---
   0:   5a                      pop    edx
   1:   7a                      .byte 0x7a
90 123 ---
   0:   5a                      pop    edx
   1:   7b                      .byte 0x7b
90 124 ---
   0:   5a                      pop    edx
   1:   7c                      .byte 0x7c
90 125 ---
   0:   5a                      pop    edx
   1:   7d                      .byte 0x7d
90 126 ---
   0:   5a                      pop    edx
   1:   7e                      .byte 0x7e
91 32 ---
   0:   5b                      pop    ebx
   1:   20                      .byte 0x20
91 33 ---
   0:   5b                      pop    ebx
   1:   21                      .byte 0x21
91 34 ---
   0:   5b                      pop    ebx
   1:   22                      .byte 0x22
91 35 ---
   0:   5b                      pop    ebx
   1:   23                      .byte 0x23
91 36 ---
   0:   5b                      pop    ebx
   1:   24                      .byte 0x24
91 37 ---
   0:   5b                      pop    ebx
   1:   25                      .byte 0x25
91 38 ---
   0:   5b                      pop    ebx
   1:   26                      es
91 39 ---
   0:   5b                      pop    ebx
   1:   27                      daa
91 40 ---
   0:   5b                      pop    ebx
   1:   28                      .byte 0x28
91 41 ---
   0:   5b                      pop    ebx
   1:   29                      .byte 0x29
91 42 ---
   0:   5b                      pop    ebx
   1:   2a                      .byte 0x2a
91 43 ---
   0:   5b                      pop    ebx
   1:   2b                      .byte 0x2b
91 44 ---
   0:   5b                      pop    ebx
   1:   2c                      .byte 0x2c
91 45 ---
   0:   5b                      pop    ebx
   1:   2d                      .byte 0x2d
91 46 ---
   0:   5b                      pop    ebx
   1:   2e                      cs
91 47 ---
   0:   5b                      pop    ebx
   1:   2f                      das
91 48 ---
   0:   5b                      pop    ebx
   1:   30                      .byte 0x30
91 49 ---
   0:   5b                      pop    ebx
   1:   31                      .byte 0x31
91 50 ---
   0:   5b                      pop    ebx
   1:   32                      .byte 0x32
91 51 ---
   0:   5b                      pop    ebx
   1:   33                      .byte 0x33
91 52 ---
   0:   5b                      pop    ebx
   1:   34                      .byte 0x34
91 53 ---
   0:   5b                      pop    ebx
   1:   35                      .byte 0x35
91 54 ---
   0:   5b                      pop    ebx
   1:   36                      ss
91 55 ---
   0:   5b                      pop    ebx
   1:   37                      aaa
91 56 ---
   0:   5b                      pop    ebx
   1:   38                      .byte 0x38
91 57 ---
   0:   5b                      pop    ebx
   1:   39                      .byte 0x39
91 58 ---
   0:   5b                      pop    ebx
   1:   3a                      .byte 0x3a
91 59 ---
   0:   5b                      pop    ebx
   1:   3b                      .byte 0x3b
91 60 ---
   0:   5b                      pop    ebx
   1:   3c                      .byte 0x3c
91 61 ---
   0:   5b                      pop    ebx
   1:   3d                      .byte 0x3d
91 62 ---
   0:   5b                      pop    ebx
   1:   3e                      ds
91 63 ---
   0:   5b                      pop    ebx
   1:   3f                      aas
91 64 ---
   0:   5b                      pop    ebx
   1:   40                      inc    eax
91 65 ---
   0:   5b                      pop    ebx
   1:   41                      inc    ecx
91 66 ---
   0:   5b                      pop    ebx
   1:   42                      inc    edx
91 67 ---
   0:   5b                      pop    ebx
   1:   43                      inc    ebx
91 68 ---
   0:   5b                      pop    ebx
   1:   44                      inc    esp
91 69 ---
   0:   5b                      pop    ebx
   1:   45                      inc    ebp
91 70 ---
   0:   5b                      pop    ebx
   1:   46                      inc    esi
91 71 ---
   0:   5b                      pop    ebx
   1:   47                      inc    edi
91 72 ---
   0:   5b                      pop    ebx
   1:   48                      dec    eax
91 73 ---
   0:   5b                      pop    ebx
   1:   49                      dec    ecx
91 74 ---
   0:   5b                      pop    ebx
   1:   4a                      dec    edx
91 75 ---
   0:   5b                      pop    ebx
   1:   4b                      dec    ebx
91 76 ---
   0:   5b                      pop    ebx
   1:   4c                      dec    esp
91 77 ---
   0:   5b                      pop    ebx
   1:   4d                      dec    ebp
91 78 ---
   0:   5b                      pop    ebx
   1:   4e                      dec    esi
91 79 ---
   0:   5b                      pop    ebx
   1:   4f                      dec    edi
91 80 ---
   0:   5b                      pop    ebx
   1:   50                      push   eax
91 81 ---
   0:   5b                      pop    ebx
   1:   51                      push   ecx
91 82 ---
   0:   5b                      pop    ebx
   1:   52                      push   edx
91 83 ---
   0:   5b                      pop    ebx
   1:   53                      push   ebx
91 84 ---
   0:   5b                      pop    ebx
   1:   54                      push   esp
91 85 ---
   0:   5b                      pop    ebx
   1:   55                      push   ebp
91 86 ---
   0:   5b                      pop    ebx
   1:   56                      push   esi
91 87 ---
   0:   5b                      pop    ebx
   1:   57                      push   edi
91 88 ---
   0:   5b                      pop    ebx
   1:   58                      pop    eax
91 89 ---
   0:   5b                      pop    ebx
   1:   59                      pop    ecx
91 90 ---
   0:   5b                      pop    ebx
   1:   5a                      pop    edx
91 91 ---
   0:   5b                      pop    ebx
   1:   5b                      pop    ebx
91 92 ---
   0:   5b                      pop    ebx
   1:   5c                      pop    esp
91 93 ---
   0:   5b                      pop    ebx
   1:   5d                      pop    ebp
91 94 ---
   0:   5b                      pop    ebx
   1:   5e                      pop    esi
91 95 ---
   0:   5b                      pop    ebx
   1:   5f                      pop    edi
91 96 ---
   0:   5b                      pop    ebx
   1:   60                      pusha
91 97 ---
   0:   5b                      pop    ebx
   1:   61                      popa
91 98 ---
   0:   5b                      pop    ebx
   1:   62                      .byte 0x62
91 99 ---
   0:   5b                      pop    ebx
   1:   63                      .byte 0x63
91 100 ---
   0:   5b                      pop    ebx
   1:   64                      fs
91 101 ---
   0:   5b                      pop    ebx
   1:   65                      gs
91 102 ---
   0:   5b                      pop    ebx
   1:   66                      data16
91 103 ---
   0:   5b                      pop    ebx
   1:   67                      addr16
91 104 ---
   0:   5b                      pop    ebx
   1:   68                      .byte 0x68
91 105 ---
   0:   5b                      pop    ebx
   1:   69                      .byte 0x69
91 106 ---
   0:   5b                      pop    ebx
   1:   6a                      .byte 0x6a
91 107 ---
   0:   5b                      pop    ebx
   1:   6b                      .byte 0x6b
91 108 ---
   0:   5b                      pop    ebx
   1:   6c                      ins    BYTE PTR es:[edi],dx
91 109 ---
   0:   5b                      pop    ebx
   1:   6d                      ins    DWORD PTR es:[edi],dx
91 110 ---
   0:   5b                      pop    ebx
   1:   6e                      outs   dx,BYTE PTR ds:[esi]
91 111 ---
   0:   5b                      pop    ebx
   1:   6f                      outs   dx,DWORD PTR ds:[esi]
91 112 ---
   0:   5b                      pop    ebx
   1:   70                      .byte 0x70
91 113 ---
   0:   5b                      pop    ebx
   1:   71                      .byte 0x71
91 114 ---
   0:   5b                      pop    ebx
   1:   72                      .byte 0x72
91 115 ---
   0:   5b                      pop    ebx
   1:   73                      .byte 0x73
91 116 ---
   0:   5b                      pop    ebx
   1:   74                      .byte 0x74
91 117 ---
   0:   5b                      pop    ebx
   1:   75                      .byte 0x75
91 118 ---
   0:   5b                      pop    ebx
   1:   76                      .byte 0x76
91 119 ---
   0:   5b                      pop    ebx
   1:   77                      .byte 0x77
91 120 ---
   0:   5b                      pop    ebx
   1:   78                      .byte 0x78
91 121 ---
   0:   5b                      pop    ebx
   1:   79                      .byte 0x79
91 122 ---
   0:   5b                      pop    ebx
   1:   7a                      .byte 0x7a
91 123 ---
   0:   5b                      pop    ebx
   1:   7b                      .byte 0x7b
91 124 ---
   0:   5b                      pop    ebx
   1:   7c                      .byte 0x7c
91 125 ---
   0:   5b                      pop    ebx
   1:   7d                      .byte 0x7d
91 126 ---
   0:   5b                      pop    ebx
   1:   7e                      .byte 0x7e
92 32 ---
   0:   5c                      pop    esp
   1:   20                      .byte 0x20
92 33 ---
   0:   5c                      pop    esp
   1:   21                      .byte 0x21
92 34 ---
   0:   5c                      pop    esp
   1:   22                      .byte 0x22
92 35 ---
   0:   5c                      pop    esp
   1:   23                      .byte 0x23
92 36 ---
   0:   5c                      pop    esp
   1:   24                      .byte 0x24
92 37 ---
   0:   5c                      pop    esp
   1:   25                      .byte 0x25
92 38 ---
   0:   5c                      pop    esp
   1:   26                      es
92 39 ---
   0:   5c                      pop    esp
   1:   27                      daa
92 40 ---
   0:   5c                      pop    esp
   1:   28                      .byte 0x28
92 41 ---
   0:   5c                      pop    esp
   1:   29                      .byte 0x29
92 42 ---
   0:   5c                      pop    esp
   1:   2a                      .byte 0x2a
92 43 ---
   0:   5c                      pop    esp
   1:   2b                      .byte 0x2b
92 44 ---
   0:   5c                      pop    esp
   1:   2c                      .byte 0x2c
92 45 ---
   0:   5c                      pop    esp
   1:   2d                      .byte 0x2d
92 46 ---
   0:   5c                      pop    esp
   1:   2e                      cs
92 47 ---
   0:   5c                      pop    esp
   1:   2f                      das
92 48 ---
   0:   5c                      pop    esp
   1:   30                      .byte 0x30
92 49 ---
   0:   5c                      pop    esp
   1:   31                      .byte 0x31
92 50 ---
   0:   5c                      pop    esp
   1:   32                      .byte 0x32
92 51 ---
   0:   5c                      pop    esp
   1:   33                      .byte 0x33
92 52 ---
   0:   5c                      pop    esp
   1:   34                      .byte 0x34
92 53 ---
   0:   5c                      pop    esp
   1:   35                      .byte 0x35
92 54 ---
   0:   5c                      pop    esp
   1:   36                      ss
92 55 ---
   0:   5c                      pop    esp
   1:   37                      aaa
92 56 ---
   0:   5c                      pop    esp
   1:   38                      .byte 0x38
92 57 ---
   0:   5c                      pop    esp
   1:   39                      .byte 0x39
92 58 ---
   0:   5c                      pop    esp
   1:   3a                      .byte 0x3a
92 59 ---
   0:   5c                      pop    esp
   1:   3b                      .byte 0x3b
92 60 ---
   0:   5c                      pop    esp
   1:   3c                      .byte 0x3c
92 61 ---
   0:   5c                      pop    esp
   1:   3d                      .byte 0x3d
92 62 ---
   0:   5c                      pop    esp
   1:   3e                      ds
92 63 ---
   0:   5c                      pop    esp
   1:   3f                      aas
92 64 ---
   0:   5c                      pop    esp
   1:   40                      inc    eax
92 65 ---
   0:   5c                      pop    esp
   1:   41                      inc    ecx
92 66 ---
   0:   5c                      pop    esp
   1:   42                      inc    edx
92 67 ---
   0:   5c                      pop    esp
   1:   43                      inc    ebx
92 68 ---
   0:   5c                      pop    esp
   1:   44                      inc    esp
92 69 ---
   0:   5c                      pop    esp
   1:   45                      inc    ebp
92 70 ---
   0:   5c                      pop    esp
   1:   46                      inc    esi
92 71 ---
   0:   5c                      pop    esp
   1:   47                      inc    edi
92 72 ---
   0:   5c                      pop    esp
   1:   48                      dec    eax
92 73 ---
   0:   5c                      pop    esp
   1:   49                      dec    ecx
92 74 ---
   0:   5c                      pop    esp
   1:   4a                      dec    edx
92 75 ---
   0:   5c                      pop    esp
   1:   4b                      dec    ebx
92 76 ---
   0:   5c                      pop    esp
   1:   4c                      dec    esp
92 77 ---
   0:   5c                      pop    esp
   1:   4d                      dec    ebp
92 78 ---
   0:   5c                      pop    esp
   1:   4e                      dec    esi
92 79 ---
   0:   5c                      pop    esp
   1:   4f                      dec    edi
92 80 ---
   0:   5c                      pop    esp
   1:   50                      push   eax
92 81 ---
   0:   5c                      pop    esp
   1:   51                      push   ecx
92 82 ---
   0:   5c                      pop    esp
   1:   52                      push   edx
92 83 ---
   0:   5c                      pop    esp
   1:   53                      push   ebx
92 84 ---
   0:   5c                      pop    esp
   1:   54                      push   esp
92 85 ---
   0:   5c                      pop    esp
   1:   55                      push   ebp
92 86 ---
   0:   5c                      pop    esp
   1:   56                      push   esi
92 87 ---
   0:   5c                      pop    esp
   1:   57                      push   edi
92 88 ---
   0:   5c                      pop    esp
   1:   58                      pop    eax
92 89 ---
   0:   5c                      pop    esp
   1:   59                      pop    ecx
92 90 ---
   0:   5c                      pop    esp
   1:   5a                      pop    edx
92 91 ---
   0:   5c                      pop    esp
   1:   5b                      pop    ebx
92 92 ---
   0:   5c                      pop    esp
   1:   5c                      pop    esp
92 93 ---
   0:   5c                      pop    esp
   1:   5d                      pop    ebp
92 94 ---
   0:   5c                      pop    esp
   1:   5e                      pop    esi
92 95 ---
   0:   5c                      pop    esp
   1:   5f                      pop    edi
92 96 ---
   0:   5c                      pop    esp
   1:   60                      pusha
92 97 ---
   0:   5c                      pop    esp
   1:   61                      popa
92 98 ---
   0:   5c                      pop    esp
   1:   62                      .byte 0x62
92 99 ---
   0:   5c                      pop    esp
   1:   63                      .byte 0x63
92 100 ---
   0:   5c                      pop    esp
   1:   64                      fs
92 101 ---
   0:   5c                      pop    esp
   1:   65                      gs
92 102 ---
   0:   5c                      pop    esp
   1:   66                      data16
92 103 ---
   0:   5c                      pop    esp
   1:   67                      addr16
92 104 ---
   0:   5c                      pop    esp
   1:   68                      .byte 0x68
92 105 ---
   0:   5c                      pop    esp
   1:   69                      .byte 0x69
92 106 ---
   0:   5c                      pop    esp
   1:   6a                      .byte 0x6a
92 107 ---
   0:   5c                      pop    esp
   1:   6b                      .byte 0x6b
92 108 ---
   0:   5c                      pop    esp
   1:   6c                      ins    BYTE PTR es:[edi],dx
92 109 ---
   0:   5c                      pop    esp
   1:   6d                      ins    DWORD PTR es:[edi],dx
92 110 ---
   0:   5c                      pop    esp
   1:   6e                      outs   dx,BYTE PTR ds:[esi]
92 111 ---
   0:   5c                      pop    esp
   1:   6f                      outs   dx,DWORD PTR ds:[esi]
92 112 ---
   0:   5c                      pop    esp
   1:   70                      .byte 0x70
92 113 ---
   0:   5c                      pop    esp
   1:   71                      .byte 0x71
92 114 ---
   0:   5c                      pop    esp
   1:   72                      .byte 0x72
92 115 ---
   0:   5c                      pop    esp
   1:   73                      .byte 0x73
92 116 ---
   0:   5c                      pop    esp
   1:   74                      .byte 0x74
92 117 ---
   0:   5c                      pop    esp
   1:   75                      .byte 0x75
92 118 ---
   0:   5c                      pop    esp
   1:   76                      .byte 0x76
92 119 ---
   0:   5c                      pop    esp
   1:   77                      .byte 0x77
92 120 ---
   0:   5c                      pop    esp
   1:   78                      .byte 0x78
92 121 ---
   0:   5c                      pop    esp
   1:   79                      .byte 0x79
92 122 ---
   0:   5c                      pop    esp
   1:   7a                      .byte 0x7a
92 123 ---
   0:   5c                      pop    esp
   1:   7b                      .byte 0x7b
92 124 ---
   0:   5c                      pop    esp
   1:   7c                      .byte 0x7c
92 125 ---
   0:   5c                      pop    esp
   1:   7d                      .byte 0x7d
92 126 ---
   0:   5c                      pop    esp
   1:   7e                      .byte 0x7e
93 32 ---
   0:   5d                      pop    ebp
   1:   20                      .byte 0x20
93 33 ---
   0:   5d                      pop    ebp
   1:   21                      .byte 0x21
93 34 ---
   0:   5d                      pop    ebp
   1:   22                      .byte 0x22
93 35 ---
   0:   5d                      pop    ebp
   1:   23                      .byte 0x23
93 36 ---
   0:   5d                      pop    ebp
   1:   24                      .byte 0x24
93 37 ---
   0:   5d                      pop    ebp
   1:   25                      .byte 0x25
93 38 ---
   0:   5d                      pop    ebp
   1:   26                      es
93 39 ---
   0:   5d                      pop    ebp
   1:   27                      daa
93 40 ---
   0:   5d                      pop    ebp
   1:   28                      .byte 0x28
93 41 ---
   0:   5d                      pop    ebp
   1:   29                      .byte 0x29
93 42 ---
   0:   5d                      pop    ebp
   1:   2a                      .byte 0x2a
93 43 ---
   0:   5d                      pop    ebp
   1:   2b                      .byte 0x2b
93 44 ---
   0:   5d                      pop    ebp
   1:   2c                      .byte 0x2c
93 45 ---
   0:   5d                      pop    ebp
   1:   2d                      .byte 0x2d
93 46 ---
   0:   5d                      pop    ebp
   1:   2e                      cs
93 47 ---
   0:   5d                      pop    ebp
   1:   2f                      das
93 48 ---
   0:   5d                      pop    ebp
   1:   30                      .byte 0x30
93 49 ---
   0:   5d                      pop    ebp
   1:   31                      .byte 0x31
93 50 ---
   0:   5d                      pop    ebp
   1:   32                      .byte 0x32
93 51 ---
   0:   5d                      pop    ebp
   1:   33                      .byte 0x33
93 52 ---
   0:   5d                      pop    ebp
   1:   34                      .byte 0x34
93 53 ---
   0:   5d                      pop    ebp
   1:   35                      .byte 0x35
93 54 ---
   0:   5d                      pop    ebp
   1:   36                      ss
93 55 ---
   0:   5d                      pop    ebp
   1:   37                      aaa
93 56 ---
   0:   5d                      pop    ebp
   1:   38                      .byte 0x38
93 57 ---
   0:   5d                      pop    ebp
   1:   39                      .byte 0x39
93 58 ---
   0:   5d                      pop    ebp
   1:   3a                      .byte 0x3a
93 59 ---
   0:   5d                      pop    ebp
   1:   3b                      .byte 0x3b
93 60 ---
   0:   5d                      pop    ebp
   1:   3c                      .byte 0x3c
93 61 ---
   0:   5d                      pop    ebp
   1:   3d                      .byte 0x3d
93 62 ---
   0:   5d                      pop    ebp
   1:   3e                      ds
93 63 ---
   0:   5d                      pop    ebp
   1:   3f                      aas
93 64 ---
   0:   5d                      pop    ebp
   1:   40                      inc    eax
93 65 ---
   0:   5d                      pop    ebp
   1:   41                      inc    ecx
93 66 ---
   0:   5d                      pop    ebp
   1:   42                      inc    edx
93 67 ---
   0:   5d                      pop    ebp
   1:   43                      inc    ebx
93 68 ---
   0:   5d                      pop    ebp
   1:   44                      inc    esp
93 69 ---
   0:   5d                      pop    ebp
   1:   45                      inc    ebp
93 70 ---
   0:   5d                      pop    ebp
   1:   46                      inc    esi
93 71 ---
   0:   5d                      pop    ebp
   1:   47                      inc    edi
93 72 ---
   0:   5d                      pop    ebp
   1:   48                      dec    eax
93 73 ---
   0:   5d                      pop    ebp
   1:   49                      dec    ecx
93 74 ---
   0:   5d                      pop    ebp
   1:   4a                      dec    edx
93 75 ---
   0:   5d                      pop    ebp
   1:   4b                      dec    ebx
93 76 ---
   0:   5d                      pop    ebp
   1:   4c                      dec    esp
93 77 ---
   0:   5d                      pop    ebp
   1:   4d                      dec    ebp
93 78 ---
   0:   5d                      pop    ebp
   1:   4e                      dec    esi
93 79 ---
   0:   5d                      pop    ebp
   1:   4f                      dec    edi
93 80 ---
   0:   5d                      pop    ebp
   1:   50                      push   eax
93 81 ---
   0:   5d                      pop    ebp
   1:   51                      push   ecx
93 82 ---
   0:   5d                      pop    ebp
   1:   52                      push   edx
93 83 ---
   0:   5d                      pop    ebp
   1:   53                      push   ebx
93 84 ---
   0:   5d                      pop    ebp
   1:   54                      push   esp
93 85 ---
   0:   5d                      pop    ebp
   1:   55                      push   ebp
93 86 ---
   0:   5d                      pop    ebp
   1:   56                      push   esi
93 87 ---
   0:   5d                      pop    ebp
   1:   57                      push   edi
93 88 ---
   0:   5d                      pop    ebp
   1:   58                      pop    eax
93 89 ---
   0:   5d                      pop    ebp
   1:   59                      pop    ecx
93 90 ---
   0:   5d                      pop    ebp
   1:   5a                      pop    edx
93 91 ---
   0:   5d                      pop    ebp
   1:   5b                      pop    ebx
93 92 ---
   0:   5d                      pop    ebp
   1:   5c                      pop    esp
93 93 ---
   0:   5d                      pop    ebp
   1:   5d                      pop    ebp
93 94 ---
   0:   5d                      pop    ebp
   1:   5e                      pop    esi
93 95 ---
   0:   5d                      pop    ebp
   1:   5f                      pop    edi
93 96 ---
   0:   5d                      pop    ebp
   1:   60                      pusha
93 97 ---
   0:   5d                      pop    ebp
   1:   61                      popa
93 98 ---
   0:   5d                      pop    ebp
   1:   62                      .byte 0x62
93 99 ---
   0:   5d                      pop    ebp
   1:   63                      .byte 0x63
93 100 ---
   0:   5d                      pop    ebp
   1:   64                      fs
93 101 ---
   0:   5d                      pop    ebp
   1:   65                      gs
93 102 ---
   0:   5d                      pop    ebp
   1:   66                      data16
93 103 ---
   0:   5d                      pop    ebp
   1:   67                      addr16
93 104 ---
   0:   5d                      pop    ebp
   1:   68                      .byte 0x68
93 105 ---
   0:   5d                      pop    ebp
   1:   69                      .byte 0x69
93 106 ---
   0:   5d                      pop    ebp
   1:   6a                      .byte 0x6a
93 107 ---
   0:   5d                      pop    ebp
   1:   6b                      .byte 0x6b
93 108 ---
   0:   5d                      pop    ebp
   1:   6c                      ins    BYTE PTR es:[edi],dx
93 109 ---
   0:   5d                      pop    ebp
   1:   6d                      ins    DWORD PTR es:[edi],dx
93 110 ---
   0:   5d                      pop    ebp
   1:   6e                      outs   dx,BYTE PTR ds:[esi]
93 111 ---
   0:   5d                      pop    ebp
   1:   6f                      outs   dx,DWORD PTR ds:[esi]
93 112 ---
   0:   5d                      pop    ebp
   1:   70                      .byte 0x70
93 113 ---
   0:   5d                      pop    ebp
   1:   71                      .byte 0x71
93 114 ---
   0:   5d                      pop    ebp
   1:   72                      .byte 0x72
93 115 ---
   0:   5d                      pop    ebp
   1:   73                      .byte 0x73
93 116 ---
   0:   5d                      pop    ebp
   1:   74                      .byte 0x74
93 117 ---
   0:   5d                      pop    ebp
   1:   75                      .byte 0x75
93 118 ---
   0:   5d                      pop    ebp
   1:   76                      .byte 0x76
93 119 ---
   0:   5d                      pop    ebp
   1:   77                      .byte 0x77
93 120 ---
   0:   5d                      pop    ebp
   1:   78                      .byte 0x78
93 121 ---
   0:   5d                      pop    ebp
   1:   79                      .byte 0x79
93 122 ---
   0:   5d                      pop    ebp
   1:   7a                      .byte 0x7a
93 123 ---
   0:   5d                      pop    ebp
   1:   7b                      .byte 0x7b
93 124 ---
   0:   5d                      pop    ebp
   1:   7c                      .byte 0x7c
93 125 ---
   0:   5d                      pop    ebp
   1:   7d                      .byte 0x7d
93 126 ---
   0:   5d                      pop    ebp
   1:   7e                      .byte 0x7e
94 32 ---
   0:   5e                      pop    esi
   1:   20                      .byte 0x20
94 33 ---
   0:   5e                      pop    esi
   1:   21                      .byte 0x21
94 34 ---
   0:   5e                      pop    esi
   1:   22                      .byte 0x22
94 35 ---
   0:   5e                      pop    esi
   1:   23                      .byte 0x23
94 36 ---
   0:   5e                      pop    esi
   1:   24                      .byte 0x24
94 37 ---
   0:   5e                      pop    esi
   1:   25                      .byte 0x25
94 38 ---
   0:   5e                      pop    esi
   1:   26                      es
94 39 ---
   0:   5e                      pop    esi
   1:   27                      daa
94 40 ---
   0:   5e                      pop    esi
   1:   28                      .byte 0x28
94 41 ---
   0:   5e                      pop    esi
   1:   29                      .byte 0x29
94 42 ---
   0:   5e                      pop    esi
   1:   2a                      .byte 0x2a
94 43 ---
   0:   5e                      pop    esi
   1:   2b                      .byte 0x2b
94 44 ---
   0:   5e                      pop    esi
   1:   2c                      .byte 0x2c
94 45 ---
   0:   5e                      pop    esi
   1:   2d                      .byte 0x2d
94 46 ---
   0:   5e                      pop    esi
   1:   2e                      cs
94 47 ---
   0:   5e                      pop    esi
   1:   2f                      das
94 48 ---
   0:   5e                      pop    esi
   1:   30                      .byte 0x30
94 49 ---
   0:   5e                      pop    esi
   1:   31                      .byte 0x31
94 50 ---
   0:   5e                      pop    esi
   1:   32                      .byte 0x32
94 51 ---
   0:   5e                      pop    esi
   1:   33                      .byte 0x33
94 52 ---
   0:   5e                      pop    esi
   1:   34                      .byte 0x34
94 53 ---
   0:   5e                      pop    esi
   1:   35                      .byte 0x35
94 54 ---
   0:   5e                      pop    esi
   1:   36                      ss
94 55 ---
   0:   5e                      pop    esi
   1:   37                      aaa
94 56 ---
   0:   5e                      pop    esi
   1:   38                      .byte 0x38
94 57 ---
   0:   5e                      pop    esi
   1:   39                      .byte 0x39
94 58 ---
   0:   5e                      pop    esi
   1:   3a                      .byte 0x3a
94 59 ---
   0:   5e                      pop    esi
   1:   3b                      .byte 0x3b
94 60 ---
   0:   5e                      pop    esi
   1:   3c                      .byte 0x3c
94 61 ---
   0:   5e                      pop    esi
   1:   3d                      .byte 0x3d
94 62 ---
   0:   5e                      pop    esi
   1:   3e                      ds
94 63 ---
   0:   5e                      pop    esi
   1:   3f                      aas
94 64 ---
   0:   5e                      pop    esi
   1:   40                      inc    eax
94 65 ---
   0:   5e                      pop    esi
   1:   41                      inc    ecx
94 66 ---
   0:   5e                      pop    esi
   1:   42                      inc    edx
94 67 ---
   0:   5e                      pop    esi
   1:   43                      inc    ebx
94 68 ---
   0:   5e                      pop    esi
   1:   44                      inc    esp
94 69 ---
   0:   5e                      pop    esi
   1:   45                      inc    ebp
94 70 ---
   0:   5e                      pop    esi
   1:   46                      inc    esi
94 71 ---
   0:   5e                      pop    esi
   1:   47                      inc    edi
94 72 ---
   0:   5e                      pop    esi
   1:   48                      dec    eax
94 73 ---
   0:   5e                      pop    esi
   1:   49                      dec    ecx
94 74 ---
   0:   5e                      pop    esi
   1:   4a                      dec    edx
94 75 ---
   0:   5e                      pop    esi
   1:   4b                      dec    ebx
94 76 ---
   0:   5e                      pop    esi
   1:   4c                      dec    esp
94 77 ---
   0:   5e                      pop    esi
   1:   4d                      dec    ebp
94 78 ---
   0:   5e                      pop    esi
   1:   4e                      dec    esi
94 79 ---
   0:   5e                      pop    esi
   1:   4f                      dec    edi
94 80 ---
   0:   5e                      pop    esi
   1:   50                      push   eax
94 81 ---
   0:   5e                      pop    esi
   1:   51                      push   ecx
94 82 ---
   0:   5e                      pop    esi
   1:   52                      push   edx
94 83 ---
   0:   5e                      pop    esi
   1:   53                      push   ebx
94 84 ---
   0:   5e                      pop    esi
   1:   54                      push   esp
94 85 ---
   0:   5e                      pop    esi
   1:   55                      push   ebp
94 86 ---
   0:   5e                      pop    esi
   1:   56                      push   esi
94 87 ---
   0:   5e                      pop    esi
   1:   57                      push   edi
94 88 ---
   0:   5e                      pop    esi
   1:   58                      pop    eax
94 89 ---
   0:   5e                      pop    esi
   1:   59                      pop    ecx
94 90 ---
   0:   5e                      pop    esi
   1:   5a                      pop    edx
94 91 ---
   0:   5e                      pop    esi
   1:   5b                      pop    ebx
94 92 ---
   0:   5e                      pop    esi
   1:   5c                      pop    esp
94 93 ---
   0:   5e                      pop    esi
   1:   5d                      pop    ebp
94 94 ---
   0:   5e                      pop    esi
   1:   5e                      pop    esi
94 95 ---
   0:   5e                      pop    esi
   1:   5f                      pop    edi
94 96 ---
   0:   5e                      pop    esi
   1:   60                      pusha
94 97 ---
   0:   5e                      pop    esi
   1:   61                      popa
94 98 ---
   0:   5e                      pop    esi
   1:   62                      .byte 0x62
94 99 ---
   0:   5e                      pop    esi
   1:   63                      .byte 0x63
94 100 ---
   0:   5e                      pop    esi
   1:   64                      fs
94 101 ---
   0:   5e                      pop    esi
   1:   65                      gs
94 102 ---
   0:   5e                      pop    esi
   1:   66                      data16
94 103 ---
   0:   5e                      pop    esi
   1:   67                      addr16
94 104 ---
   0:   5e                      pop    esi
   1:   68                      .byte 0x68
94 105 ---
   0:   5e                      pop    esi
   1:   69                      .byte 0x69
94 106 ---
   0:   5e                      pop    esi
   1:   6a                      .byte 0x6a
94 107 ---
   0:   5e                      pop    esi
   1:   6b                      .byte 0x6b
94 108 ---
   0:   5e                      pop    esi
   1:   6c                      ins    BYTE PTR es:[edi],dx
94 109 ---
   0:   5e                      pop    esi
   1:   6d                      ins    DWORD PTR es:[edi],dx
94 110 ---
   0:   5e                      pop    esi
   1:   6e                      outs   dx,BYTE PTR ds:[esi]
94 111 ---
   0:   5e                      pop    esi
   1:   6f                      outs   dx,DWORD PTR ds:[esi]
94 112 ---
   0:   5e                      pop    esi
   1:   70                      .byte 0x70
94 113 ---
   0:   5e                      pop    esi
   1:   71                      .byte 0x71
94 114 ---
   0:   5e                      pop    esi
   1:   72                      .byte 0x72
94 115 ---
   0:   5e                      pop    esi
   1:   73                      .byte 0x73
94 116 ---
   0:   5e                      pop    esi
   1:   74                      .byte 0x74
94 117 ---
   0:   5e                      pop    esi
   1:   75                      .byte 0x75
94 118 ---
   0:   5e                      pop    esi
   1:   76                      .byte 0x76
94 119 ---
   0:   5e                      pop    esi
   1:   77                      .byte 0x77
94 120 ---
   0:   5e                      pop    esi
   1:   78                      .byte 0x78
94 121 ---
   0:   5e                      pop    esi
   1:   79                      .byte 0x79
94 122 ---
   0:   5e                      pop    esi
   1:   7a                      .byte 0x7a
94 123 ---
   0:   5e                      pop    esi
   1:   7b                      .byte 0x7b
94 124 ---
   0:   5e                      pop    esi
   1:   7c                      .byte 0x7c
94 125 ---
   0:   5e                      pop    esi
   1:   7d                      .byte 0x7d
94 126 ---
   0:   5e                      pop    esi
   1:   7e                      .byte 0x7e
95 32 ---
   0:   5f                      pop    edi
   1:   20                      .byte 0x20
95 33 ---
   0:   5f                      pop    edi
   1:   21                      .byte 0x21
95 34 ---
   0:   5f                      pop    edi
   1:   22                      .byte 0x22
95 35 ---
   0:   5f                      pop    edi
   1:   23                      .byte 0x23
95 36 ---
   0:   5f                      pop    edi
   1:   24                      .byte 0x24
95 37 ---
   0:   5f                      pop    edi
   1:   25                      .byte 0x25
95 38 ---
   0:   5f                      pop    edi
   1:   26                      es
95 39 ---
   0:   5f                      pop    edi
   1:   27                      daa
95 40 ---
   0:   5f                      pop    edi
   1:   28                      .byte 0x28
95 41 ---
   0:   5f                      pop    edi
   1:   29                      .byte 0x29
95 42 ---
   0:   5f                      pop    edi
   1:   2a                      .byte 0x2a
95 43 ---
   0:   5f                      pop    edi
   1:   2b                      .byte 0x2b
95 44 ---
   0:   5f                      pop    edi
   1:   2c                      .byte 0x2c
95 45 ---
   0:   5f                      pop    edi
   1:   2d                      .byte 0x2d
95 46 ---
   0:   5f                      pop    edi
   1:   2e                      cs
95 47 ---
   0:   5f                      pop    edi
   1:   2f                      das
95 48 ---
   0:   5f                      pop    edi
   1:   30                      .byte 0x30
95 49 ---
   0:   5f                      pop    edi
   1:   31                      .byte 0x31
95 50 ---
   0:   5f                      pop    edi
   1:   32                      .byte 0x32
95 51 ---
   0:   5f                      pop    edi
   1:   33                      .byte 0x33
95 52 ---
   0:   5f                      pop    edi
   1:   34                      .byte 0x34
95 53 ---
   0:   5f                      pop    edi
   1:   35                      .byte 0x35
95 54 ---
   0:   5f                      pop    edi
   1:   36                      ss
95 55 ---
   0:   5f                      pop    edi
   1:   37                      aaa
95 56 ---
   0:   5f                      pop    edi
   1:   38                      .byte 0x38
95 57 ---
   0:   5f                      pop    edi
   1:   39                      .byte 0x39
95 58 ---
   0:   5f                      pop    edi
   1:   3a                      .byte 0x3a
95 59 ---
   0:   5f                      pop    edi
   1:   3b                      .byte 0x3b
95 60 ---
   0:   5f                      pop    edi
   1:   3c                      .byte 0x3c
95 61 ---
   0:   5f                      pop    edi
   1:   3d                      .byte 0x3d
95 62 ---
   0:   5f                      pop    edi
   1:   3e                      ds
95 63 ---
   0:   5f                      pop    edi
   1:   3f                      aas
95 64 ---
   0:   5f                      pop    edi
   1:   40                      inc    eax
95 65 ---
   0:   5f                      pop    edi
   1:   41                      inc    ecx
95 66 ---
   0:   5f                      pop    edi
   1:   42                      inc    edx
95 67 ---
   0:   5f                      pop    edi
   1:   43                      inc    ebx
95 68 ---
   0:   5f                      pop    edi
   1:   44                      inc    esp
95 69 ---
   0:   5f                      pop    edi
   1:   45                      inc    ebp
95 70 ---
   0:   5f                      pop    edi
   1:   46                      inc    esi
95 71 ---
   0:   5f                      pop    edi
   1:   47                      inc    edi
95 72 ---
   0:   5f                      pop    edi
   1:   48                      dec    eax
95 73 ---
   0:   5f                      pop    edi
   1:   49                      dec    ecx
95 74 ---
   0:   5f                      pop    edi
   1:   4a                      dec    edx
95 75 ---
   0:   5f                      pop    edi
   1:   4b                      dec    ebx
95 76 ---
   0:   5f                      pop    edi
   1:   4c                      dec    esp
95 77 ---
   0:   5f                      pop    edi
   1:   4d                      dec    ebp
95 78 ---
   0:   5f                      pop    edi
   1:   4e                      dec    esi
95 79 ---
   0:   5f                      pop    edi
   1:   4f                      dec    edi
95 80 ---
   0:   5f                      pop    edi
   1:   50                      push   eax
95 81 ---
   0:   5f                      pop    edi
   1:   51                      push   ecx
95 82 ---
   0:   5f                      pop    edi
   1:   52                      push   edx
95 83 ---
   0:   5f                      pop    edi
   1:   53                      push   ebx
95 84 ---
   0:   5f                      pop    edi
   1:   54                      push   esp
95 85 ---
   0:   5f                      pop    edi
   1:   55                      push   ebp
95 86 ---
   0:   5f                      pop    edi
   1:   56                      push   esi
95 87 ---
   0:   5f                      pop    edi
   1:   57                      push   edi
95 88 ---
   0:   5f                      pop    edi
   1:   58                      pop    eax
95 89 ---
   0:   5f                      pop    edi
   1:   59                      pop    ecx
95 90 ---
   0:   5f                      pop    edi
   1:   5a                      pop    edx
95 91 ---
   0:   5f                      pop    edi
   1:   5b                      pop    ebx
95 92 ---
   0:   5f                      pop    edi
   1:   5c                      pop    esp
95 93 ---
   0:   5f                      pop    edi
   1:   5d                      pop    ebp
95 94 ---
   0:   5f                      pop    edi
   1:   5e                      pop    esi
95 95 ---
   0:   5f                      pop    edi
   1:   5f                      pop    edi
95 96 ---
   0:   5f                      pop    edi
   1:   60                      pusha
95 97 ---
   0:   5f                      pop    edi
   1:   61                      popa
95 98 ---
   0:   5f                      pop    edi
   1:   62                      .byte 0x62
95 99 ---
   0:   5f                      pop    edi
   1:   63                      .byte 0x63
95 100 ---
   0:   5f                      pop    edi
   1:   64                      fs
95 101 ---
   0:   5f                      pop    edi
   1:   65                      gs
95 102 ---
   0:   5f                      pop    edi
   1:   66                      data16
95 103 ---
   0:   5f                      pop    edi
   1:   67                      addr16
95 104 ---
   0:   5f                      pop    edi
   1:   68                      .byte 0x68
95 105 ---
   0:   5f                      pop    edi
   1:   69                      .byte 0x69
95 106 ---
   0:   5f                      pop    edi
   1:   6a                      .byte 0x6a
95 107 ---
   0:   5f                      pop    edi
   1:   6b                      .byte 0x6b
95 108 ---
   0:   5f                      pop    edi
   1:   6c                      ins    BYTE PTR es:[edi],dx
95 109 ---
   0:   5f                      pop    edi
   1:   6d                      ins    DWORD PTR es:[edi],dx
95 110 ---
   0:   5f                      pop    edi
   1:   6e                      outs   dx,BYTE PTR ds:[esi]
95 111 ---
   0:   5f                      pop    edi
   1:   6f                      outs   dx,DWORD PTR ds:[esi]
95 112 ---
   0:   5f                      pop    edi
   1:   70                      .byte 0x70
95 113 ---
   0:   5f                      pop    edi
   1:   71                      .byte 0x71
95 114 ---
   0:   5f                      pop    edi
   1:   72                      .byte 0x72
95 115 ---
   0:   5f                      pop    edi
   1:   73                      .byte 0x73
95 116 ---
   0:   5f                      pop    edi
   1:   74                      .byte 0x74
95 117 ---
   0:   5f                      pop    edi
   1:   75                      .byte 0x75
95 118 ---
   0:   5f                      pop    edi
   1:   76                      .byte 0x76
95 119 ---
   0:   5f                      pop    edi
   1:   77                      .byte 0x77
95 120 ---
   0:   5f                      pop    edi
   1:   78                      .byte 0x78
95 121 ---
   0:   5f                      pop    edi
   1:   79                      .byte 0x79
95 122 ---
   0:   5f                      pop    edi
   1:   7a                      .byte 0x7a
95 123 ---
   0:   5f                      pop    edi
   1:   7b                      .byte 0x7b
95 124 ---
   0:   5f                      pop    edi
   1:   7c                      .byte 0x7c
95 125 ---
   0:   5f                      pop    edi
   1:   7d                      .byte 0x7d
95 126 ---
   0:   5f                      pop    edi
   1:   7e                      .byte 0x7e
96 32 ---
   0:   60                      pusha  
   1:   20                      .byte 0x20
96 33 ---
   0:   60                      pusha  
   1:   21                      .byte 0x21
96 34 ---
   0:   60                      pusha  
   1:   22                      .byte 0x22
96 35 ---
   0:   60                      pusha  
   1:   23                      .byte 0x23
96 36 ---
   0:   60                      pusha  
   1:   24                      .byte 0x24
96 37 ---
   0:   60                      pusha  
   1:   25                      .byte 0x25
96 38 ---
   0:   60                      pusha  
   1:   26                      es
96 39 ---
   0:   60                      pusha  
   1:   27                      daa
96 40 ---
   0:   60                      pusha  
   1:   28                      .byte 0x28
96 41 ---
   0:   60                      pusha  
   1:   29                      .byte 0x29
96 42 ---
   0:   60                      pusha  
   1:   2a                      .byte 0x2a
96 43 ---
   0:   60                      pusha  
   1:   2b                      .byte 0x2b
96 44 ---
   0:   60                      pusha  
   1:   2c                      .byte 0x2c
96 45 ---
   0:   60                      pusha  
   1:   2d                      .byte 0x2d
96 46 ---
   0:   60                      pusha  
   1:   2e                      cs
96 47 ---
   0:   60                      pusha  
   1:   2f                      das
96 48 ---
   0:   60                      pusha  
   1:   30                      .byte 0x30
96 49 ---
   0:   60                      pusha  
   1:   31                      .byte 0x31
96 50 ---
   0:   60                      pusha  
   1:   32                      .byte 0x32
96 51 ---
   0:   60                      pusha  
   1:   33                      .byte 0x33
96 52 ---
   0:   60                      pusha  
   1:   34                      .byte 0x34
96 53 ---
   0:   60                      pusha  
   1:   35                      .byte 0x35
96 54 ---
   0:   60                      pusha  
   1:   36                      ss
96 55 ---
   0:   60                      pusha  
   1:   37                      aaa
96 56 ---
   0:   60                      pusha  
   1:   38                      .byte 0x38
96 57 ---
   0:   60                      pusha  
   1:   39                      .byte 0x39
96 58 ---
   0:   60                      pusha  
   1:   3a                      .byte 0x3a
96 59 ---
   0:   60                      pusha  
   1:   3b                      .byte 0x3b
96 60 ---
   0:   60                      pusha  
   1:   3c                      .byte 0x3c
96 61 ---
   0:   60                      pusha  
   1:   3d                      .byte 0x3d
96 62 ---
   0:   60                      pusha  
   1:   3e                      ds
96 63 ---
   0:   60                      pusha  
   1:   3f                      aas
96 64 ---
   0:   60                      pusha  
   1:   40                      inc    eax
96 65 ---
   0:   60                      pusha  
   1:   41                      inc    ecx
96 66 ---
   0:   60                      pusha  
   1:   42                      inc    edx
96 67 ---
   0:   60                      pusha  
   1:   43                      inc    ebx
96 68 ---
   0:   60                      pusha  
   1:   44                      inc    esp
96 69 ---
   0:   60                      pusha  
   1:   45                      inc    ebp
96 70 ---
   0:   60                      pusha  
   1:   46                      inc    esi
96 71 ---
   0:   60                      pusha  
   1:   47                      inc    edi
96 72 ---
   0:   60                      pusha  
   1:   48                      dec    eax
96 73 ---
   0:   60                      pusha  
   1:   49                      dec    ecx
96 74 ---
   0:   60                      pusha  
   1:   4a                      dec    edx
96 75 ---
   0:   60                      pusha  
   1:   4b                      dec    ebx
96 76 ---
   0:   60                      pusha  
   1:   4c                      dec    esp
96 77 ---
   0:   60                      pusha  
   1:   4d                      dec    ebp
96 78 ---
   0:   60                      pusha  
   1:   4e                      dec    esi
96 79 ---
   0:   60                      pusha  
   1:   4f                      dec    edi
96 80 ---
   0:   60                      pusha  
   1:   50                      push   eax
96 81 ---
   0:   60                      pusha  
   1:   51                      push   ecx
96 82 ---
   0:   60                      pusha  
   1:   52                      push   edx
96 83 ---
   0:   60                      pusha  
   1:   53                      push   ebx
96 84 ---
   0:   60                      pusha  
   1:   54                      push   esp
96 85 ---
   0:   60                      pusha  
   1:   55                      push   ebp
96 86 ---
   0:   60                      pusha  
   1:   56                      push   esi
96 87 ---
   0:   60                      pusha  
   1:   57                      push   edi
96 88 ---
   0:   60                      pusha  
   1:   58                      pop    eax
96 89 ---
   0:   60                      pusha  
   1:   59                      pop    ecx
96 90 ---
   0:   60                      pusha  
   1:   5a                      pop    edx
96 91 ---
   0:   60                      pusha  
   1:   5b                      pop    ebx
96 92 ---
   0:   60                      pusha  
   1:   5c                      pop    esp
96 93 ---
   0:   60                      pusha  
   1:   5d                      pop    ebp
96 94 ---
   0:   60                      pusha  
   1:   5e                      pop    esi
96 95 ---
   0:   60                      pusha  
   1:   5f                      pop    edi
96 96 ---
   0:   60                      pusha  
   1:   60                      pusha
96 97 ---
   0:   60                      pusha  
   1:   61                      popa
96 98 ---
   0:   60                      pusha  
   1:   62                      .byte 0x62
96 99 ---
   0:   60                      pusha  
   1:   63                      .byte 0x63
96 100 ---
   0:   60                      pusha  
   1:   64                      fs
96 101 ---
   0:   60                      pusha  
   1:   65                      gs
96 102 ---
   0:   60                      pusha  
   1:   66                      data16
96 103 ---
   0:   60                      pusha  
   1:   67                      addr16
96 104 ---
   0:   60                      pusha  
   1:   68                      .byte 0x68
96 105 ---
   0:   60                      pusha  
   1:   69                      .byte 0x69
96 106 ---
   0:   60                      pusha  
   1:   6a                      .byte 0x6a
96 107 ---
   0:   60                      pusha  
   1:   6b                      .byte 0x6b
96 108 ---
   0:   60                      pusha  
   1:   6c                      ins    BYTE PTR es:[edi],dx
96 109 ---
   0:   60                      pusha  
   1:   6d                      ins    DWORD PTR es:[edi],dx
96 110 ---
   0:   60                      pusha  
   1:   6e                      outs   dx,BYTE PTR ds:[esi]
96 111 ---
   0:   60                      pusha  
   1:   6f                      outs   dx,DWORD PTR ds:[esi]
96 112 ---
   0:   60                      pusha  
   1:   70                      .byte 0x70
96 113 ---
   0:   60                      pusha  
   1:   71                      .byte 0x71
96 114 ---
   0:   60                      pusha  
   1:   72                      .byte 0x72
96 115 ---
   0:   60                      pusha  
   1:   73                      .byte 0x73
96 116 ---
   0:   60                      pusha  
   1:   74                      .byte 0x74
96 117 ---
   0:   60                      pusha  
   1:   75                      .byte 0x75
96 118 ---
   0:   60                      pusha  
   1:   76                      .byte 0x76
96 119 ---
   0:   60                      pusha  
   1:   77                      .byte 0x77
96 120 ---
   0:   60                      pusha  
   1:   78                      .byte 0x78
96 121 ---
   0:   60                      pusha  
   1:   79                      .byte 0x79
96 122 ---
   0:   60                      pusha  
   1:   7a                      .byte 0x7a
96 123 ---
   0:   60                      pusha  
   1:   7b                      .byte 0x7b
96 124 ---
   0:   60                      pusha  
   1:   7c                      .byte 0x7c
96 125 ---
   0:   60                      pusha  
   1:   7d                      .byte 0x7d
96 126 ---
   0:   60                      pusha  
   1:   7e                      .byte 0x7e
97 32 ---
   0:   61                      popa   
   1:   20                      .byte 0x20
97 33 ---
   0:   61                      popa   
   1:   21                      .byte 0x21
97 34 ---
   0:   61                      popa   
   1:   22                      .byte 0x22
97 35 ---
   0:   61                      popa   
   1:   23                      .byte 0x23
97 36 ---
   0:   61                      popa   
   1:   24                      .byte 0x24
97 37 ---
   0:   61                      popa   
   1:   25                      .byte 0x25
97 38 ---
   0:   61                      popa   
   1:   26                      es
97 39 ---
   0:   61                      popa   
   1:   27                      daa
97 40 ---
   0:   61                      popa   
   1:   28                      .byte 0x28
97 41 ---
   0:   61                      popa   
   1:   29                      .byte 0x29
97 42 ---
   0:   61                      popa   
   1:   2a                      .byte 0x2a
97 43 ---
   0:   61                      popa   
   1:   2b                      .byte 0x2b
97 44 ---
   0:   61                      popa   
   1:   2c                      .byte 0x2c
97 45 ---
   0:   61                      popa   
   1:   2d                      .byte 0x2d
97 46 ---
   0:   61                      popa   
   1:   2e                      cs
97 47 ---
   0:   61                      popa   
   1:   2f                      das
97 48 ---
   0:   61                      popa   
   1:   30                      .byte 0x30
97 49 ---
   0:   61                      popa   
   1:   31                      .byte 0x31
97 50 ---
   0:   61                      popa   
   1:   32                      .byte 0x32
97 51 ---
   0:   61                      popa   
   1:   33                      .byte 0x33
97 52 ---
   0:   61                      popa   
   1:   34                      .byte 0x34
97 53 ---
   0:   61                      popa   
   1:   35                      .byte 0x35
97 54 ---
   0:   61                      popa   
   1:   36                      ss
97 55 ---
   0:   61                      popa   
   1:   37                      aaa
97 56 ---
   0:   61                      popa   
   1:   38                      .byte 0x38
97 57 ---
   0:   61                      popa   
   1:   39                      .byte 0x39
97 58 ---
   0:   61                      popa   
   1:   3a                      .byte 0x3a
97 59 ---
   0:   61                      popa   
   1:   3b                      .byte 0x3b
97 60 ---
   0:   61                      popa   
   1:   3c                      .byte 0x3c
97 61 ---
   0:   61                      popa   
   1:   3d                      .byte 0x3d
97 62 ---
   0:   61                      popa   
   1:   3e                      ds
97 63 ---
   0:   61                      popa   
   1:   3f                      aas
97 64 ---
   0:   61                      popa   
   1:   40                      inc    eax
97 65 ---
   0:   61                      popa   
   1:   41                      inc    ecx
97 66 ---
   0:   61                      popa   
   1:   42                      inc    edx
97 67 ---
   0:   61                      popa   
   1:   43                      inc    ebx
97 68 ---
   0:   61                      popa   
   1:   44                      inc    esp
97 69 ---
   0:   61                      popa   
   1:   45                      inc    ebp
97 70 ---
   0:   61                      popa   
   1:   46                      inc    esi
97 71 ---
   0:   61                      popa   
   1:   47                      inc    edi
97 72 ---
   0:   61                      popa   
   1:   48                      dec    eax
97 73 ---
   0:   61                      popa   
   1:   49                      dec    ecx
97 74 ---
   0:   61                      popa   
   1:   4a                      dec    edx
97 75 ---
   0:   61                      popa   
   1:   4b                      dec    ebx
97 76 ---
   0:   61                      popa   
   1:   4c                      dec    esp
97 77 ---
   0:   61                      popa   
   1:   4d                      dec    ebp
97 78 ---
   0:   61                      popa   
   1:   4e                      dec    esi
97 79 ---
   0:   61                      popa   
   1:   4f                      dec    edi
97 80 ---
   0:   61                      popa   
   1:   50                      push   eax
97 81 ---
   0:   61                      popa   
   1:   51                      push   ecx
97 82 ---
   0:   61                      popa   
   1:   52                      push   edx
97 83 ---
   0:   61                      popa   
   1:   53                      push   ebx
97 84 ---
   0:   61                      popa   
   1:   54                      push   esp
97 85 ---
   0:   61                      popa   
   1:   55                      push   ebp
97 86 ---
   0:   61                      popa   
   1:   56                      push   esi
97 87 ---
   0:   61                      popa   
   1:   57                      push   edi
97 88 ---
   0:   61                      popa   
   1:   58                      pop    eax
97 89 ---
   0:   61                      popa   
   1:   59                      pop    ecx
97 90 ---
   0:   61                      popa   
   1:   5a                      pop    edx
97 91 ---
   0:   61                      popa   
   1:   5b                      pop    ebx
97 92 ---
   0:   61                      popa   
   1:   5c                      pop    esp
97 93 ---
   0:   61                      popa   
   1:   5d                      pop    ebp
97 94 ---
   0:   61                      popa   
   1:   5e                      pop    esi
97 95 ---
   0:   61                      popa   
   1:   5f                      pop    edi
97 96 ---
   0:   61                      popa   
   1:   60                      pusha
97 97 ---
   0:   61                      popa   
   1:   61                      popa
97 98 ---
   0:   61                      popa   
   1:   62                      .byte 0x62
97 99 ---
   0:   61                      popa   
   1:   63                      .byte 0x63
97 100 ---
   0:   61                      popa   
   1:   64                      fs
97 101 ---
   0:   61                      popa   
   1:   65                      gs
97 102 ---
   0:   61                      popa   
   1:   66                      data16
97 103 ---
   0:   61                      popa   
   1:   67                      addr16
97 104 ---
   0:   61                      popa   
   1:   68                      .byte 0x68
97 105 ---
   0:   61                      popa   
   1:   69                      .byte 0x69
97 106 ---
   0:   61                      popa   
   1:   6a                      .byte 0x6a
97 107 ---
   0:   61                      popa   
   1:   6b                      .byte 0x6b
97 108 ---
   0:   61                      popa   
   1:   6c                      ins    BYTE PTR es:[edi],dx
97 109 ---
   0:   61                      popa   
   1:   6d                      ins    DWORD PTR es:[edi],dx
97 110 ---
   0:   61                      popa   
   1:   6e                      outs   dx,BYTE PTR ds:[esi]
97 111 ---
   0:   61                      popa   
   1:   6f                      outs   dx,DWORD PTR ds:[esi]
97 112 ---
   0:   61                      popa   
   1:   70                      .byte 0x70
97 113 ---
   0:   61                      popa   
   1:   71                      .byte 0x71
97 114 ---
   0:   61                      popa   
   1:   72                      .byte 0x72
97 115 ---
   0:   61                      popa   
   1:   73                      .byte 0x73
97 116 ---
   0:   61                      popa   
   1:   74                      .byte 0x74
97 117 ---
   0:   61                      popa   
   1:   75                      .byte 0x75
97 118 ---
   0:   61                      popa   
   1:   76                      .byte 0x76
97 119 ---
   0:   61                      popa   
   1:   77                      .byte 0x77
97 120 ---
   0:   61                      popa   
   1:   78                      .byte 0x78
97 121 ---
   0:   61                      popa   
   1:   79                      .byte 0x79
97 122 ---
   0:   61                      popa   
   1:   7a                      .byte 0x7a
97 123 ---
   0:   61                      popa   
   1:   7b                      .byte 0x7b
97 124 ---
   0:   61                      popa   
   1:   7c                      .byte 0x7c
97 125 ---
   0:   61                      popa   
   1:   7d                      .byte 0x7d
97 126 ---
   0:   61                      popa   
   1:   7e                      .byte 0x7e
98 32 ---
   0:   62 20                   bound  esp,QWORD PTR [eax]
98 33 ---
   0:   62 21                   bound  esp,QWORD PTR [ecx]
98 34 ---
   0:   62 22                   bound  esp,QWORD PTR [edx]
98 35 ---
   0:   62 23                   bound  esp,QWORD PTR [ebx]
98 36 ---
   0:   62                      .byte 0x62
   1:   24                      .byte 0x24
98 37 ---
   0:   62                      .byte 0x62
   1:   25                      .byte 0x25
98 38 ---
   0:   62 26                   bound  esp,QWORD PTR [esi]
98 39 ---
   0:   62 27                   bound  esp,QWORD PTR [edi]
98 40 ---
   0:   62 28                   bound  ebp,QWORD PTR [eax]
98 41 ---
   0:   62 29                   bound  ebp,QWORD PTR [ecx]
98 42 ---
   0:   62 2a                   bound  ebp,QWORD PTR [edx]
98 43 ---
   0:   62 2b                   bound  ebp,QWORD PTR [ebx]
98 44 ---
   0:   62                      .byte 0x62
   1:   2c                      .byte 0x2c
98 45 ---
   0:   62                      .byte 0x62
   1:   2d                      .byte 0x2d
98 46 ---
   0:   62 2e                   bound  ebp,QWORD PTR [esi]
98 47 ---
   0:   62 2f                   bound  ebp,QWORD PTR [edi]
98 48 ---
   0:   62 30                   bound  esi,QWORD PTR [eax]
98 49 ---
   0:   62 31                   bound  esi,QWORD PTR [ecx]
98 50 ---
   0:   62 32                   bound  esi,QWORD PTR [edx]
98 51 ---
   0:   62 33                   bound  esi,QWORD PTR [ebx]
98 52 ---
   0:   62                      .byte 0x62
   1:   34                      .byte 0x34
98 53 ---
   0:   62                      .byte 0x62
   1:   35                      .byte 0x35
98 54 ---
   0:   62 36                   bound  esi,QWORD PTR [esi]
98 55 ---
   0:   62 37                   bound  esi,QWORD PTR [edi]
98 56 ---
   0:   62 38                   bound  edi,QWORD PTR [eax]
98 57 ---
   0:   62 39                   bound  edi,QWORD PTR [ecx]
98 58 ---
   0:   62 3a                   bound  edi,QWORD PTR [edx]
98 59 ---
   0:   62 3b                   bound  edi,QWORD PTR [ebx]
98 60 ---
   0:   62                      .byte 0x62
   1:   3c                      .byte 0x3c
98 61 ---
   0:   62                      .byte 0x62
   1:   3d                      .byte 0x3d
98 62 ---
   0:   62 3e                   bound  edi,QWORD PTR [esi]
98 63 ---
   0:   62 3f                   bound  edi,QWORD PTR [edi]
98 64 ---
   0:   62                      .byte 0x62
   1:   40                      inc    eax
98 65 ---
   0:   62                      .byte 0x62
   1:   41                      inc    ecx
98 66 ---
   0:   62                      .byte 0x62
   1:   42                      inc    edx
98 67 ---
   0:   62                      .byte 0x62
   1:   43                      inc    ebx
98 68 ---
   0:   62                      .byte 0x62
   1:   44                      inc    esp
98 69 ---
   0:   62                      .byte 0x62
   1:   45                      inc    ebp
98 70 ---
   0:   62                      .byte 0x62
   1:   46                      inc    esi
98 71 ---
   0:   62                      .byte 0x62
   1:   47                      inc    edi
98 72 ---
   0:   62                      .byte 0x62
   1:   48                      dec    eax
98 73 ---
   0:   62                      .byte 0x62
   1:   49                      dec    ecx
98 74 ---
   0:   62                      .byte 0x62
   1:   4a                      dec    edx
98 75 ---
   0:   62                      .byte 0x62
   1:   4b                      dec    ebx
98 76 ---
   0:   62                      .byte 0x62
   1:   4c                      dec    esp
98 77 ---
   0:   62                      .byte 0x62
   1:   4d                      dec    ebp
98 78 ---
   0:   62                      .byte 0x62
   1:   4e                      dec    esi
98 79 ---
   0:   62                      .byte 0x62
   1:   4f                      dec    edi
98 80 ---
   0:   62                      .byte 0x62
   1:   50                      push   eax
98 81 ---
   0:   62                      .byte 0x62
   1:   51                      push   ecx
98 82 ---
   0:   62                      .byte 0x62
   1:   52                      push   edx
98 83 ---
   0:   62                      .byte 0x62
   1:   53                      push   ebx
98 84 ---
   0:   62                      .byte 0x62
   1:   54                      push   esp
98 85 ---
   0:   62                      .byte 0x62
   1:   55                      push   ebp
98 86 ---
   0:   62                      .byte 0x62
   1:   56                      push   esi
98 87 ---
   0:   62                      .byte 0x62
   1:   57                      push   edi
98 88 ---
   0:   62                      .byte 0x62
   1:   58                      pop    eax
98 89 ---
   0:   62                      .byte 0x62
   1:   59                      pop    ecx
98 90 ---
   0:   62                      .byte 0x62
   1:   5a                      pop    edx
98 91 ---
   0:   62                      .byte 0x62
   1:   5b                      pop    ebx
98 92 ---
   0:   62                      .byte 0x62
   1:   5c                      pop    esp
98 93 ---
   0:   62                      .byte 0x62
   1:   5d                      pop    ebp
98 94 ---
   0:   62                      .byte 0x62
   1:   5e                      pop    esi
98 95 ---
   0:   62                      .byte 0x62
   1:   5f                      pop    edi
98 96 ---
   0:   62                      .byte 0x62
   1:   60                      pusha
98 97 ---
   0:   62                      .byte 0x62
   1:   61                      popa
98 98 ---
   0:   62                      .byte 0x62
   1:   62                      .byte 0x62
98 99 ---
   0:   62                      .byte 0x62
   1:   63                      .byte 0x63
98 100 ---
   0:   62                      .byte 0x62
   1:   64                      fs
98 101 ---
   0:   62                      .byte 0x62
   1:   65                      gs
98 102 ---
   0:   62                      .byte 0x62
   1:   66                      data16
98 103 ---
   0:   62                      .byte 0x62
   1:   67                      addr16
98 104 ---
   0:   62                      .byte 0x62
   1:   68                      .byte 0x68
98 105 ---
   0:   62                      .byte 0x62
   1:   69                      .byte 0x69
98 106 ---
   0:   62                      .byte 0x62
   1:   6a                      .byte 0x6a
98 107 ---
   0:   62                      .byte 0x62
   1:   6b                      .byte 0x6b
98 108 ---
   0:   62                      .byte 0x62
   1:   6c                      ins    BYTE PTR es:[edi],dx
98 109 ---
   0:   62                      .byte 0x62
   1:   6d                      ins    DWORD PTR es:[edi],dx
98 110 ---
   0:   62                      .byte 0x62
   1:   6e                      outs   dx,BYTE PTR ds:[esi]
98 111 ---
   0:   62                      .byte 0x62
   1:   6f                      outs   dx,DWORD PTR ds:[esi]
98 112 ---
   0:   62                      .byte 0x62
   1:   70                      .byte 0x70
98 113 ---
   0:   62                      .byte 0x62
   1:   71                      .byte 0x71
98 114 ---
   0:   62                      .byte 0x62
   1:   72                      .byte 0x72
98 115 ---
   0:   62                      .byte 0x62
   1:   73                      .byte 0x73
98 116 ---
   0:   62                      .byte 0x62
   1:   74                      .byte 0x74
98 117 ---
   0:   62                      .byte 0x62
   1:   75                      .byte 0x75
98 118 ---
   0:   62                      .byte 0x62
   1:   76                      .byte 0x76
98 119 ---
   0:   62                      .byte 0x62
   1:   77                      .byte 0x77
98 120 ---
   0:   62                      .byte 0x62
   1:   78                      .byte 0x78
98 121 ---
   0:   62                      .byte 0x62
   1:   79                      .byte 0x79
98 122 ---
   0:   62                      .byte 0x62
   1:   7a                      .byte 0x7a
98 123 ---
   0:   62                      .byte 0x62
   1:   7b                      .byte 0x7b
98 124 ---
   0:   62                      .byte 0x62
   1:   7c                      .byte 0x7c
98 125 ---
   0:   62                      .byte 0x62
   1:   7d                      .byte 0x7d
98 126 ---
   0:   62                      .byte 0x62
   1:   7e                      .byte 0x7e
99 32 ---
   0:   63 20                   arpl   WORD PTR [eax],sp
99 33 ---
   0:   63 21                   arpl   WORD PTR [ecx],sp
99 34 ---
   0:   63 22                   arpl   WORD PTR [edx],sp
99 35 ---
   0:   63 23                   arpl   WORD PTR [ebx],sp
99 36 ---
   0:   63                      .byte 0x63
   1:   24                      .byte 0x24
99 37 ---
   0:   63                      .byte 0x63
   1:   25                      .byte 0x25
99 38 ---
   0:   63 26                   arpl   WORD PTR [esi],sp
99 39 ---
   0:   63 27                   arpl   WORD PTR [edi],sp
99 40 ---
   0:   63 28                   arpl   WORD PTR [eax],bp
99 41 ---
   0:   63 29                   arpl   WORD PTR [ecx],bp
99 42 ---
   0:   63 2a                   arpl   WORD PTR [edx],bp
99 43 ---
   0:   63 2b                   arpl   WORD PTR [ebx],bp
99 44 ---
   0:   63                      .byte 0x63
   1:   2c                      .byte 0x2c
99 45 ---
   0:   63                      .byte 0x63
   1:   2d                      .byte 0x2d
99 46 ---
   0:   63 2e                   arpl   WORD PTR [esi],bp
99 47 ---
   0:   63 2f                   arpl   WORD PTR [edi],bp
99 48 ---
   0:   63 30                   arpl   WORD PTR [eax],si
99 49 ---
   0:   63 31                   arpl   WORD PTR [ecx],si
99 50 ---
   0:   63 32                   arpl   WORD PTR [edx],si
99 51 ---
   0:   63 33                   arpl   WORD PTR [ebx],si
99 52 ---
   0:   63                      .byte 0x63
   1:   34                      .byte 0x34
99 53 ---
   0:   63                      .byte 0x63
   1:   35                      .byte 0x35
99 54 ---
   0:   63 36                   arpl   WORD PTR [esi],si
99 55 ---
   0:   63 37                   arpl   WORD PTR [edi],si
99 56 ---
   0:   63 38                   arpl   WORD PTR [eax],di
99 57 ---
   0:   63 39                   arpl   WORD PTR [ecx],di
99 58 ---
   0:   63 3a                   arpl   WORD PTR [edx],di
99 59 ---
   0:   63 3b                   arpl   WORD PTR [ebx],di
99 60 ---
   0:   63                      .byte 0x63
   1:   3c                      .byte 0x3c
99 61 ---
   0:   63                      .byte 0x63
   1:   3d                      .byte 0x3d
99 62 ---
   0:   63 3e                   arpl   WORD PTR [esi],di
99 63 ---
   0:   63 3f                   arpl   WORD PTR [edi],di
99 64 ---
   0:   63                      .byte 0x63
   1:   40                      inc    eax
99 65 ---
   0:   63                      .byte 0x63
   1:   41                      inc    ecx
99 66 ---
   0:   63                      .byte 0x63
   1:   42                      inc    edx
99 67 ---
   0:   63                      .byte 0x63
   1:   43                      inc    ebx
99 68 ---
   0:   63                      .byte 0x63
   1:   44                      inc    esp
99 69 ---
   0:   63                      .byte 0x63
   1:   45                      inc    ebp
99 70 ---
   0:   63                      .byte 0x63
   1:   46                      inc    esi
99 71 ---
   0:   63                      .byte 0x63
   1:   47                      inc    edi
99 72 ---
   0:   63                      .byte 0x63
   1:   48                      dec    eax
99 73 ---
   0:   63                      .byte 0x63
   1:   49                      dec    ecx
99 74 ---
   0:   63                      .byte 0x63
   1:   4a                      dec    edx
99 75 ---
   0:   63                      .byte 0x63
   1:   4b                      dec    ebx
99 76 ---
   0:   63                      .byte 0x63
   1:   4c                      dec    esp
99 77 ---
   0:   63                      .byte 0x63
   1:   4d                      dec    ebp
99 78 ---
   0:   63                      .byte 0x63
   1:   4e                      dec    esi
99 79 ---
   0:   63                      .byte 0x63
   1:   4f                      dec    edi
99 80 ---
   0:   63                      .byte 0x63
   1:   50                      push   eax
99 81 ---
   0:   63                      .byte 0x63
   1:   51                      push   ecx
99 82 ---
   0:   63                      .byte 0x63
   1:   52                      push   edx
99 83 ---
   0:   63                      .byte 0x63
   1:   53                      push   ebx
99 84 ---
   0:   63                      .byte 0x63
   1:   54                      push   esp
99 85 ---
   0:   63                      .byte 0x63
   1:   55                      push   ebp
99 86 ---
   0:   63                      .byte 0x63
   1:   56                      push   esi
99 87 ---
   0:   63                      .byte 0x63
   1:   57                      push   edi
99 88 ---
   0:   63                      .byte 0x63
   1:   58                      pop    eax
99 89 ---
   0:   63                      .byte 0x63
   1:   59                      pop    ecx
99 90 ---
   0:   63                      .byte 0x63
   1:   5a                      pop    edx
99 91 ---
   0:   63                      .byte 0x63
   1:   5b                      pop    ebx
99 92 ---
   0:   63                      .byte 0x63
   1:   5c                      pop    esp
99 93 ---
   0:   63                      .byte 0x63
   1:   5d                      pop    ebp
99 94 ---
   0:   63                      .byte 0x63
   1:   5e                      pop    esi
99 95 ---
   0:   63                      .byte 0x63
   1:   5f                      pop    edi
99 96 ---
   0:   63                      .byte 0x63
   1:   60                      pusha
99 97 ---
   0:   63                      .byte 0x63
   1:   61                      popa
99 98 ---
   0:   63                      .byte 0x63
   1:   62                      .byte 0x62
99 99 ---
   0:   63                      .byte 0x63
   1:   63                      .byte 0x63
99 100 ---
   0:   63                      .byte 0x63
   1:   64                      fs
99 101 ---
   0:   63                      .byte 0x63
   1:   65                      gs
99 102 ---
   0:   63                      .byte 0x63
   1:   66                      data16
99 103 ---
   0:   63                      .byte 0x63
   1:   67                      addr16
99 104 ---
   0:   63                      .byte 0x63
   1:   68                      .byte 0x68
99 105 ---
   0:   63                      .byte 0x63
   1:   69                      .byte 0x69
99 106 ---
   0:   63                      .byte 0x63
   1:   6a                      .byte 0x6a
99 107 ---
   0:   63                      .byte 0x63
   1:   6b                      .byte 0x6b
99 108 ---
   0:   63                      .byte 0x63
   1:   6c                      ins    BYTE PTR es:[edi],dx
99 109 ---
   0:   63                      .byte 0x63
   1:   6d                      ins    DWORD PTR es:[edi],dx
99 110 ---
   0:   63                      .byte 0x63
   1:   6e                      outs   dx,BYTE PTR ds:[esi]
99 111 ---
   0:   63                      .byte 0x63
   1:   6f                      outs   dx,DWORD PTR ds:[esi]
99 112 ---
   0:   63                      .byte 0x63
   1:   70                      .byte 0x70
99 113 ---
   0:   63                      .byte 0x63
   1:   71                      .byte 0x71
99 114 ---
   0:   63                      .byte 0x63
   1:   72                      .byte 0x72
99 115 ---
   0:   63                      .byte 0x63
   1:   73                      .byte 0x73
99 116 ---
   0:   63                      .byte 0x63
   1:   74                      .byte 0x74
99 117 ---
   0:   63                      .byte 0x63
   1:   75                      .byte 0x75
99 118 ---
   0:   63                      .byte 0x63
   1:   76                      .byte 0x76
99 119 ---
   0:   63                      .byte 0x63
   1:   77                      .byte 0x77
99 120 ---
   0:   63                      .byte 0x63
   1:   78                      .byte 0x78
99 121 ---
   0:   63                      .byte 0x63
   1:   79                      .byte 0x79
99 122 ---
   0:   63                      .byte 0x63
   1:   7a                      .byte 0x7a
99 123 ---
   0:   63                      .byte 0x63
   1:   7b                      .byte 0x7b
99 124 ---
   0:   63                      .byte 0x63
   1:   7c                      .byte 0x7c
99 125 ---
   0:   63                      .byte 0x63
   1:   7d                      .byte 0x7d
99 126 ---
   0:   63                      .byte 0x63
   1:   7e                      .byte 0x7e
100 32 ---
   0:   64                      fs
   1:   20                      .byte 0x20
100 33 ---
   0:   64                      fs
   1:   21                      .byte 0x21
100 34 ---
   0:   64                      fs
   1:   22                      .byte 0x22
100 35 ---
   0:   64                      fs
   1:   23                      .byte 0x23
100 36 ---
   0:   64                      fs
   1:   24                      .byte 0x24
100 37 ---
   0:   64                      fs
   1:   25                      .byte 0x25
100 38 ---
   0:   64                      fs
   1:   26                      es
100 39 ---
   0:   64 27                   fs daa
100 40 ---
   0:   64                      fs
   1:   28                      .byte 0x28
100 41 ---
   0:   64                      fs
   1:   29                      .byte 0x29
100 42 ---
   0:   64                      fs
   1:   2a                      .byte 0x2a
100 43 ---
   0:   64                      fs
   1:   2b                      .byte 0x2b
100 44 ---
   0:   64                      fs
   1:   2c                      .byte 0x2c
100 45 ---
   0:   64                      fs
   1:   2d                      .byte 0x2d
100 46 ---
   0:   64                      fs
   1:   2e                      cs
100 47 ---
   0:   64 2f                   fs das
100 48 ---
   0:   64                      fs
   1:   30                      .byte 0x30
100 49 ---
   0:   64                      fs
   1:   31                      .byte 0x31
100 50 ---
   0:   64                      fs
   1:   32                      .byte 0x32
100 51 ---
   0:   64                      fs
   1:   33                      .byte 0x33
100 52 ---
   0:   64                      fs
   1:   34                      .byte 0x34
100 53 ---
   0:   64                      fs
   1:   35                      .byte 0x35
100 54 ---
   0:   64                      fs
   1:   36                      ss
100 55 ---
   0:   64 37                   fs aaa
100 56 ---
   0:   64                      fs
   1:   38                      .byte 0x38
100 57 ---
   0:   64                      fs
   1:   39                      .byte 0x39
100 58 ---
   0:   64                      fs
   1:   3a                      .byte 0x3a
100 59 ---
   0:   64                      fs
   1:   3b                      .byte 0x3b
100 60 ---
   0:   64                      fs
   1:   3c                      .byte 0x3c
100 61 ---
   0:   64                      fs
   1:   3d                      .byte 0x3d
100 62 ---
   0:   64                      fs
   1:   3e                      ds
100 63 ---
   0:   64 3f                   fs aas
100 64 ---
   0:   64 40                   fs inc eax
100 65 ---
   0:   64 41                   fs inc ecx
100 66 ---
   0:   64 42                   fs inc edx
100 67 ---
   0:   64 43                   fs inc ebx
100 68 ---
   0:   64 44                   fs inc esp
100 69 ---
   0:   64 45                   fs inc ebp
100 70 ---
   0:   64 46                   fs inc esi
100 71 ---
   0:   64 47                   fs inc edi
100 72 ---
   0:   64 48                   fs dec eax
100 73 ---
   0:   64 49                   fs dec ecx
100 74 ---
   0:   64 4a                   fs dec edx
100 75 ---
   0:   64 4b                   fs dec ebx
100 76 ---
   0:   64 4c                   fs dec esp
100 77 ---
   0:   64 4d                   fs dec ebp
100 78 ---
   0:   64 4e                   fs dec esi
100 79 ---
   0:   64 4f                   fs dec edi
100 80 ---
   0:   64 50                   fs push eax
100 81 ---
   0:   64 51                   fs push ecx
100 82 ---
   0:   64 52                   fs push edx
100 83 ---
   0:   64 53                   fs push ebx
100 84 ---
   0:   64 54                   fs push esp
100 85 ---
   0:   64 55                   fs push ebp
100 86 ---
   0:   64 56                   fs push esi
100 87 ---
   0:   64 57                   fs push edi
100 88 ---
   0:   64 58                   fs pop eax
100 89 ---
   0:   64 59                   fs pop ecx
100 90 ---
   0:   64 5a                   fs pop edx
100 91 ---
   0:   64 5b                   fs pop ebx
100 92 ---
   0:   64 5c                   fs pop esp
100 93 ---
   0:   64 5d                   fs pop ebp
100 94 ---
   0:   64 5e                   fs pop esi
100 95 ---
   0:   64 5f                   fs pop edi
100 96 ---
   0:   64 60                   fs pusha
100 97 ---
   0:   64 61                   fs popa
100 98 ---
   0:   64                      fs
   1:   62                      .byte 0x62
100 99 ---
   0:   64                      fs
   1:   63                      .byte 0x63
100 100 ---
   0:   64                      fs
   1:   64                      fs
100 101 ---
   0:   64                      fs
   1:   65                      gs
100 102 ---
   0:   64                      fs
   1:   66                      data16
100 103 ---
   0:   64                      fs
   1:   67                      addr16
100 104 ---
   0:   64                      fs
   1:   68                      .byte 0x68
100 105 ---
   0:   64                      fs
   1:   69                      .byte 0x69
100 106 ---
   0:   64                      fs
   1:   6a                      .byte 0x6a
100 107 ---
   0:   64                      fs
   1:   6b                      .byte 0x6b
100 108 ---
   0:   64 6c                   fs ins BYTE PTR es:[edi],dx
100 109 ---
   0:   64 6d                   fs ins DWORD PTR es:[edi],dx
100 110 ---
   0:   64 6e                   outs   dx,BYTE PTR fs:[esi]
100 111 ---
   0:   64 6f                   outs   dx,DWORD PTR fs:[esi]
100 112 ---
   0:   64                      fs
   1:   70                      .byte 0x70
100 113 ---
   0:   64                      fs
   1:   71                      .byte 0x71
100 114 ---
   0:   64                      fs
   1:   72                      .byte 0x72
100 115 ---
   0:   64                      fs
   1:   73                      .byte 0x73
100 116 ---
   0:   64                      fs
   1:   74                      .byte 0x74
100 117 ---
   0:   64                      fs
   1:   75                      .byte 0x75
100 118 ---
   0:   64                      fs
   1:   76                      .byte 0x76
100 119 ---
   0:   64                      fs
   1:   77                      .byte 0x77
100 120 ---
   0:   64                      fs
   1:   78                      .byte 0x78
100 121 ---
   0:   64                      fs
   1:   79                      .byte 0x79
100 122 ---
   0:   64                      fs
   1:   7a                      .byte 0x7a
100 123 ---
   0:   64                      fs
   1:   7b                      .byte 0x7b
100 124 ---
   0:   64                      fs
   1:   7c                      .byte 0x7c
100 125 ---
   0:   64                      fs
   1:   7d                      .byte 0x7d
100 126 ---
   0:   64                      fs
   1:   7e                      .byte 0x7e
101 32 ---
   0:   65                      gs
   1:   20                      .byte 0x20
101 33 ---
   0:   65                      gs
   1:   21                      .byte 0x21
101 34 ---
   0:   65                      gs
   1:   22                      .byte 0x22
101 35 ---
   0:   65                      gs
   1:   23                      .byte 0x23
101 36 ---
   0:   65                      gs
   1:   24                      .byte 0x24
101 37 ---
   0:   65                      gs
   1:   25                      .byte 0x25
101 38 ---
   0:   65                      gs
   1:   26                      es
101 39 ---
   0:   65 27                   gs daa
101 40 ---
   0:   65                      gs
   1:   28                      .byte 0x28
101 41 ---
   0:   65                      gs
   1:   29                      .byte 0x29
101 42 ---
   0:   65                      gs
   1:   2a                      .byte 0x2a
101 43 ---
   0:   65                      gs
   1:   2b                      .byte 0x2b
101 44 ---
   0:   65                      gs
   1:   2c                      .byte 0x2c
101 45 ---
   0:   65                      gs
   1:   2d                      .byte 0x2d
101 46 ---
   0:   65                      gs
   1:   2e                      cs
101 47 ---
   0:   65 2f                   gs das
101 48 ---
   0:   65                      gs
   1:   30                      .byte 0x30
101 49 ---
   0:   65                      gs
   1:   31                      .byte 0x31
101 50 ---
   0:   65                      gs
   1:   32                      .byte 0x32
101 51 ---
   0:   65                      gs
   1:   33                      .byte 0x33
101 52 ---
   0:   65                      gs
   1:   34                      .byte 0x34
101 53 ---
   0:   65                      gs
   1:   35                      .byte 0x35
101 54 ---
   0:   65                      gs
   1:   36                      ss
101 55 ---
   0:   65 37                   gs aaa
101 56 ---
   0:   65                      gs
   1:   38                      .byte 0x38
101 57 ---
   0:   65                      gs
   1:   39                      .byte 0x39
101 58 ---
   0:   65                      gs
   1:   3a                      .byte 0x3a
101 59 ---
   0:   65                      gs
   1:   3b                      .byte 0x3b
101 60 ---
   0:   65                      gs
   1:   3c                      .byte 0x3c
101 61 ---
   0:   65                      gs
   1:   3d                      .byte 0x3d
101 62 ---
   0:   65                      gs
   1:   3e                      ds
101 63 ---
   0:   65 3f                   gs aas
101 64 ---
   0:   65 40                   gs inc eax
101 65 ---
   0:   65 41                   gs inc ecx
101 66 ---
   0:   65 42                   gs inc edx
101 67 ---
   0:   65 43                   gs inc ebx
101 68 ---
   0:   65 44                   gs inc esp
101 69 ---
   0:   65 45                   gs inc ebp
101 70 ---
   0:   65 46                   gs inc esi
101 71 ---
   0:   65 47                   gs inc edi
101 72 ---
   0:   65 48                   gs dec eax
101 73 ---
   0:   65 49                   gs dec ecx
101 74 ---
   0:   65 4a                   gs dec edx
101 75 ---
   0:   65 4b                   gs dec ebx
101 76 ---
   0:   65 4c                   gs dec esp
101 77 ---
   0:   65 4d                   gs dec ebp
101 78 ---
   0:   65 4e                   gs dec esi
101 79 ---
   0:   65 4f                   gs dec edi
101 80 ---
   0:   65 50                   gs push eax
101 81 ---
   0:   65 51                   gs push ecx
101 82 ---
   0:   65 52                   gs push edx
101 83 ---
   0:   65 53                   gs push ebx
101 84 ---
   0:   65 54                   gs push esp
101 85 ---
   0:   65 55                   gs push ebp
101 86 ---
   0:   65 56                   gs push esi
101 87 ---
   0:   65 57                   gs push edi
101 88 ---
   0:   65 58                   gs pop eax
101 89 ---
   0:   65 59                   gs pop ecx
101 90 ---
   0:   65 5a                   gs pop edx
101 91 ---
   0:   65 5b                   gs pop ebx
101 92 ---
   0:   65 5c                   gs pop esp
101 93 ---
   0:   65 5d                   gs pop ebp
101 94 ---
   0:   65 5e                   gs pop esi
101 95 ---
   0:   65 5f                   gs pop edi
101 96 ---
   0:   65 60                   gs pusha
101 97 ---
   0:   65 61                   gs popa
101 98 ---
   0:   65                      gs
   1:   62                      .byte 0x62
101 99 ---
   0:   65                      gs
   1:   63                      .byte 0x63
101 100 ---
   0:   65                      gs
   1:   64                      fs
101 101 ---
   0:   65                      gs
   1:   65                      gs
101 102 ---
   0:   65                      gs
   1:   66                      data16
101 103 ---
   0:   65                      gs
   1:   67                      addr16
101 104 ---
   0:   65                      gs
   1:   68                      .byte 0x68
101 105 ---
   0:   65                      gs
   1:   69                      .byte 0x69
101 106 ---
   0:   65                      gs
   1:   6a                      .byte 0x6a
101 107 ---
   0:   65                      gs
   1:   6b                      .byte 0x6b
101 108 ---
   0:   65 6c                   gs ins BYTE PTR es:[edi],dx
101 109 ---
   0:   65 6d                   gs ins DWORD PTR es:[edi],dx
101 110 ---
   0:   65 6e                   outs   dx,BYTE PTR gs:[esi]
101 111 ---
   0:   65 6f                   outs   dx,DWORD PTR gs:[esi]
101 112 ---
   0:   65                      gs
   1:   70                      .byte 0x70
101 113 ---
   0:   65                      gs
   1:   71                      .byte 0x71
101 114 ---
   0:   65                      gs
   1:   72                      .byte 0x72
101 115 ---
   0:   65                      gs
   1:   73                      .byte 0x73
101 116 ---
   0:   65                      gs
   1:   74                      .byte 0x74
101 117 ---
   0:   65                      gs
   1:   75                      .byte 0x75
101 118 ---
   0:   65                      gs
   1:   76                      .byte 0x76
101 119 ---
   0:   65                      gs
   1:   77                      .byte 0x77
101 120 ---
   0:   65                      gs
   1:   78                      .byte 0x78
101 121 ---
   0:   65                      gs
   1:   79                      .byte 0x79
101 122 ---
   0:   65                      gs
   1:   7a                      .byte 0x7a
101 123 ---
   0:   65                      gs
   1:   7b                      .byte 0x7b
101 124 ---
   0:   65                      gs
   1:   7c                      .byte 0x7c
101 125 ---
   0:   65                      gs
   1:   7d                      .byte 0x7d
101 126 ---
   0:   65                      gs
   1:   7e                      .byte 0x7e
102 32 ---
   0:   66                      data16
   1:   20                      .byte 0x20
102 33 ---
   0:   66                      data16
   1:   21                      .byte 0x21
102 34 ---
   0:   66                      data16
   1:   22                      .byte 0x22
102 35 ---
   0:   66                      data16
   1:   23                      .byte 0x23
102 36 ---
   0:   66                      data16
   1:   24                      .byte 0x24
102 37 ---
   0:   66                      data16
   1:   25                      .byte 0x25
102 38 ---
   0:   66                      data16
   1:   26                      es
102 39 ---
   0:   66 27                   data16 daa
102 40 ---
   0:   66                      data16
   1:   28                      .byte 0x28
102 41 ---
   0:   66                      data16
   1:   29                      .byte 0x29
102 42 ---
   0:   66                      data16
   1:   2a                      .byte 0x2a
102 43 ---
   0:   66                      data16
   1:   2b                      .byte 0x2b
102 44 ---
   0:   66                      data16
   1:   2c                      .byte 0x2c
102 45 ---
   0:   66                      data16
   1:   2d                      .byte 0x2d
102 46 ---
   0:   66                      data16
   1:   2e                      cs
102 47 ---
   0:   66 2f                   data16 das
102 48 ---
   0:   66                      data16
   1:   30                      .byte 0x30
102 49 ---
   0:   66                      data16
   1:   31                      .byte 0x31
102 50 ---
   0:   66                      data16
   1:   32                      .byte 0x32
102 51 ---
   0:   66                      data16
   1:   33                      .byte 0x33
102 52 ---
   0:   66                      data16
   1:   34                      .byte 0x34
102 53 ---
   0:   66                      data16
   1:   35                      .byte 0x35
102 54 ---
   0:   66                      data16
   1:   36                      ss
102 55 ---
   0:   66 37                   data16 aaa
102 56 ---
   0:   66                      data16
   1:   38                      .byte 0x38
102 57 ---
   0:   66                      data16
   1:   39                      .byte 0x39
102 58 ---
   0:   66                      data16
   1:   3a                      .byte 0x3a
102 59 ---
   0:   66                      data16
   1:   3b                      .byte 0x3b
102 60 ---
   0:   66                      data16
   1:   3c                      .byte 0x3c
102 61 ---
   0:   66                      data16
   1:   3d                      .byte 0x3d
102 62 ---
   0:   66                      data16
   1:   3e                      ds
102 63 ---
   0:   66 3f                   data16 aas
102 64 ---
   0:   66 40                   inc    ax
102 65 ---
   0:   66 41                   inc    cx
102 66 ---
   0:   66 42                   inc    dx
102 67 ---
   0:   66 43                   inc    bx
102 68 ---
   0:   66 44                   inc    sp
102 69 ---
   0:   66 45                   inc    bp
102 70 ---
   0:   66 46                   inc    si
102 71 ---
   0:   66 47                   inc    di
102 72 ---
   0:   66 48                   dec    ax
102 73 ---
   0:   66 49                   dec    cx
102 74 ---
   0:   66 4a                   dec    dx
102 75 ---
   0:   66 4b                   dec    bx
102 76 ---
   0:   66 4c                   dec    sp
102 77 ---
   0:   66 4d                   dec    bp
102 78 ---
   0:   66 4e                   dec    si
102 79 ---
   0:   66 4f                   dec    di
102 80 ---
   0:   66 50                   push   ax
102 81 ---
   0:   66 51                   push   cx
102 82 ---
   0:   66 52                   push   dx
102 83 ---
   0:   66 53                   push   bx
102 84 ---
   0:   66 54                   push   sp
102 85 ---
   0:   66 55                   push   bp
102 86 ---
   0:   66 56                   push   si
102 87 ---
   0:   66 57                   push   di
102 88 ---
   0:   66 58                   pop    ax
102 89 ---
   0:   66 59                   pop    cx
102 90 ---
   0:   66 5a                   pop    dx
102 91 ---
   0:   66 5b                   pop    bx
102 92 ---
   0:   66 5c                   pop    sp
102 93 ---
   0:   66 5d                   pop    bp
102 94 ---
   0:   66 5e                   pop    si
102 95 ---
   0:   66 5f                   pop    di
102 96 ---
   0:   66 60                   pushaw
102 97 ---
   0:   66 61                   popaw
102 98 ---
   0:   66                      data16
   1:   62                      .byte 0x62
102 99 ---
   0:   66                      data16
   1:   63                      .byte 0x63
102 100 ---
   0:   66                      data16
   1:   64                      fs
102 101 ---
   0:   66                      data16
   1:   65                      gs
102 102 ---
   0:   66                      data16
   1:   66                      data16
102 103 ---
   0:   66                      data16
   1:   67                      addr16
102 104 ---
   0:   66                      data16
   1:   68                      .byte 0x68
102 105 ---
   0:   66                      data16
   1:   69                      .byte 0x69
102 106 ---
   0:   66                      data16
   1:   6a                      .byte 0x6a
102 107 ---
   0:   66                      data16
   1:   6b                      .byte 0x6b
102 108 ---
   0:   66 6c                   data16 ins BYTE PTR es:[edi],dx
102 109 ---
   0:   66 6d                   ins    WORD PTR es:[edi],dx
102 110 ---
   0:   66 6e                   data16 outs dx,BYTE PTR ds:[esi]
102 111 ---
   0:   66 6f                   outs   dx,WORD PTR ds:[esi]
102 112 ---
   0:   66                      data16
   1:   70                      .byte 0x70
102 113 ---
   0:   66                      data16
   1:   71                      .byte 0x71
102 114 ---
   0:   66                      data16
   1:   72                      .byte 0x72
102 115 ---
   0:   66                      data16
   1:   73                      .byte 0x73
102 116 ---
   0:   66                      data16
   1:   74                      .byte 0x74
102 117 ---
   0:   66                      data16
   1:   75                      .byte 0x75
102 118 ---
   0:   66                      data16
   1:   76                      .byte 0x76
102 119 ---
   0:   66                      data16
   1:   77                      .byte 0x77
102 120 ---
   0:   66                      data16
   1:   78                      .byte 0x78
102 121 ---
   0:   66                      data16
   1:   79                      .byte 0x79
102 122 ---
   0:   66                      data16
   1:   7a                      .byte 0x7a
102 123 ---
   0:   66                      data16
   1:   7b                      .byte 0x7b
102 124 ---
   0:   66                      data16
   1:   7c                      .byte 0x7c
102 125 ---
   0:   66                      data16
   1:   7d                      .byte 0x7d
102 126 ---
   0:   66                      data16
   1:   7e                      .byte 0x7e
103 32 ---
   0:   67                      addr16
   1:   20                      .byte 0x20
103 33 ---
   0:   67                      addr16
   1:   21                      .byte 0x21
103 34 ---
   0:   67                      addr16
   1:   22                      .byte 0x22
103 35 ---
   0:   67                      addr16
   1:   23                      .byte 0x23
103 36 ---
   0:   67                      addr16
   1:   24                      .byte 0x24
103 37 ---
   0:   67                      addr16
   1:   25                      .byte 0x25
103 38 ---
   0:   67                      addr16
   1:   26                      es
103 39 ---
   0:   67 27                   addr16 daa
103 40 ---
   0:   67                      addr16
   1:   28                      .byte 0x28
103 41 ---
   0:   67                      addr16
   1:   29                      .byte 0x29
103 42 ---
   0:   67                      addr16
   1:   2a                      .byte 0x2a
103 43 ---
   0:   67                      addr16
   1:   2b                      .byte 0x2b
103 44 ---
   0:   67                      addr16
   1:   2c                      .byte 0x2c
103 45 ---
   0:   67                      addr16
   1:   2d                      .byte 0x2d
103 46 ---
   0:   67                      addr16
   1:   2e                      cs
103 47 ---
   0:   67 2f                   addr16 das
103 48 ---
   0:   67                      addr16
   1:   30                      .byte 0x30
103 49 ---
   0:   67                      addr16
   1:   31                      .byte 0x31
103 50 ---
   0:   67                      addr16
   1:   32                      .byte 0x32
103 51 ---
   0:   67                      addr16
   1:   33                      .byte 0x33
103 52 ---
   0:   67                      addr16
   1:   34                      .byte 0x34
103 53 ---
   0:   67                      addr16
   1:   35                      .byte 0x35
103 54 ---
   0:   67                      addr16
   1:   36                      ss
103 55 ---
   0:   67 37                   addr16 aaa
103 56 ---
   0:   67                      addr16
   1:   38                      .byte 0x38
103 57 ---
   0:   67                      addr16
   1:   39                      .byte 0x39
103 58 ---
   0:   67                      addr16
   1:   3a                      .byte 0x3a
103 59 ---
   0:   67                      addr16
   1:   3b                      .byte 0x3b
103 60 ---
   0:   67                      addr16
   1:   3c                      .byte 0x3c
103 61 ---
   0:   67                      addr16
   1:   3d                      .byte 0x3d
103 62 ---
   0:   67                      addr16
   1:   3e                      ds
103 63 ---
   0:   67 3f                   addr16 aas
103 64 ---
   0:   67 40                   addr16 inc eax
103 65 ---
   0:   67 41                   addr16 inc ecx
103 66 ---
   0:   67 42                   addr16 inc edx
103 67 ---
   0:   67 43                   addr16 inc ebx
103 68 ---
   0:   67 44                   addr16 inc esp
103 69 ---
   0:   67 45                   addr16 inc ebp
103 70 ---
   0:   67 46                   addr16 inc esi
103 71 ---
   0:   67 47                   addr16 inc edi
103 72 ---
   0:   67 48                   addr16 dec eax
103 73 ---
   0:   67 49                   addr16 dec ecx
103 74 ---
   0:   67 4a                   addr16 dec edx
103 75 ---
   0:   67 4b                   addr16 dec ebx
103 76 ---
   0:   67 4c                   addr16 dec esp
103 77 ---
   0:   67 4d                   addr16 dec ebp
103 78 ---
   0:   67 4e                   addr16 dec esi
103 79 ---
   0:   67 4f                   addr16 dec edi
103 80 ---
   0:   67 50                   addr16 push eax
103 81 ---
   0:   67 51                   addr16 push ecx
103 82 ---
   0:   67 52                   addr16 push edx
103 83 ---
   0:   67 53                   addr16 push ebx
103 84 ---
   0:   67 54                   addr16 push esp
103 85 ---
   0:   67 55                   addr16 push ebp
103 86 ---
   0:   67 56                   addr16 push esi
103 87 ---
   0:   67 57                   addr16 push edi
103 88 ---
   0:   67 58                   addr16 pop eax
103 89 ---
   0:   67 59                   addr16 pop ecx
103 90 ---
   0:   67 5a                   addr16 pop edx
103 91 ---
   0:   67 5b                   addr16 pop ebx
103 92 ---
   0:   67 5c                   addr16 pop esp
103 93 ---
   0:   67 5d                   addr16 pop ebp
103 94 ---
   0:   67 5e                   addr16 pop esi
103 95 ---
   0:   67 5f                   addr16 pop edi
103 96 ---
   0:   67 60                   addr16 pusha
103 97 ---
   0:   67 61                   addr16 popa
103 98 ---
   0:   67                      addr16
   1:   62                      .byte 0x62
103 99 ---
   0:   67                      addr16
   1:   63                      .byte 0x63
103 100 ---
   0:   67                      addr16
   1:   64                      fs
103 101 ---
   0:   67                      addr16
   1:   65                      gs
103 102 ---
   0:   67                      addr16
   1:   66                      data16
103 103 ---
   0:   67                      addr16
   1:   67                      addr16
103 104 ---
   0:   67                      addr16
   1:   68                      .byte 0x68
103 105 ---
   0:   67                      addr16
   1:   69                      .byte 0x69
103 106 ---
   0:   67                      addr16
   1:   6a                      .byte 0x6a
103 107 ---
   0:   67                      addr16
   1:   6b                      .byte 0x6b
103 108 ---
   0:   67 6c                   ins    BYTE PTR es:[di],dx
103 109 ---
   0:   67 6d                   ins    DWORD PTR es:[di],dx
103 110 ---
   0:   67 6e                   outs   dx,BYTE PTR ds:[si]
103 111 ---
   0:   67 6f                   outs   dx,DWORD PTR ds:[si]
103 112 ---
   0:   67                      addr16
   1:   70                      .byte 0x70
103 113 ---
   0:   67                      addr16
   1:   71                      .byte 0x71
103 114 ---
   0:   67                      addr16
   1:   72                      .byte 0x72
103 115 ---
   0:   67                      addr16
   1:   73                      .byte 0x73
103 116 ---
   0:   67                      addr16
   1:   74                      .byte 0x74
103 117 ---
   0:   67                      addr16
   1:   75                      .byte 0x75
103 118 ---
   0:   67                      addr16
   1:   76                      .byte 0x76
103 119 ---
   0:   67                      addr16
   1:   77                      .byte 0x77
103 120 ---
   0:   67                      addr16
   1:   78                      .byte 0x78
103 121 ---
   0:   67                      addr16
   1:   79                      .byte 0x79
103 122 ---
   0:   67                      addr16
   1:   7a                      .byte 0x7a
103 123 ---
   0:   67                      addr16
   1:   7b                      .byte 0x7b
103 124 ---
   0:   67                      addr16
   1:   7c                      .byte 0x7c
103 125 ---
   0:   67                      addr16
   1:   7d                      .byte 0x7d
103 126 ---
   0:   67                      addr16
   1:   7e                      .byte 0x7e
104 32 ---
   0:   68                      .byte 0x68
   1:   20                      .byte 0x20
104 33 ---
   0:   68                      .byte 0x68
   1:   21                      .byte 0x21
104 34 ---
   0:   68                      .byte 0x68
   1:   22                      .byte 0x22
104 35 ---
   0:   68                      .byte 0x68
   1:   23                      .byte 0x23
104 36 ---
   0:   68                      .byte 0x68
   1:   24                      .byte 0x24
104 37 ---
   0:   68                      .byte 0x68
   1:   25                      .byte 0x25
104 38 ---
   0:   68                      .byte 0x68
   1:   26                      es
104 39 ---
   0:   68                      .byte 0x68
   1:   27                      daa
104 40 ---
   0:   68                      .byte 0x68
   1:   28                      .byte 0x28
104 41 ---
   0:   68                      .byte 0x68
   1:   29                      .byte 0x29
104 42 ---
   0:   68                      .byte 0x68
   1:   2a                      .byte 0x2a
104 43 ---
   0:   68                      .byte 0x68
   1:   2b                      .byte 0x2b
104 44 ---
   0:   68                      .byte 0x68
   1:   2c                      .byte 0x2c
104 45 ---
   0:   68                      .byte 0x68
   1:   2d                      .byte 0x2d
104 46 ---
   0:   68                      .byte 0x68
   1:   2e                      cs
104 47 ---
   0:   68                      .byte 0x68
   1:   2f                      das
104 48 ---
   0:   68                      .byte 0x68
   1:   30                      .byte 0x30
104 49 ---
   0:   68                      .byte 0x68
   1:   31                      .byte 0x31
104 50 ---
   0:   68                      .byte 0x68
   1:   32                      .byte 0x32
104 51 ---
   0:   68                      .byte 0x68
   1:   33                      .byte 0x33
104 52 ---
   0:   68                      .byte 0x68
   1:   34                      .byte 0x34
104 53 ---
   0:   68                      .byte 0x68
   1:   35                      .byte 0x35
104 54 ---
   0:   68                      .byte 0x68
   1:   36                      ss
104 55 ---
   0:   68                      .byte 0x68
   1:   37                      aaa
104 56 ---
   0:   68                      .byte 0x68
   1:   38                      .byte 0x38
104 57 ---
   0:   68                      .byte 0x68
   1:   39                      .byte 0x39
104 58 ---
   0:   68                      .byte 0x68
   1:   3a                      .byte 0x3a
104 59 ---
   0:   68                      .byte 0x68
   1:   3b                      .byte 0x3b
104 60 ---
   0:   68                      .byte 0x68
   1:   3c                      .byte 0x3c
104 61 ---
   0:   68                      .byte 0x68
   1:   3d                      .byte 0x3d
104 62 ---
   0:   68                      .byte 0x68
   1:   3e                      ds
104 63 ---
   0:   68                      .byte 0x68
   1:   3f                      aas
104 64 ---
   0:   68                      .byte 0x68
   1:   40                      inc    eax
104 65 ---
   0:   68                      .byte 0x68
   1:   41                      inc    ecx
104 66 ---
   0:   68                      .byte 0x68
   1:   42                      inc    edx
104 67 ---
   0:   68                      .byte 0x68
   1:   43                      inc    ebx
104 68 ---
   0:   68                      .byte 0x68
   1:   44                      inc    esp
104 69 ---
   0:   68                      .byte 0x68
   1:   45                      inc    ebp
104 70 ---
   0:   68                      .byte 0x68
   1:   46                      inc    esi
104 71 ---
   0:   68                      .byte 0x68
   1:   47                      inc    edi
104 72 ---
   0:   68                      .byte 0x68
   1:   48                      dec    eax
104 73 ---
   0:   68                      .byte 0x68
   1:   49                      dec    ecx
104 74 ---
   0:   68                      .byte 0x68
   1:   4a                      dec    edx
104 75 ---
   0:   68                      .byte 0x68
   1:   4b                      dec    ebx
104 76 ---
   0:   68                      .byte 0x68
   1:   4c                      dec    esp
104 77 ---
   0:   68                      .byte 0x68
   1:   4d                      dec    ebp
104 78 ---
   0:   68                      .byte 0x68
   1:   4e                      dec    esi
104 79 ---
   0:   68                      .byte 0x68
   1:   4f                      dec    edi
104 80 ---
   0:   68                      .byte 0x68
   1:   50                      push   eax
104 81 ---
   0:   68                      .byte 0x68
   1:   51                      push   ecx
104 82 ---
   0:   68                      .byte 0x68
   1:   52                      push   edx
104 83 ---
   0:   68                      .byte 0x68
   1:   53                      push   ebx
104 84 ---
   0:   68                      .byte 0x68
   1:   54                      push   esp
104 85 ---
   0:   68                      .byte 0x68
   1:   55                      push   ebp
104 86 ---
   0:   68                      .byte 0x68
   1:   56                      push   esi
104 87 ---
   0:   68                      .byte 0x68
   1:   57                      push   edi
104 88 ---
   0:   68                      .byte 0x68
   1:   58                      pop    eax
104 89 ---
   0:   68                      .byte 0x68
   1:   59                      pop    ecx
104 90 ---
   0:   68                      .byte 0x68
   1:   5a                      pop    edx
104 91 ---
   0:   68                      .byte 0x68
   1:   5b                      pop    ebx
104 92 ---
   0:   68                      .byte 0x68
   1:   5c                      pop    esp
104 93 ---
   0:   68                      .byte 0x68
   1:   5d                      pop    ebp
104 94 ---
   0:   68                      .byte 0x68
   1:   5e                      pop    esi
104 95 ---
   0:   68                      .byte 0x68
   1:   5f                      pop    edi
104 96 ---
   0:   68                      .byte 0x68
   1:   60                      pusha
104 97 ---
   0:   68                      .byte 0x68
   1:   61                      popa
104 98 ---
   0:   68                      .byte 0x68
   1:   62                      .byte 0x62
104 99 ---
   0:   68                      .byte 0x68
   1:   63                      .byte 0x63
104 100 ---
   0:   68                      .byte 0x68
   1:   64                      fs
104 101 ---
   0:   68                      .byte 0x68
   1:   65                      gs
104 102 ---
   0:   68                      .byte 0x68
   1:   66                      data16
104 103 ---
   0:   68                      .byte 0x68
   1:   67                      addr16
104 104 ---
   0:   68                      .byte 0x68
   1:   68                      .byte 0x68
104 105 ---
   0:   68                      .byte 0x68
   1:   69                      .byte 0x69
104 106 ---
   0:   68                      .byte 0x68
   1:   6a                      .byte 0x6a
104 107 ---
   0:   68                      .byte 0x68
   1:   6b                      .byte 0x6b
104 108 ---
   0:   68                      .byte 0x68
   1:   6c                      ins    BYTE PTR es:[edi],dx
104 109 ---
   0:   68                      .byte 0x68
   1:   6d                      ins    DWORD PTR es:[edi],dx
104 110 ---
   0:   68                      .byte 0x68
   1:   6e                      outs   dx,BYTE PTR ds:[esi]
104 111 ---
   0:   68                      .byte 0x68
   1:   6f                      outs   dx,DWORD PTR ds:[esi]
104 112 ---
   0:   68                      .byte 0x68
   1:   70                      .byte 0x70
104 113 ---
   0:   68                      .byte 0x68
   1:   71                      .byte 0x71
104 114 ---
   0:   68                      .byte 0x68
   1:   72                      .byte 0x72
104 115 ---
   0:   68                      .byte 0x68
   1:   73                      .byte 0x73
104 116 ---
   0:   68                      .byte 0x68
   1:   74                      .byte 0x74
104 117 ---
   0:   68                      .byte 0x68
   1:   75                      .byte 0x75
104 118 ---
   0:   68                      .byte 0x68
   1:   76                      .byte 0x76
104 119 ---
   0:   68                      .byte 0x68
   1:   77                      .byte 0x77
104 120 ---
   0:   68                      .byte 0x68
   1:   78                      .byte 0x78
104 121 ---
   0:   68                      .byte 0x68
   1:   79                      .byte 0x79
104 122 ---
   0:   68                      .byte 0x68
   1:   7a                      .byte 0x7a
104 123 ---
   0:   68                      .byte 0x68
   1:   7b                      .byte 0x7b
104 124 ---
   0:   68                      .byte 0x68
   1:   7c                      .byte 0x7c
104 125 ---
   0:   68                      .byte 0x68
   1:   7d                      .byte 0x7d
104 126 ---
   0:   68                      .byte 0x68
   1:   7e                      .byte 0x7e
105 32 ---
   0:   69                      .byte 0x69
   1:   20                      .byte 0x20
105 33 ---
   0:   69                      .byte 0x69
   1:   21                      .byte 0x21
105 34 ---
   0:   69                      .byte 0x69
   1:   22                      .byte 0x22
105 35 ---
   0:   69                      .byte 0x69
   1:   23                      .byte 0x23
105 36 ---
   0:   69                      .byte 0x69
   1:   24                      .byte 0x24
105 37 ---
   0:   69                      .byte 0x69
   1:   25                      .byte 0x25
105 38 ---
   0:   69                      .byte 0x69
   1:   26                      es
105 39 ---
   0:   69                      .byte 0x69
   1:   27                      daa
105 40 ---
   0:   69                      .byte 0x69
   1:   28                      .byte 0x28
105 41 ---
   0:   69                      .byte 0x69
   1:   29                      .byte 0x29
105 42 ---
   0:   69                      .byte 0x69
   1:   2a                      .byte 0x2a
105 43 ---
   0:   69                      .byte 0x69
   1:   2b                      .byte 0x2b
105 44 ---
   0:   69                      .byte 0x69
   1:   2c                      .byte 0x2c
105 45 ---
   0:   69                      .byte 0x69
   1:   2d                      .byte 0x2d
105 46 ---
   0:   69                      .byte 0x69
   1:   2e                      cs
105 47 ---
   0:   69                      .byte 0x69
   1:   2f                      das
105 48 ---
   0:   69                      .byte 0x69
   1:   30                      .byte 0x30
105 49 ---
   0:   69                      .byte 0x69
   1:   31                      .byte 0x31
105 50 ---
   0:   69                      .byte 0x69
   1:   32                      .byte 0x32
105 51 ---
   0:   69                      .byte 0x69
   1:   33                      .byte 0x33
105 52 ---
   0:   69                      .byte 0x69
   1:   34                      .byte 0x34
105 53 ---
   0:   69                      .byte 0x69
   1:   35                      .byte 0x35
105 54 ---
   0:   69                      .byte 0x69
   1:   36                      ss
105 55 ---
   0:   69                      .byte 0x69
   1:   37                      aaa
105 56 ---
   0:   69                      .byte 0x69
   1:   38                      .byte 0x38
105 57 ---
   0:   69                      .byte 0x69
   1:   39                      .byte 0x39
105 58 ---
   0:   69                      .byte 0x69
   1:   3a                      .byte 0x3a
105 59 ---
   0:   69                      .byte 0x69
   1:   3b                      .byte 0x3b
105 60 ---
   0:   69                      .byte 0x69
   1:   3c                      .byte 0x3c
105 61 ---
   0:   69                      .byte 0x69
   1:   3d                      .byte 0x3d
105 62 ---
   0:   69                      .byte 0x69
   1:   3e                      ds
105 63 ---
   0:   69                      .byte 0x69
   1:   3f                      aas
105 64 ---
   0:   69                      .byte 0x69
   1:   40                      inc    eax
105 65 ---
   0:   69                      .byte 0x69
   1:   41                      inc    ecx
105 66 ---
   0:   69                      .byte 0x69
   1:   42                      inc    edx
105 67 ---
   0:   69                      .byte 0x69
   1:   43                      inc    ebx
105 68 ---
   0:   69                      .byte 0x69
   1:   44                      inc    esp
105 69 ---
   0:   69                      .byte 0x69
   1:   45                      inc    ebp
105 70 ---
   0:   69                      .byte 0x69
   1:   46                      inc    esi
105 71 ---
   0:   69                      .byte 0x69
   1:   47                      inc    edi
105 72 ---
   0:   69                      .byte 0x69
   1:   48                      dec    eax
105 73 ---
   0:   69                      .byte 0x69
   1:   49                      dec    ecx
105 74 ---
   0:   69                      .byte 0x69
   1:   4a                      dec    edx
105 75 ---
   0:   69                      .byte 0x69
   1:   4b                      dec    ebx
105 76 ---
   0:   69                      .byte 0x69
   1:   4c                      dec    esp
105 77 ---
   0:   69                      .byte 0x69
   1:   4d                      dec    ebp
105 78 ---
   0:   69                      .byte 0x69
   1:   4e                      dec    esi
105 79 ---
   0:   69                      .byte 0x69
   1:   4f                      dec    edi
105 80 ---
   0:   69                      .byte 0x69
   1:   50                      push   eax
105 81 ---
   0:   69                      .byte 0x69
   1:   51                      push   ecx
105 82 ---
   0:   69                      .byte 0x69
   1:   52                      push   edx
105 83 ---
   0:   69                      .byte 0x69
   1:   53                      push   ebx
105 84 ---
   0:   69                      .byte 0x69
   1:   54                      push   esp
105 85 ---
   0:   69                      .byte 0x69
   1:   55                      push   ebp
105 86 ---
   0:   69                      .byte 0x69
   1:   56                      push   esi
105 87 ---
   0:   69                      .byte 0x69
   1:   57                      push   edi
105 88 ---
   0:   69                      .byte 0x69
   1:   58                      pop    eax
105 89 ---
   0:   69                      .byte 0x69
   1:   59                      pop    ecx
105 90 ---
   0:   69                      .byte 0x69
   1:   5a                      pop    edx
105 91 ---
   0:   69                      .byte 0x69
   1:   5b                      pop    ebx
105 92 ---
   0:   69                      .byte 0x69
   1:   5c                      pop    esp
105 93 ---
   0:   69                      .byte 0x69
   1:   5d                      pop    ebp
105 94 ---
   0:   69                      .byte 0x69
   1:   5e                      pop    esi
105 95 ---
   0:   69                      .byte 0x69
   1:   5f                      pop    edi
105 96 ---
   0:   69                      .byte 0x69
   1:   60                      pusha
105 97 ---
   0:   69                      .byte 0x69
   1:   61                      popa
105 98 ---
   0:   69                      .byte 0x69
   1:   62                      .byte 0x62
105 99 ---
   0:   69                      .byte 0x69
   1:   63                      .byte 0x63
105 100 ---
   0:   69                      .byte 0x69
   1:   64                      fs
105 101 ---
   0:   69                      .byte 0x69
   1:   65                      gs
105 102 ---
   0:   69                      .byte 0x69
   1:   66                      data16
105 103 ---
   0:   69                      .byte 0x69
   1:   67                      addr16
105 104 ---
   0:   69                      .byte 0x69
   1:   68                      .byte 0x68
105 105 ---
   0:   69                      .byte 0x69
   1:   69                      .byte 0x69
105 106 ---
   0:   69                      .byte 0x69
   1:   6a                      .byte 0x6a
105 107 ---
   0:   69                      .byte 0x69
   1:   6b                      .byte 0x6b
105 108 ---
   0:   69                      .byte 0x69
   1:   6c                      ins    BYTE PTR es:[edi],dx
105 109 ---
   0:   69                      .byte 0x69
   1:   6d                      ins    DWORD PTR es:[edi],dx
105 110 ---
   0:   69                      .byte 0x69
   1:   6e                      outs   dx,BYTE PTR ds:[esi]
105 111 ---
   0:   69                      .byte 0x69
   1:   6f                      outs   dx,DWORD PTR ds:[esi]
105 112 ---
   0:   69                      .byte 0x69
   1:   70                      .byte 0x70
105 113 ---
   0:   69                      .byte 0x69
   1:   71                      .byte 0x71
105 114 ---
   0:   69                      .byte 0x69
   1:   72                      .byte 0x72
105 115 ---
   0:   69                      .byte 0x69
   1:   73                      .byte 0x73
105 116 ---
   0:   69                      .byte 0x69
   1:   74                      .byte 0x74
105 117 ---
   0:   69                      .byte 0x69
   1:   75                      .byte 0x75
105 118 ---
   0:   69                      .byte 0x69
   1:   76                      .byte 0x76
105 119 ---
   0:   69                      .byte 0x69
   1:   77                      .byte 0x77
105 120 ---
   0:   69                      .byte 0x69
   1:   78                      .byte 0x78
105 121 ---
   0:   69                      .byte 0x69
   1:   79                      .byte 0x79
105 122 ---
   0:   69                      .byte 0x69
   1:   7a                      .byte 0x7a
105 123 ---
   0:   69                      .byte 0x69
   1:   7b                      .byte 0x7b
105 124 ---
   0:   69                      .byte 0x69
   1:   7c                      .byte 0x7c
105 125 ---
   0:   69                      .byte 0x69
   1:   7d                      .byte 0x7d
105 126 ---
   0:   69                      .byte 0x69
   1:   7e                      .byte 0x7e
106 32 ---
   0:   6a 20                   push   0x20
106 33 ---
   0:   6a 21                   push   0x21
106 34 ---
   0:   6a 22                   push   0x22
106 35 ---
   0:   6a 23                   push   0x23
106 36 ---
   0:   6a 24                   push   0x24
106 37 ---
   0:   6a 25                   push   0x25
106 38 ---
   0:   6a 26                   push   0x26
106 39 ---
   0:   6a 27                   push   0x27
106 40 ---
   0:   6a 28                   push   0x28
106 41 ---
   0:   6a 29                   push   0x29
106 42 ---
   0:   6a 2a                   push   0x2a
106 43 ---
   0:   6a 2b                   push   0x2b
106 44 ---
   0:   6a 2c                   push   0x2c
106 45 ---
   0:   6a 2d                   push   0x2d
106 46 ---
   0:   6a 2e                   push   0x2e
106 47 ---
   0:   6a 2f                   push   0x2f
106 48 ---
   0:   6a 30                   push   0x30
106 49 ---
   0:   6a 31                   push   0x31
106 50 ---
   0:   6a 32                   push   0x32
106 51 ---
   0:   6a 33                   push   0x33
106 52 ---
   0:   6a 34                   push   0x34
106 53 ---
   0:   6a 35                   push   0x35
106 54 ---
   0:   6a 36                   push   0x36
106 55 ---
   0:   6a 37                   push   0x37
106 56 ---
   0:   6a 38                   push   0x38
106 57 ---
   0:   6a 39                   push   0x39
106 58 ---
   0:   6a 3a                   push   0x3a
106 59 ---
   0:   6a 3b                   push   0x3b
106 60 ---
   0:   6a 3c                   push   0x3c
106 61 ---
   0:   6a 3d                   push   0x3d
106 62 ---
   0:   6a 3e                   push   0x3e
106 63 ---
   0:   6a 3f                   push   0x3f
106 64 ---
   0:   6a 40                   push   0x40
106 65 ---
   0:   6a 41                   push   0x41
106 66 ---
   0:   6a 42                   push   0x42
106 67 ---
   0:   6a 43                   push   0x43
106 68 ---
   0:   6a 44                   push   0x44
106 69 ---
   0:   6a 45                   push   0x45
106 70 ---
   0:   6a 46                   push   0x46
106 71 ---
   0:   6a 47                   push   0x47
106 72 ---
   0:   6a 48                   push   0x48
106 73 ---
   0:   6a 49                   push   0x49
106 74 ---
   0:   6a 4a                   push   0x4a
106 75 ---
   0:   6a 4b                   push   0x4b
106 76 ---
   0:   6a 4c                   push   0x4c
106 77 ---
   0:   6a 4d                   push   0x4d
106 78 ---
   0:   6a 4e                   push   0x4e
106 79 ---
   0:   6a 4f                   push   0x4f
106 80 ---
   0:   6a 50                   push   0x50
106 81 ---
   0:   6a 51                   push   0x51
106 82 ---
   0:   6a 52                   push   0x52
106 83 ---
   0:   6a 53                   push   0x53
106 84 ---
   0:   6a 54                   push   0x54
106 85 ---
   0:   6a 55                   push   0x55
106 86 ---
   0:   6a 56                   push   0x56
106 87 ---
   0:   6a 57                   push   0x57
106 88 ---
   0:   6a 58                   push   0x58
106 89 ---
   0:   6a 59                   push   0x59
106 90 ---
   0:   6a 5a                   push   0x5a
106 91 ---
   0:   6a 5b                   push   0x5b
106 92 ---
   0:   6a 5c                   push   0x5c
106 93 ---
   0:   6a 5d                   push   0x5d
106 94 ---
   0:   6a 5e                   push   0x5e
106 95 ---
   0:   6a 5f                   push   0x5f
106 96 ---
   0:   6a 60                   push   0x60
106 97 ---
   0:   6a 61                   push   0x61
106 98 ---
   0:   6a 62                   push   0x62
106 99 ---
   0:   6a 63                   push   0x63
106 100 ---
   0:   6a 64                   push   0x64
106 101 ---
   0:   6a 65                   push   0x65
106 102 ---
   0:   6a 66                   push   0x66
106 103 ---
   0:   6a 67                   push   0x67
106 104 ---
   0:   6a 68                   push   0x68
106 105 ---
   0:   6a 69                   push   0x69
106 106 ---
   0:   6a 6a                   push   0x6a
106 107 ---
   0:   6a 6b                   push   0x6b
106 108 ---
   0:   6a 6c                   push   0x6c
106 109 ---
   0:   6a 6d                   push   0x6d
106 110 ---
   0:   6a 6e                   push   0x6e
106 111 ---
   0:   6a 6f                   push   0x6f
106 112 ---
   0:   6a 70                   push   0x70
106 113 ---
   0:   6a 71                   push   0x71
106 114 ---
   0:   6a 72                   push   0x72
106 115 ---
   0:   6a 73                   push   0x73
106 116 ---
   0:   6a 74                   push   0x74
106 117 ---
   0:   6a 75                   push   0x75
106 118 ---
   0:   6a 76                   push   0x76
106 119 ---
   0:   6a 77                   push   0x77
106 120 ---
   0:   6a 78                   push   0x78
106 121 ---
   0:   6a 79                   push   0x79
106 122 ---
   0:   6a 7a                   push   0x7a
106 123 ---
   0:   6a 7b                   push   0x7b
106 124 ---
   0:   6a 7c                   push   0x7c
106 125 ---
   0:   6a 7d                   push   0x7d
106 126 ---
   0:   6a 7e                   push   0x7e
107 32 ---
   0:   6b                      .byte 0x6b
   1:   20                      .byte 0x20
107 33 ---
   0:   6b                      .byte 0x6b
   1:   21                      .byte 0x21
107 34 ---
   0:   6b                      .byte 0x6b
   1:   22                      .byte 0x22
107 35 ---
   0:   6b                      .byte 0x6b
   1:   23                      .byte 0x23
107 36 ---
   0:   6b                      .byte 0x6b
   1:   24                      .byte 0x24
107 37 ---
   0:   6b                      .byte 0x6b
   1:   25                      .byte 0x25
107 38 ---
   0:   6b                      .byte 0x6b
   1:   26                      es
107 39 ---
   0:   6b                      .byte 0x6b
   1:   27                      daa
107 40 ---
   0:   6b                      .byte 0x6b
   1:   28                      .byte 0x28
107 41 ---
   0:   6b                      .byte 0x6b
   1:   29                      .byte 0x29
107 42 ---
   0:   6b                      .byte 0x6b
   1:   2a                      .byte 0x2a
107 43 ---
   0:   6b                      .byte 0x6b
   1:   2b                      .byte 0x2b
107 44 ---
   0:   6b                      .byte 0x6b
   1:   2c                      .byte 0x2c
107 45 ---
   0:   6b                      .byte 0x6b
   1:   2d                      .byte 0x2d
107 46 ---
   0:   6b                      .byte 0x6b
   1:   2e                      cs
107 47 ---
   0:   6b                      .byte 0x6b
   1:   2f                      das
107 48 ---
   0:   6b                      .byte 0x6b
   1:   30                      .byte 0x30
107 49 ---
   0:   6b                      .byte 0x6b
   1:   31                      .byte 0x31
107 50 ---
   0:   6b                      .byte 0x6b
   1:   32                      .byte 0x32
107 51 ---
   0:   6b                      .byte 0x6b
   1:   33                      .byte 0x33
107 52 ---
   0:   6b                      .byte 0x6b
   1:   34                      .byte 0x34
107 53 ---
   0:   6b                      .byte 0x6b
   1:   35                      .byte 0x35
107 54 ---
   0:   6b                      .byte 0x6b
   1:   36                      ss
107 55 ---
   0:   6b                      .byte 0x6b
   1:   37                      aaa
107 56 ---
   0:   6b                      .byte 0x6b
   1:   38                      .byte 0x38
107 57 ---
   0:   6b                      .byte 0x6b
   1:   39                      .byte 0x39
107 58 ---
   0:   6b                      .byte 0x6b
   1:   3a                      .byte 0x3a
107 59 ---
   0:   6b                      .byte 0x6b
   1:   3b                      .byte 0x3b
107 60 ---
   0:   6b                      .byte 0x6b
   1:   3c                      .byte 0x3c
107 61 ---
   0:   6b                      .byte 0x6b
   1:   3d                      .byte 0x3d
107 62 ---
   0:   6b                      .byte 0x6b
   1:   3e                      ds
107 63 ---
   0:   6b                      .byte 0x6b
   1:   3f                      aas
107 64 ---
   0:   6b                      .byte 0x6b
   1:   40                      inc    eax
107 65 ---
   0:   6b                      .byte 0x6b
   1:   41                      inc    ecx
107 66 ---
   0:   6b                      .byte 0x6b
   1:   42                      inc    edx
107 67 ---
   0:   6b                      .byte 0x6b
   1:   43                      inc    ebx
107 68 ---
   0:   6b                      .byte 0x6b
   1:   44                      inc    esp
107 69 ---
   0:   6b                      .byte 0x6b
   1:   45                      inc    ebp
107 70 ---
   0:   6b                      .byte 0x6b
   1:   46                      inc    esi
107 71 ---
   0:   6b                      .byte 0x6b
   1:   47                      inc    edi
107 72 ---
   0:   6b                      .byte 0x6b
   1:   48                      dec    eax
107 73 ---
   0:   6b                      .byte 0x6b
   1:   49                      dec    ecx
107 74 ---
   0:   6b                      .byte 0x6b
   1:   4a                      dec    edx
107 75 ---
   0:   6b                      .byte 0x6b
   1:   4b                      dec    ebx
107 76 ---
   0:   6b                      .byte 0x6b
   1:   4c                      dec    esp
107 77 ---
   0:   6b                      .byte 0x6b
   1:   4d                      dec    ebp
107 78 ---
   0:   6b                      .byte 0x6b
   1:   4e                      dec    esi
107 79 ---
   0:   6b                      .byte 0x6b
   1:   4f                      dec    edi
107 80 ---
   0:   6b                      .byte 0x6b
   1:   50                      push   eax
107 81 ---
   0:   6b                      .byte 0x6b
   1:   51                      push   ecx
107 82 ---
   0:   6b                      .byte 0x6b
   1:   52                      push   edx
107 83 ---
   0:   6b                      .byte 0x6b
   1:   53                      push   ebx
107 84 ---
   0:   6b                      .byte 0x6b
   1:   54                      push   esp
107 85 ---
   0:   6b                      .byte 0x6b
   1:   55                      push   ebp
107 86 ---
   0:   6b                      .byte 0x6b
   1:   56                      push   esi
107 87 ---
   0:   6b                      .byte 0x6b
   1:   57                      push   edi
107 88 ---
   0:   6b                      .byte 0x6b
   1:   58                      pop    eax
107 89 ---
   0:   6b                      .byte 0x6b
   1:   59                      pop    ecx
107 90 ---
   0:   6b                      .byte 0x6b
   1:   5a                      pop    edx
107 91 ---
   0:   6b                      .byte 0x6b
   1:   5b                      pop    ebx
107 92 ---
   0:   6b                      .byte 0x6b
   1:   5c                      pop    esp
107 93 ---
   0:   6b                      .byte 0x6b
   1:   5d                      pop    ebp
107 94 ---
   0:   6b                      .byte 0x6b
   1:   5e                      pop    esi
107 95 ---
   0:   6b                      .byte 0x6b
   1:   5f                      pop    edi
107 96 ---
   0:   6b                      .byte 0x6b
   1:   60                      pusha
107 97 ---
   0:   6b                      .byte 0x6b
   1:   61                      popa
107 98 ---
   0:   6b                      .byte 0x6b
   1:   62                      .byte 0x62
107 99 ---
   0:   6b                      .byte 0x6b
   1:   63                      .byte 0x63
107 100 ---
   0:   6b                      .byte 0x6b
   1:   64                      fs
107 101 ---
   0:   6b                      .byte 0x6b
   1:   65                      gs
107 102 ---
   0:   6b                      .byte 0x6b
   1:   66                      data16
107 103 ---
   0:   6b                      .byte 0x6b
   1:   67                      addr16
107 104 ---
   0:   6b                      .byte 0x6b
   1:   68                      .byte 0x68
107 105 ---
   0:   6b                      .byte 0x6b
   1:   69                      .byte 0x69
107 106 ---
   0:   6b                      .byte 0x6b
   1:   6a                      .byte 0x6a
107 107 ---
   0:   6b                      .byte 0x6b
   1:   6b                      .byte 0x6b
107 108 ---
   0:   6b                      .byte 0x6b
   1:   6c                      ins    BYTE PTR es:[edi],dx
107 109 ---
   0:   6b                      .byte 0x6b
   1:   6d                      ins    DWORD PTR es:[edi],dx
107 110 ---
   0:   6b                      .byte 0x6b
   1:   6e                      outs   dx,BYTE PTR ds:[esi]
107 111 ---
   0:   6b                      .byte 0x6b
   1:   6f                      outs   dx,DWORD PTR ds:[esi]
107 112 ---
   0:   6b                      .byte 0x6b
   1:   70                      .byte 0x70
107 113 ---
   0:   6b                      .byte 0x6b
   1:   71                      .byte 0x71
107 114 ---
   0:   6b                      .byte 0x6b
   1:   72                      .byte 0x72
107 115 ---
   0:   6b                      .byte 0x6b
   1:   73                      .byte 0x73
107 116 ---
   0:   6b                      .byte 0x6b
   1:   74                      .byte 0x74
107 117 ---
   0:   6b                      .byte 0x6b
   1:   75                      .byte 0x75
107 118 ---
   0:   6b                      .byte 0x6b
   1:   76                      .byte 0x76
107 119 ---
   0:   6b                      .byte 0x6b
   1:   77                      .byte 0x77
107 120 ---
   0:   6b                      .byte 0x6b
   1:   78                      .byte 0x78
107 121 ---
   0:   6b                      .byte 0x6b
   1:   79                      .byte 0x79
107 122 ---
   0:   6b                      .byte 0x6b
   1:   7a                      .byte 0x7a
107 123 ---
   0:   6b                      .byte 0x6b
   1:   7b                      .byte 0x7b
107 124 ---
   0:   6b                      .byte 0x6b
   1:   7c                      .byte 0x7c
107 125 ---
   0:   6b                      .byte 0x6b
   1:   7d                      .byte 0x7d
107 126 ---
   0:   6b                      .byte 0x6b
   1:   7e                      .byte 0x7e
108 32 ---
   0:   6c                      ins    BYTE PTR es:[edi],dx
   1:   20                      .byte 0x20
108 33 ---
   0:   6c                      ins    BYTE PTR es:[edi],dx
   1:   21                      .byte 0x21
108 34 ---
   0:   6c                      ins    BYTE PTR es:[edi],dx
   1:   22                      .byte 0x22
108 35 ---
   0:   6c                      ins    BYTE PTR es:[edi],dx
   1:   23                      .byte 0x23
108 36 ---
   0:   6c                      ins    BYTE PTR es:[edi],dx
   1:   24                      .byte 0x24
108 37 ---
   0:   6c                      ins    BYTE PTR es:[edi],dx
   1:   25                      .byte 0x25
108 38 ---
   0:   6c                      ins    BYTE PTR es:[edi],dx
   1:   26                      es
108 39 ---
   0:   6c                      ins    BYTE PTR es:[edi],dx
   1:   27                      daa
108 40 ---
   0:   6c                      ins    BYTE PTR es:[edi],dx
   1:   28                      .byte 0x28
108 41 ---
   0:   6c                      ins    BYTE PTR es:[edi],dx
   1:   29                      .byte 0x29
108 42 ---
   0:   6c                      ins    BYTE PTR es:[edi],dx
   1:   2a                      .byte 0x2a
108 43 ---
   0:   6c                      ins    BYTE PTR es:[edi],dx
   1:   2b                      .byte 0x2b
108 44 ---
   0:   6c                      ins    BYTE PTR es:[edi],dx
   1:   2c                      .byte 0x2c
108 45 ---
   0:   6c                      ins    BYTE PTR es:[edi],dx
   1:   2d                      .byte 0x2d
108 46 ---
   0:   6c                      ins    BYTE PTR es:[edi],dx
   1:   2e                      cs
108 47 ---
   0:   6c                      ins    BYTE PTR es:[edi],dx
   1:   2f                      das
108 48 ---
   0:   6c                      ins    BYTE PTR es:[edi],dx
   1:   30                      .byte 0x30
108 49 ---
   0:   6c                      ins    BYTE PTR es:[edi],dx
   1:   31                      .byte 0x31
108 50 ---
   0:   6c                      ins    BYTE PTR es:[edi],dx
   1:   32                      .byte 0x32
108 51 ---
   0:   6c                      ins    BYTE PTR es:[edi],dx
   1:   33                      .byte 0x33
108 52 ---
   0:   6c                      ins    BYTE PTR es:[edi],dx
   1:   34                      .byte 0x34
108 53 ---
   0:   6c                      ins    BYTE PTR es:[edi],dx
   1:   35                      .byte 0x35
108 54 ---
   0:   6c                      ins    BYTE PTR es:[edi],dx
   1:   36                      ss
108 55 ---
   0:   6c                      ins    BYTE PTR es:[edi],dx
   1:   37                      aaa
108 56 ---
   0:   6c                      ins    BYTE PTR es:[edi],dx
   1:   38                      .byte 0x38
108 57 ---
   0:   6c                      ins    BYTE PTR es:[edi],dx
   1:   39                      .byte 0x39
108 58 ---
   0:   6c                      ins    BYTE PTR es:[edi],dx
   1:   3a                      .byte 0x3a
108 59 ---
   0:   6c                      ins    BYTE PTR es:[edi],dx
   1:   3b                      .byte 0x3b
108 60 ---
   0:   6c                      ins    BYTE PTR es:[edi],dx
   1:   3c                      .byte 0x3c
108 61 ---
   0:   6c                      ins    BYTE PTR es:[edi],dx
   1:   3d                      .byte 0x3d
108 62 ---
   0:   6c                      ins    BYTE PTR es:[edi],dx
   1:   3e                      ds
108 63 ---
   0:   6c                      ins    BYTE PTR es:[edi],dx
   1:   3f                      aas
108 64 ---
   0:   6c                      ins    BYTE PTR es:[edi],dx
   1:   40                      inc    eax
108 65 ---
   0:   6c                      ins    BYTE PTR es:[edi],dx
   1:   41                      inc    ecx
108 66 ---
   0:   6c                      ins    BYTE PTR es:[edi],dx
   1:   42                      inc    edx
108 67 ---
   0:   6c                      ins    BYTE PTR es:[edi],dx
   1:   43                      inc    ebx
108 68 ---
   0:   6c                      ins    BYTE PTR es:[edi],dx
   1:   44                      inc    esp
108 69 ---
   0:   6c                      ins    BYTE PTR es:[edi],dx
   1:   45                      inc    ebp
108 70 ---
   0:   6c                      ins    BYTE PTR es:[edi],dx
   1:   46                      inc    esi
108 71 ---
   0:   6c                      ins    BYTE PTR es:[edi],dx
   1:   47                      inc    edi
108 72 ---
   0:   6c                      ins    BYTE PTR es:[edi],dx
   1:   48                      dec    eax
108 73 ---
   0:   6c                      ins    BYTE PTR es:[edi],dx
   1:   49                      dec    ecx
108 74 ---
   0:   6c                      ins    BYTE PTR es:[edi],dx
   1:   4a                      dec    edx
108 75 ---
   0:   6c                      ins    BYTE PTR es:[edi],dx
   1:   4b                      dec    ebx
108 76 ---
   0:   6c                      ins    BYTE PTR es:[edi],dx
   1:   4c                      dec    esp
108 77 ---
   0:   6c                      ins    BYTE PTR es:[edi],dx
   1:   4d                      dec    ebp
108 78 ---
   0:   6c                      ins    BYTE PTR es:[edi],dx
   1:   4e                      dec    esi
108 79 ---
   0:   6c                      ins    BYTE PTR es:[edi],dx
   1:   4f                      dec    edi
108 80 ---
   0:   6c                      ins    BYTE PTR es:[edi],dx
   1:   50                      push   eax
108 81 ---
   0:   6c                      ins    BYTE PTR es:[edi],dx
   1:   51                      push   ecx
108 82 ---
   0:   6c                      ins    BYTE PTR es:[edi],dx
   1:   52                      push   edx
108 83 ---
   0:   6c                      ins    BYTE PTR es:[edi],dx
   1:   53                      push   ebx
108 84 ---
   0:   6c                      ins    BYTE PTR es:[edi],dx
   1:   54                      push   esp
108 85 ---
   0:   6c                      ins    BYTE PTR es:[edi],dx
   1:   55                      push   ebp
108 86 ---
   0:   6c                      ins    BYTE PTR es:[edi],dx
   1:   56                      push   esi
108 87 ---
   0:   6c                      ins    BYTE PTR es:[edi],dx
   1:   57                      push   edi
108 88 ---
   0:   6c                      ins    BYTE PTR es:[edi],dx
   1:   58                      pop    eax
108 89 ---
   0:   6c                      ins    BYTE PTR es:[edi],dx
   1:   59                      pop    ecx
108 90 ---
   0:   6c                      ins    BYTE PTR es:[edi],dx
   1:   5a                      pop    edx
108 91 ---
   0:   6c                      ins    BYTE PTR es:[edi],dx
   1:   5b                      pop    ebx
108 92 ---
   0:   6c                      ins    BYTE PTR es:[edi],dx
   1:   5c                      pop    esp
108 93 ---
   0:   6c                      ins    BYTE PTR es:[edi],dx
   1:   5d                      pop    ebp
108 94 ---
   0:   6c                      ins    BYTE PTR es:[edi],dx
   1:   5e                      pop    esi
108 95 ---
   0:   6c                      ins    BYTE PTR es:[edi],dx
   1:   5f                      pop    edi
108 96 ---
   0:   6c                      ins    BYTE PTR es:[edi],dx
   1:   60                      pusha
108 97 ---
   0:   6c                      ins    BYTE PTR es:[edi],dx
   1:   61                      popa
108 98 ---
   0:   6c                      ins    BYTE PTR es:[edi],dx
   1:   62                      .byte 0x62
108 99 ---
   0:   6c                      ins    BYTE PTR es:[edi],dx
   1:   63                      .byte 0x63
108 100 ---
   0:   6c                      ins    BYTE PTR es:[edi],dx
   1:   64                      fs
108 101 ---
   0:   6c                      ins    BYTE PTR es:[edi],dx
   1:   65                      gs
108 102 ---
   0:   6c                      ins    BYTE PTR es:[edi],dx
   1:   66                      data16
108 103 ---
   0:   6c                      ins    BYTE PTR es:[edi],dx
   1:   67                      addr16
108 104 ---
   0:   6c                      ins    BYTE PTR es:[edi],dx
   1:   68                      .byte 0x68
108 105 ---
   0:   6c                      ins    BYTE PTR es:[edi],dx
   1:   69                      .byte 0x69
108 106 ---
   0:   6c                      ins    BYTE PTR es:[edi],dx
   1:   6a                      .byte 0x6a
108 107 ---
   0:   6c                      ins    BYTE PTR es:[edi],dx
   1:   6b                      .byte 0x6b
108 108 ---
   0:   6c                      ins    BYTE PTR es:[edi],dx
   1:   6c                      ins    BYTE PTR es:[edi],dx
108 109 ---
   0:   6c                      ins    BYTE PTR es:[edi],dx
   1:   6d                      ins    DWORD PTR es:[edi],dx
108 110 ---
   0:   6c                      ins    BYTE PTR es:[edi],dx
   1:   6e                      outs   dx,BYTE PTR ds:[esi]
108 111 ---
   0:   6c                      ins    BYTE PTR es:[edi],dx
   1:   6f                      outs   dx,DWORD PTR ds:[esi]
108 112 ---
   0:   6c                      ins    BYTE PTR es:[edi],dx
   1:   70                      .byte 0x70
108 113 ---
   0:   6c                      ins    BYTE PTR es:[edi],dx
   1:   71                      .byte 0x71
108 114 ---
   0:   6c                      ins    BYTE PTR es:[edi],dx
   1:   72                      .byte 0x72
108 115 ---
   0:   6c                      ins    BYTE PTR es:[edi],dx
   1:   73                      .byte 0x73
108 116 ---
   0:   6c                      ins    BYTE PTR es:[edi],dx
   1:   74                      .byte 0x74
108 117 ---
   0:   6c                      ins    BYTE PTR es:[edi],dx
   1:   75                      .byte 0x75
108 118 ---
   0:   6c                      ins    BYTE PTR es:[edi],dx
   1:   76                      .byte 0x76
108 119 ---
   0:   6c                      ins    BYTE PTR es:[edi],dx
   1:   77                      .byte 0x77
108 120 ---
   0:   6c                      ins    BYTE PTR es:[edi],dx
   1:   78                      .byte 0x78
108 121 ---
   0:   6c                      ins    BYTE PTR es:[edi],dx
   1:   79                      .byte 0x79
108 122 ---
   0:   6c                      ins    BYTE PTR es:[edi],dx
   1:   7a                      .byte 0x7a
108 123 ---
   0:   6c                      ins    BYTE PTR es:[edi],dx
   1:   7b                      .byte 0x7b
108 124 ---
   0:   6c                      ins    BYTE PTR es:[edi],dx
   1:   7c                      .byte 0x7c
108 125 ---
   0:   6c                      ins    BYTE PTR es:[edi],dx
   1:   7d                      .byte 0x7d
108 126 ---
   0:   6c                      ins    BYTE PTR es:[edi],dx
   1:   7e                      .byte 0x7e
109 32 ---
   0:   6d                      ins    DWORD PTR es:[edi],dx
   1:   20                      .byte 0x20
109 33 ---
   0:   6d                      ins    DWORD PTR es:[edi],dx
   1:   21                      .byte 0x21
109 34 ---
   0:   6d                      ins    DWORD PTR es:[edi],dx
   1:   22                      .byte 0x22
109 35 ---
   0:   6d                      ins    DWORD PTR es:[edi],dx
   1:   23                      .byte 0x23
109 36 ---
   0:   6d                      ins    DWORD PTR es:[edi],dx
   1:   24                      .byte 0x24
109 37 ---
   0:   6d                      ins    DWORD PTR es:[edi],dx
   1:   25                      .byte 0x25
109 38 ---
   0:   6d                      ins    DWORD PTR es:[edi],dx
   1:   26                      es
109 39 ---
   0:   6d                      ins    DWORD PTR es:[edi],dx
   1:   27                      daa
109 40 ---
   0:   6d                      ins    DWORD PTR es:[edi],dx
   1:   28                      .byte 0x28
109 41 ---
   0:   6d                      ins    DWORD PTR es:[edi],dx
   1:   29                      .byte 0x29
109 42 ---
   0:   6d                      ins    DWORD PTR es:[edi],dx
   1:   2a                      .byte 0x2a
109 43 ---
   0:   6d                      ins    DWORD PTR es:[edi],dx
   1:   2b                      .byte 0x2b
109 44 ---
   0:   6d                      ins    DWORD PTR es:[edi],dx
   1:   2c                      .byte 0x2c
109 45 ---
   0:   6d                      ins    DWORD PTR es:[edi],dx
   1:   2d                      .byte 0x2d
109 46 ---
   0:   6d                      ins    DWORD PTR es:[edi],dx
   1:   2e                      cs
109 47 ---
   0:   6d                      ins    DWORD PTR es:[edi],dx
   1:   2f                      das
109 48 ---
   0:   6d                      ins    DWORD PTR es:[edi],dx
   1:   30                      .byte 0x30
109 49 ---
   0:   6d                      ins    DWORD PTR es:[edi],dx
   1:   31                      .byte 0x31
109 50 ---
   0:   6d                      ins    DWORD PTR es:[edi],dx
   1:   32                      .byte 0x32
109 51 ---
   0:   6d                      ins    DWORD PTR es:[edi],dx
   1:   33                      .byte 0x33
109 52 ---
   0:   6d                      ins    DWORD PTR es:[edi],dx
   1:   34                      .byte 0x34
109 53 ---
   0:   6d                      ins    DWORD PTR es:[edi],dx
   1:   35                      .byte 0x35
109 54 ---
   0:   6d                      ins    DWORD PTR es:[edi],dx
   1:   36                      ss
109 55 ---
   0:   6d                      ins    DWORD PTR es:[edi],dx
   1:   37                      aaa
109 56 ---
   0:   6d                      ins    DWORD PTR es:[edi],dx
   1:   38                      .byte 0x38
109 57 ---
   0:   6d                      ins    DWORD PTR es:[edi],dx
   1:   39                      .byte 0x39
109 58 ---
   0:   6d                      ins    DWORD PTR es:[edi],dx
   1:   3a                      .byte 0x3a
109 59 ---
   0:   6d                      ins    DWORD PTR es:[edi],dx
   1:   3b                      .byte 0x3b
109 60 ---
   0:   6d                      ins    DWORD PTR es:[edi],dx
   1:   3c                      .byte 0x3c
109 61 ---
   0:   6d                      ins    DWORD PTR es:[edi],dx
   1:   3d                      .byte 0x3d
109 62 ---
   0:   6d                      ins    DWORD PTR es:[edi],dx
   1:   3e                      ds
109 63 ---
   0:   6d                      ins    DWORD PTR es:[edi],dx
   1:   3f                      aas
109 64 ---
   0:   6d                      ins    DWORD PTR es:[edi],dx
   1:   40                      inc    eax
109 65 ---
   0:   6d                      ins    DWORD PTR es:[edi],dx
   1:   41                      inc    ecx
109 66 ---
   0:   6d                      ins    DWORD PTR es:[edi],dx
   1:   42                      inc    edx
109 67 ---
   0:   6d                      ins    DWORD PTR es:[edi],dx
   1:   43                      inc    ebx
109 68 ---
   0:   6d                      ins    DWORD PTR es:[edi],dx
   1:   44                      inc    esp
109 69 ---
   0:   6d                      ins    DWORD PTR es:[edi],dx
   1:   45                      inc    ebp
109 70 ---
   0:   6d                      ins    DWORD PTR es:[edi],dx
   1:   46                      inc    esi
109 71 ---
   0:   6d                      ins    DWORD PTR es:[edi],dx
   1:   47                      inc    edi
109 72 ---
   0:   6d                      ins    DWORD PTR es:[edi],dx
   1:   48                      dec    eax
109 73 ---
   0:   6d                      ins    DWORD PTR es:[edi],dx
   1:   49                      dec    ecx
109 74 ---
   0:   6d                      ins    DWORD PTR es:[edi],dx
   1:   4a                      dec    edx
109 75 ---
   0:   6d                      ins    DWORD PTR es:[edi],dx
   1:   4b                      dec    ebx
109 76 ---
   0:   6d                      ins    DWORD PTR es:[edi],dx
   1:   4c                      dec    esp
109 77 ---
   0:   6d                      ins    DWORD PTR es:[edi],dx
   1:   4d                      dec    ebp
109 78 ---
   0:   6d                      ins    DWORD PTR es:[edi],dx
   1:   4e                      dec    esi
109 79 ---
   0:   6d                      ins    DWORD PTR es:[edi],dx
   1:   4f                      dec    edi
109 80 ---
   0:   6d                      ins    DWORD PTR es:[edi],dx
   1:   50                      push   eax
109 81 ---
   0:   6d                      ins    DWORD PTR es:[edi],dx
   1:   51                      push   ecx
109 82 ---
   0:   6d                      ins    DWORD PTR es:[edi],dx
   1:   52                      push   edx
109 83 ---
   0:   6d                      ins    DWORD PTR es:[edi],dx
   1:   53                      push   ebx
109 84 ---
   0:   6d                      ins    DWORD PTR es:[edi],dx
   1:   54                      push   esp
109 85 ---
   0:   6d                      ins    DWORD PTR es:[edi],dx
   1:   55                      push   ebp
109 86 ---
   0:   6d                      ins    DWORD PTR es:[edi],dx
   1:   56                      push   esi
109 87 ---
   0:   6d                      ins    DWORD PTR es:[edi],dx
   1:   57                      push   edi
109 88 ---
   0:   6d                      ins    DWORD PTR es:[edi],dx
   1:   58                      pop    eax
109 89 ---
   0:   6d                      ins    DWORD PTR es:[edi],dx
   1:   59                      pop    ecx
109 90 ---
   0:   6d                      ins    DWORD PTR es:[edi],dx
   1:   5a                      pop    edx
109 91 ---
   0:   6d                      ins    DWORD PTR es:[edi],dx
   1:   5b                      pop    ebx
109 92 ---
   0:   6d                      ins    DWORD PTR es:[edi],dx
   1:   5c                      pop    esp
109 93 ---
   0:   6d                      ins    DWORD PTR es:[edi],dx
   1:   5d                      pop    ebp
109 94 ---
   0:   6d                      ins    DWORD PTR es:[edi],dx
   1:   5e                      pop    esi
109 95 ---
   0:   6d                      ins    DWORD PTR es:[edi],dx
   1:   5f                      pop    edi
109 96 ---
   0:   6d                      ins    DWORD PTR es:[edi],dx
   1:   60                      pusha
109 97 ---
   0:   6d                      ins    DWORD PTR es:[edi],dx
   1:   61                      popa
109 98 ---
   0:   6d                      ins    DWORD PTR es:[edi],dx
   1:   62                      .byte 0x62
109 99 ---
   0:   6d                      ins    DWORD PTR es:[edi],dx
   1:   63                      .byte 0x63
109 100 ---
   0:   6d                      ins    DWORD PTR es:[edi],dx
   1:   64                      fs
109 101 ---
   0:   6d                      ins    DWORD PTR es:[edi],dx
   1:   65                      gs
109 102 ---
   0:   6d                      ins    DWORD PTR es:[edi],dx
   1:   66                      data16
109 103 ---
   0:   6d                      ins    DWORD PTR es:[edi],dx
   1:   67                      addr16
109 104 ---
   0:   6d                      ins    DWORD PTR es:[edi],dx
   1:   68                      .byte 0x68
109 105 ---
   0:   6d                      ins    DWORD PTR es:[edi],dx
   1:   69                      .byte 0x69
109 106 ---
   0:   6d                      ins    DWORD PTR es:[edi],dx
   1:   6a                      .byte 0x6a
109 107 ---
   0:   6d                      ins    DWORD PTR es:[edi],dx
   1:   6b                      .byte 0x6b
109 108 ---
   0:   6d                      ins    DWORD PTR es:[edi],dx
   1:   6c                      ins    BYTE PTR es:[edi],dx
109 109 ---
   0:   6d                      ins    DWORD PTR es:[edi],dx
   1:   6d                      ins    DWORD PTR es:[edi],dx
109 110 ---
   0:   6d                      ins    DWORD PTR es:[edi],dx
   1:   6e                      outs   dx,BYTE PTR ds:[esi]
109 111 ---
   0:   6d                      ins    DWORD PTR es:[edi],dx
   1:   6f                      outs   dx,DWORD PTR ds:[esi]
109 112 ---
   0:   6d                      ins    DWORD PTR es:[edi],dx
   1:   70                      .byte 0x70
109 113 ---
   0:   6d                      ins    DWORD PTR es:[edi],dx
   1:   71                      .byte 0x71
109 114 ---
   0:   6d                      ins    DWORD PTR es:[edi],dx
   1:   72                      .byte 0x72
109 115 ---
   0:   6d                      ins    DWORD PTR es:[edi],dx
   1:   73                      .byte 0x73
109 116 ---
   0:   6d                      ins    DWORD PTR es:[edi],dx
   1:   74                      .byte 0x74
109 117 ---
   0:   6d                      ins    DWORD PTR es:[edi],dx
   1:   75                      .byte 0x75
109 118 ---
   0:   6d                      ins    DWORD PTR es:[edi],dx
   1:   76                      .byte 0x76
109 119 ---
   0:   6d                      ins    DWORD PTR es:[edi],dx
   1:   77                      .byte 0x77
109 120 ---
   0:   6d                      ins    DWORD PTR es:[edi],dx
   1:   78                      .byte 0x78
109 121 ---
   0:   6d                      ins    DWORD PTR es:[edi],dx
   1:   79                      .byte 0x79
109 122 ---
   0:   6d                      ins    DWORD PTR es:[edi],dx
   1:   7a                      .byte 0x7a
109 123 ---
   0:   6d                      ins    DWORD PTR es:[edi],dx
   1:   7b                      .byte 0x7b
109 124 ---
   0:   6d                      ins    DWORD PTR es:[edi],dx
   1:   7c                      .byte 0x7c
109 125 ---
   0:   6d                      ins    DWORD PTR es:[edi],dx
   1:   7d                      .byte 0x7d
109 126 ---
   0:   6d                      ins    DWORD PTR es:[edi],dx
   1:   7e                      .byte 0x7e
110 32 ---
   0:   6e                      outs   dx,BYTE PTR ds:[esi]
   1:   20                      .byte 0x20
110 33 ---
   0:   6e                      outs   dx,BYTE PTR ds:[esi]
   1:   21                      .byte 0x21
110 34 ---
   0:   6e                      outs   dx,BYTE PTR ds:[esi]
   1:   22                      .byte 0x22
110 35 ---
   0:   6e                      outs   dx,BYTE PTR ds:[esi]
   1:   23                      .byte 0x23
110 36 ---
   0:   6e                      outs   dx,BYTE PTR ds:[esi]
   1:   24                      .byte 0x24
110 37 ---
   0:   6e                      outs   dx,BYTE PTR ds:[esi]
   1:   25                      .byte 0x25
110 38 ---
   0:   6e                      outs   dx,BYTE PTR ds:[esi]
   1:   26                      es
110 39 ---
   0:   6e                      outs   dx,BYTE PTR ds:[esi]
   1:   27                      daa
110 40 ---
   0:   6e                      outs   dx,BYTE PTR ds:[esi]
   1:   28                      .byte 0x28
110 41 ---
   0:   6e                      outs   dx,BYTE PTR ds:[esi]
   1:   29                      .byte 0x29
110 42 ---
   0:   6e                      outs   dx,BYTE PTR ds:[esi]
   1:   2a                      .byte 0x2a
110 43 ---
   0:   6e                      outs   dx,BYTE PTR ds:[esi]
   1:   2b                      .byte 0x2b
110 44 ---
   0:   6e                      outs   dx,BYTE PTR ds:[esi]
   1:   2c                      .byte 0x2c
110 45 ---
   0:   6e                      outs   dx,BYTE PTR ds:[esi]
   1:   2d                      .byte 0x2d
110 46 ---
   0:   6e                      outs   dx,BYTE PTR ds:[esi]
   1:   2e                      cs
110 47 ---
   0:   6e                      outs   dx,BYTE PTR ds:[esi]
   1:   2f                      das
110 48 ---
   0:   6e                      outs   dx,BYTE PTR ds:[esi]
   1:   30                      .byte 0x30
110 49 ---
   0:   6e                      outs   dx,BYTE PTR ds:[esi]
   1:   31                      .byte 0x31
110 50 ---
   0:   6e                      outs   dx,BYTE PTR ds:[esi]
   1:   32                      .byte 0x32
110 51 ---
   0:   6e                      outs   dx,BYTE PTR ds:[esi]
   1:   33                      .byte 0x33
110 52 ---
   0:   6e                      outs   dx,BYTE PTR ds:[esi]
   1:   34                      .byte 0x34
110 53 ---
   0:   6e                      outs   dx,BYTE PTR ds:[esi]
   1:   35                      .byte 0x35
110 54 ---
   0:   6e                      outs   dx,BYTE PTR ds:[esi]
   1:   36                      ss
110 55 ---
   0:   6e                      outs   dx,BYTE PTR ds:[esi]
   1:   37                      aaa
110 56 ---
   0:   6e                      outs   dx,BYTE PTR ds:[esi]
   1:   38                      .byte 0x38
110 57 ---
   0:   6e                      outs   dx,BYTE PTR ds:[esi]
   1:   39                      .byte 0x39
110 58 ---
   0:   6e                      outs   dx,BYTE PTR ds:[esi]
   1:   3a                      .byte 0x3a
110 59 ---
   0:   6e                      outs   dx,BYTE PTR ds:[esi]
   1:   3b                      .byte 0x3b
110 60 ---
   0:   6e                      outs   dx,BYTE PTR ds:[esi]
   1:   3c                      .byte 0x3c
110 61 ---
   0:   6e                      outs   dx,BYTE PTR ds:[esi]
   1:   3d                      .byte 0x3d
110 62 ---
   0:   6e                      outs   dx,BYTE PTR ds:[esi]
   1:   3e                      ds
110 63 ---
   0:   6e                      outs   dx,BYTE PTR ds:[esi]
   1:   3f                      aas
110 64 ---
   0:   6e                      outs   dx,BYTE PTR ds:[esi]
   1:   40                      inc    eax
110 65 ---
   0:   6e                      outs   dx,BYTE PTR ds:[esi]
   1:   41                      inc    ecx
110 66 ---
   0:   6e                      outs   dx,BYTE PTR ds:[esi]
   1:   42                      inc    edx
110 67 ---
   0:   6e                      outs   dx,BYTE PTR ds:[esi]
   1:   43                      inc    ebx
110 68 ---
   0:   6e                      outs   dx,BYTE PTR ds:[esi]
   1:   44                      inc    esp
110 69 ---
   0:   6e                      outs   dx,BYTE PTR ds:[esi]
   1:   45                      inc    ebp
110 70 ---
   0:   6e                      outs   dx,BYTE PTR ds:[esi]
   1:   46                      inc    esi
110 71 ---
   0:   6e                      outs   dx,BYTE PTR ds:[esi]
   1:   47                      inc    edi
110 72 ---
   0:   6e                      outs   dx,BYTE PTR ds:[esi]
   1:   48                      dec    eax
110 73 ---
   0:   6e                      outs   dx,BYTE PTR ds:[esi]
   1:   49                      dec    ecx
110 74 ---
   0:   6e                      outs   dx,BYTE PTR ds:[esi]
   1:   4a                      dec    edx
110 75 ---
   0:   6e                      outs   dx,BYTE PTR ds:[esi]
   1:   4b                      dec    ebx
110 76 ---
   0:   6e                      outs   dx,BYTE PTR ds:[esi]
   1:   4c                      dec    esp
110 77 ---
   0:   6e                      outs   dx,BYTE PTR ds:[esi]
   1:   4d                      dec    ebp
110 78 ---
   0:   6e                      outs   dx,BYTE PTR ds:[esi]
   1:   4e                      dec    esi
110 79 ---
   0:   6e                      outs   dx,BYTE PTR ds:[esi]
   1:   4f                      dec    edi
110 80 ---
   0:   6e                      outs   dx,BYTE PTR ds:[esi]
   1:   50                      push   eax
110 81 ---
   0:   6e                      outs   dx,BYTE PTR ds:[esi]
   1:   51                      push   ecx
110 82 ---
   0:   6e                      outs   dx,BYTE PTR ds:[esi]
   1:   52                      push   edx
110 83 ---
   0:   6e                      outs   dx,BYTE PTR ds:[esi]
   1:   53                      push   ebx
110 84 ---
   0:   6e                      outs   dx,BYTE PTR ds:[esi]
   1:   54                      push   esp
110 85 ---
   0:   6e                      outs   dx,BYTE PTR ds:[esi]
   1:   55                      push   ebp
110 86 ---
   0:   6e                      outs   dx,BYTE PTR ds:[esi]
   1:   56                      push   esi
110 87 ---
   0:   6e                      outs   dx,BYTE PTR ds:[esi]
   1:   57                      push   edi
110 88 ---
   0:   6e                      outs   dx,BYTE PTR ds:[esi]
   1:   58                      pop    eax
110 89 ---
   0:   6e                      outs   dx,BYTE PTR ds:[esi]
   1:   59                      pop    ecx
110 90 ---
   0:   6e                      outs   dx,BYTE PTR ds:[esi]
   1:   5a                      pop    edx
110 91 ---
   0:   6e                      outs   dx,BYTE PTR ds:[esi]
   1:   5b                      pop    ebx
110 92 ---
   0:   6e                      outs   dx,BYTE PTR ds:[esi]
   1:   5c                      pop    esp
110 93 ---
   0:   6e                      outs   dx,BYTE PTR ds:[esi]
   1:   5d                      pop    ebp
110 94 ---
   0:   6e                      outs   dx,BYTE PTR ds:[esi]
   1:   5e                      pop    esi
110 95 ---
   0:   6e                      outs   dx,BYTE PTR ds:[esi]
   1:   5f                      pop    edi
110 96 ---
   0:   6e                      outs   dx,BYTE PTR ds:[esi]
   1:   60                      pusha
110 97 ---
   0:   6e                      outs   dx,BYTE PTR ds:[esi]
   1:   61                      popa
110 98 ---
   0:   6e                      outs   dx,BYTE PTR ds:[esi]
   1:   62                      .byte 0x62
110 99 ---
   0:   6e                      outs   dx,BYTE PTR ds:[esi]
   1:   63                      .byte 0x63
110 100 ---
   0:   6e                      outs   dx,BYTE PTR ds:[esi]
   1:   64                      fs
110 101 ---
   0:   6e                      outs   dx,BYTE PTR ds:[esi]
   1:   65                      gs
110 102 ---
   0:   6e                      outs   dx,BYTE PTR ds:[esi]
   1:   66                      data16
110 103 ---
   0:   6e                      outs   dx,BYTE PTR ds:[esi]
   1:   67                      addr16
110 104 ---
   0:   6e                      outs   dx,BYTE PTR ds:[esi]
   1:   68                      .byte 0x68
110 105 ---
   0:   6e                      outs   dx,BYTE PTR ds:[esi]
   1:   69                      .byte 0x69
110 106 ---
   0:   6e                      outs   dx,BYTE PTR ds:[esi]
   1:   6a                      .byte 0x6a
110 107 ---
   0:   6e                      outs   dx,BYTE PTR ds:[esi]
   1:   6b                      .byte 0x6b
110 108 ---
   0:   6e                      outs   dx,BYTE PTR ds:[esi]
   1:   6c                      ins    BYTE PTR es:[edi],dx
110 109 ---
   0:   6e                      outs   dx,BYTE PTR ds:[esi]
   1:   6d                      ins    DWORD PTR es:[edi],dx
110 110 ---
   0:   6e                      outs   dx,BYTE PTR ds:[esi]
   1:   6e                      outs   dx,BYTE PTR ds:[esi]
110 111 ---
   0:   6e                      outs   dx,BYTE PTR ds:[esi]
   1:   6f                      outs   dx,DWORD PTR ds:[esi]
110 112 ---
   0:   6e                      outs   dx,BYTE PTR ds:[esi]
   1:   70                      .byte 0x70
110 113 ---
   0:   6e                      outs   dx,BYTE PTR ds:[esi]
   1:   71                      .byte 0x71
110 114 ---
   0:   6e                      outs   dx,BYTE PTR ds:[esi]
   1:   72                      .byte 0x72
110 115 ---
   0:   6e                      outs   dx,BYTE PTR ds:[esi]
   1:   73                      .byte 0x73
110 116 ---
   0:   6e                      outs   dx,BYTE PTR ds:[esi]
   1:   74                      .byte 0x74
110 117 ---
   0:   6e                      outs   dx,BYTE PTR ds:[esi]
   1:   75                      .byte 0x75
110 118 ---
   0:   6e                      outs   dx,BYTE PTR ds:[esi]
   1:   76                      .byte 0x76
110 119 ---
   0:   6e                      outs   dx,BYTE PTR ds:[esi]
   1:   77                      .byte 0x77
110 120 ---
   0:   6e                      outs   dx,BYTE PTR ds:[esi]
   1:   78                      .byte 0x78
110 121 ---
   0:   6e                      outs   dx,BYTE PTR ds:[esi]
   1:   79                      .byte 0x79
110 122 ---
   0:   6e                      outs   dx,BYTE PTR ds:[esi]
   1:   7a                      .byte 0x7a
110 123 ---
   0:   6e                      outs   dx,BYTE PTR ds:[esi]
   1:   7b                      .byte 0x7b
110 124 ---
   0:   6e                      outs   dx,BYTE PTR ds:[esi]
   1:   7c                      .byte 0x7c
110 125 ---
   0:   6e                      outs   dx,BYTE PTR ds:[esi]
   1:   7d                      .byte 0x7d
110 126 ---
   0:   6e                      outs   dx,BYTE PTR ds:[esi]
   1:   7e                      .byte 0x7e
111 32 ---
   0:   6f                      outs   dx,DWORD PTR ds:[esi]
   1:   20                      .byte 0x20
111 33 ---
   0:   6f                      outs   dx,DWORD PTR ds:[esi]
   1:   21                      .byte 0x21
111 34 ---
   0:   6f                      outs   dx,DWORD PTR ds:[esi]
   1:   22                      .byte 0x22
111 35 ---
   0:   6f                      outs   dx,DWORD PTR ds:[esi]
   1:   23                      .byte 0x23
111 36 ---
   0:   6f                      outs   dx,DWORD PTR ds:[esi]
   1:   24                      .byte 0x24
111 37 ---
   0:   6f                      outs   dx,DWORD PTR ds:[esi]
   1:   25                      .byte 0x25
111 38 ---
   0:   6f                      outs   dx,DWORD PTR ds:[esi]
   1:   26                      es
111 39 ---
   0:   6f                      outs   dx,DWORD PTR ds:[esi]
   1:   27                      daa
111 40 ---
   0:   6f                      outs   dx,DWORD PTR ds:[esi]
   1:   28                      .byte 0x28
111 41 ---
   0:   6f                      outs   dx,DWORD PTR ds:[esi]
   1:   29                      .byte 0x29
111 42 ---
   0:   6f                      outs   dx,DWORD PTR ds:[esi]
   1:   2a                      .byte 0x2a
111 43 ---
   0:   6f                      outs   dx,DWORD PTR ds:[esi]
   1:   2b                      .byte 0x2b
111 44 ---
   0:   6f                      outs   dx,DWORD PTR ds:[esi]
   1:   2c                      .byte 0x2c
111 45 ---
   0:   6f                      outs   dx,DWORD PTR ds:[esi]
   1:   2d                      .byte 0x2d
111 46 ---
   0:   6f                      outs   dx,DWORD PTR ds:[esi]
   1:   2e                      cs
111 47 ---
   0:   6f                      outs   dx,DWORD PTR ds:[esi]
   1:   2f                      das
111 48 ---
   0:   6f                      outs   dx,DWORD PTR ds:[esi]
   1:   30                      .byte 0x30
111 49 ---
   0:   6f                      outs   dx,DWORD PTR ds:[esi]
   1:   31                      .byte 0x31
111 50 ---
   0:   6f                      outs   dx,DWORD PTR ds:[esi]
   1:   32                      .byte 0x32
111 51 ---
   0:   6f                      outs   dx,DWORD PTR ds:[esi]
   1:   33                      .byte 0x33
111 52 ---
   0:   6f                      outs   dx,DWORD PTR ds:[esi]
   1:   34                      .byte 0x34
111 53 ---
   0:   6f                      outs   dx,DWORD PTR ds:[esi]
   1:   35                      .byte 0x35
111 54 ---
   0:   6f                      outs   dx,DWORD PTR ds:[esi]
   1:   36                      ss
111 55 ---
   0:   6f                      outs   dx,DWORD PTR ds:[esi]
   1:   37                      aaa
111 56 ---
   0:   6f                      outs   dx,DWORD PTR ds:[esi]
   1:   38                      .byte 0x38
111 57 ---
   0:   6f                      outs   dx,DWORD PTR ds:[esi]
   1:   39                      .byte 0x39
111 58 ---
   0:   6f                      outs   dx,DWORD PTR ds:[esi]
   1:   3a                      .byte 0x3a
111 59 ---
   0:   6f                      outs   dx,DWORD PTR ds:[esi]
   1:   3b                      .byte 0x3b
111 60 ---
   0:   6f                      outs   dx,DWORD PTR ds:[esi]
   1:   3c                      .byte 0x3c
111 61 ---
   0:   6f                      outs   dx,DWORD PTR ds:[esi]
   1:   3d                      .byte 0x3d
111 62 ---
   0:   6f                      outs   dx,DWORD PTR ds:[esi]
   1:   3e                      ds
111 63 ---
   0:   6f                      outs   dx,DWORD PTR ds:[esi]
   1:   3f                      aas
111 64 ---
   0:   6f                      outs   dx,DWORD PTR ds:[esi]
   1:   40                      inc    eax
111 65 ---
   0:   6f                      outs   dx,DWORD PTR ds:[esi]
   1:   41                      inc    ecx
111 66 ---
   0:   6f                      outs   dx,DWORD PTR ds:[esi]
   1:   42                      inc    edx
111 67 ---
   0:   6f                      outs   dx,DWORD PTR ds:[esi]
   1:   43                      inc    ebx
111 68 ---
   0:   6f                      outs   dx,DWORD PTR ds:[esi]
   1:   44                      inc    esp
111 69 ---
   0:   6f                      outs   dx,DWORD PTR ds:[esi]
   1:   45                      inc    ebp
111 70 ---
   0:   6f                      outs   dx,DWORD PTR ds:[esi]
   1:   46                      inc    esi
111 71 ---
   0:   6f                      outs   dx,DWORD PTR ds:[esi]
   1:   47                      inc    edi
111 72 ---
   0:   6f                      outs   dx,DWORD PTR ds:[esi]
   1:   48                      dec    eax
111 73 ---
   0:   6f                      outs   dx,DWORD PTR ds:[esi]
   1:   49                      dec    ecx
111 74 ---
   0:   6f                      outs   dx,DWORD PTR ds:[esi]
   1:   4a                      dec    edx
111 75 ---
   0:   6f                      outs   dx,DWORD PTR ds:[esi]
   1:   4b                      dec    ebx
111 76 ---
   0:   6f                      outs   dx,DWORD PTR ds:[esi]
   1:   4c                      dec    esp
111 77 ---
   0:   6f                      outs   dx,DWORD PTR ds:[esi]
   1:   4d                      dec    ebp
111 78 ---
   0:   6f                      outs   dx,DWORD PTR ds:[esi]
   1:   4e                      dec    esi
111 79 ---
   0:   6f                      outs   dx,DWORD PTR ds:[esi]
   1:   4f                      dec    edi
111 80 ---
   0:   6f                      outs   dx,DWORD PTR ds:[esi]
   1:   50                      push   eax
111 81 ---
   0:   6f                      outs   dx,DWORD PTR ds:[esi]
   1:   51                      push   ecx
111 82 ---
   0:   6f                      outs   dx,DWORD PTR ds:[esi]
   1:   52                      push   edx
111 83 ---
   0:   6f                      outs   dx,DWORD PTR ds:[esi]
   1:   53                      push   ebx
111 84 ---
   0:   6f                      outs   dx,DWORD PTR ds:[esi]
   1:   54                      push   esp
111 85 ---
   0:   6f                      outs   dx,DWORD PTR ds:[esi]
   1:   55                      push   ebp
111 86 ---
   0:   6f                      outs   dx,DWORD PTR ds:[esi]
   1:   56                      push   esi
111 87 ---
   0:   6f                      outs   dx,DWORD PTR ds:[esi]
   1:   57                      push   edi
111 88 ---
   0:   6f                      outs   dx,DWORD PTR ds:[esi]
   1:   58                      pop    eax
111 89 ---
   0:   6f                      outs   dx,DWORD PTR ds:[esi]
   1:   59                      pop    ecx
111 90 ---
   0:   6f                      outs   dx,DWORD PTR ds:[esi]
   1:   5a                      pop    edx
111 91 ---
   0:   6f                      outs   dx,DWORD PTR ds:[esi]
   1:   5b                      pop    ebx
111 92 ---
   0:   6f                      outs   dx,DWORD PTR ds:[esi]
   1:   5c                      pop    esp
111 93 ---
   0:   6f                      outs   dx,DWORD PTR ds:[esi]
   1:   5d                      pop    ebp
111 94 ---
   0:   6f                      outs   dx,DWORD PTR ds:[esi]
   1:   5e                      pop    esi
111 95 ---
   0:   6f                      outs   dx,DWORD PTR ds:[esi]
   1:   5f                      pop    edi
111 96 ---
   0:   6f                      outs   dx,DWORD PTR ds:[esi]
   1:   60                      pusha
111 97 ---
   0:   6f                      outs   dx,DWORD PTR ds:[esi]
   1:   61                      popa
111 98 ---
   0:   6f                      outs   dx,DWORD PTR ds:[esi]
   1:   62                      .byte 0x62
111 99 ---
   0:   6f                      outs   dx,DWORD PTR ds:[esi]
   1:   63                      .byte 0x63
111 100 ---
   0:   6f                      outs   dx,DWORD PTR ds:[esi]
   1:   64                      fs
111 101 ---
   0:   6f                      outs   dx,DWORD PTR ds:[esi]
   1:   65                      gs
111 102 ---
   0:   6f                      outs   dx,DWORD PTR ds:[esi]
   1:   66                      data16
111 103 ---
   0:   6f                      outs   dx,DWORD PTR ds:[esi]
   1:   67                      addr16
111 104 ---
   0:   6f                      outs   dx,DWORD PTR ds:[esi]
   1:   68                      .byte 0x68
111 105 ---
   0:   6f                      outs   dx,DWORD PTR ds:[esi]
   1:   69                      .byte 0x69
111 106 ---
   0:   6f                      outs   dx,DWORD PTR ds:[esi]
   1:   6a                      .byte 0x6a
111 107 ---
   0:   6f                      outs   dx,DWORD PTR ds:[esi]
   1:   6b                      .byte 0x6b
111 108 ---
   0:   6f                      outs   dx,DWORD PTR ds:[esi]
   1:   6c                      ins    BYTE PTR es:[edi],dx
111 109 ---
   0:   6f                      outs   dx,DWORD PTR ds:[esi]
   1:   6d                      ins    DWORD PTR es:[edi],dx
111 110 ---
   0:   6f                      outs   dx,DWORD PTR ds:[esi]
   1:   6e                      outs   dx,BYTE PTR ds:[esi]
111 111 ---
   0:   6f                      outs   dx,DWORD PTR ds:[esi]
   1:   6f                      outs   dx,DWORD PTR ds:[esi]
111 112 ---
   0:   6f                      outs   dx,DWORD PTR ds:[esi]
   1:   70                      .byte 0x70
111 113 ---
   0:   6f                      outs   dx,DWORD PTR ds:[esi]
   1:   71                      .byte 0x71
111 114 ---
   0:   6f                      outs   dx,DWORD PTR ds:[esi]
   1:   72                      .byte 0x72
111 115 ---
   0:   6f                      outs   dx,DWORD PTR ds:[esi]
   1:   73                      .byte 0x73
111 116 ---
   0:   6f                      outs   dx,DWORD PTR ds:[esi]
   1:   74                      .byte 0x74
111 117 ---
   0:   6f                      outs   dx,DWORD PTR ds:[esi]
   1:   75                      .byte 0x75
111 118 ---
   0:   6f                      outs   dx,DWORD PTR ds:[esi]
   1:   76                      .byte 0x76
111 119 ---
   0:   6f                      outs   dx,DWORD PTR ds:[esi]
   1:   77                      .byte 0x77
111 120 ---
   0:   6f                      outs   dx,DWORD PTR ds:[esi]
   1:   78                      .byte 0x78
111 121 ---
   0:   6f                      outs   dx,DWORD PTR ds:[esi]
   1:   79                      .byte 0x79
111 122 ---
   0:   6f                      outs   dx,DWORD PTR ds:[esi]
   1:   7a                      .byte 0x7a
111 123 ---
   0:   6f                      outs   dx,DWORD PTR ds:[esi]
   1:   7b                      .byte 0x7b
111 124 ---
   0:   6f                      outs   dx,DWORD PTR ds:[esi]
   1:   7c                      .byte 0x7c
111 125 ---
   0:   6f                      outs   dx,DWORD PTR ds:[esi]
   1:   7d                      .byte 0x7d
111 126 ---
   0:   6f                      outs   dx,DWORD PTR ds:[esi]
   1:   7e                      .byte 0x7e
112 32 ---
   0:   70 20                   jo     0x22
112 33 ---
   0:   70 21                   jo     0x23
112 34 ---
   0:   70 22                   jo     0x24
112 35 ---
   0:   70 23                   jo     0x25
112 36 ---
   0:   70 24                   jo     0x26
112 37 ---
   0:   70 25                   jo     0x27
112 38 ---
   0:   70 26                   jo     0x28
112 39 ---
   0:   70 27                   jo     0x29
112 40 ---
   0:   70 28                   jo     0x2a
112 41 ---
   0:   70 29                   jo     0x2b
112 42 ---
   0:   70 2a                   jo     0x2c
112 43 ---
   0:   70 2b                   jo     0x2d
112 44 ---
   0:   70 2c                   jo     0x2e
112 45 ---
   0:   70 2d                   jo     0x2f
112 46 ---
   0:   70 2e                   jo     0x30
112 47 ---
   0:   70 2f                   jo     0x31
112 48 ---
   0:   70 30                   jo     0x32
112 49 ---
   0:   70 31                   jo     0x33
112 50 ---
   0:   70 32                   jo     0x34
112 51 ---
   0:   70 33                   jo     0x35
112 52 ---
   0:   70 34                   jo     0x36
112 53 ---
   0:   70 35                   jo     0x37
112 54 ---
   0:   70 36                   jo     0x38
112 55 ---
   0:   70 37                   jo     0x39
112 56 ---
   0:   70 38                   jo     0x3a
112 57 ---
   0:   70 39                   jo     0x3b
112 58 ---
   0:   70 3a                   jo     0x3c
112 59 ---
   0:   70 3b                   jo     0x3d
112 60 ---
   0:   70 3c                   jo     0x3e
112 61 ---
   0:   70 3d                   jo     0x3f
112 62 ---
   0:   70 3e                   jo     0x40
112 63 ---
   0:   70 3f                   jo     0x41
112 64 ---
   0:   70 40                   jo     0x42
112 65 ---
   0:   70 41                   jo     0x43
112 66 ---
   0:   70 42                   jo     0x44
112 67 ---
   0:   70 43                   jo     0x45
112 68 ---
   0:   70 44                   jo     0x46
112 69 ---
   0:   70 45                   jo     0x47
112 70 ---
   0:   70 46                   jo     0x48
112 71 ---
   0:   70 47                   jo     0x49
112 72 ---
   0:   70 48                   jo     0x4a
112 73 ---
   0:   70 49                   jo     0x4b
112 74 ---
   0:   70 4a                   jo     0x4c
112 75 ---
   0:   70 4b                   jo     0x4d
112 76 ---
   0:   70 4c                   jo     0x4e
112 77 ---
   0:   70 4d                   jo     0x4f
112 78 ---
   0:   70 4e                   jo     0x50
112 79 ---
   0:   70 4f                   jo     0x51
112 80 ---
   0:   70 50                   jo     0x52
112 81 ---
   0:   70 51                   jo     0x53
112 82 ---
   0:   70 52                   jo     0x54
112 83 ---
   0:   70 53                   jo     0x55
112 84 ---
   0:   70 54                   jo     0x56
112 85 ---
   0:   70 55                   jo     0x57
112 86 ---
   0:   70 56                   jo     0x58
112 87 ---
   0:   70 57                   jo     0x59
112 88 ---
   0:   70 58                   jo     0x5a
112 89 ---
   0:   70 59                   jo     0x5b
112 90 ---
   0:   70 5a                   jo     0x5c
112 91 ---
   0:   70 5b                   jo     0x5d
112 92 ---
   0:   70 5c                   jo     0x5e
112 93 ---
   0:   70 5d                   jo     0x5f
112 94 ---
   0:   70 5e                   jo     0x60
112 95 ---
   0:   70 5f                   jo     0x61
112 96 ---
   0:   70 60                   jo     0x62
112 97 ---
   0:   70 61                   jo     0x63
112 98 ---
   0:   70 62                   jo     0x64
112 99 ---
   0:   70 63                   jo     0x65
112 100 ---
   0:   70 64                   jo     0x66
112 101 ---
   0:   70 65                   jo     0x67
112 102 ---
   0:   70 66                   jo     0x68
112 103 ---
   0:   70 67                   jo     0x69
112 104 ---
   0:   70 68                   jo     0x6a
112 105 ---
   0:   70 69                   jo     0x6b
112 106 ---
   0:   70 6a                   jo     0x6c
112 107 ---
   0:   70 6b                   jo     0x6d
112 108 ---
   0:   70 6c                   jo     0x6e
112 109 ---
   0:   70 6d                   jo     0x6f
112 110 ---
   0:   70 6e                   jo     0x70
112 111 ---
   0:   70 6f                   jo     0x71
112 112 ---
   0:   70 70                   jo     0x72
112 113 ---
   0:   70 71                   jo     0x73
112 114 ---
   0:   70 72                   jo     0x74
112 115 ---
   0:   70 73                   jo     0x75
112 116 ---
   0:   70 74                   jo     0x76
112 117 ---
   0:   70 75                   jo     0x77
112 118 ---
   0:   70 76                   jo     0x78
112 119 ---
   0:   70 77                   jo     0x79
112 120 ---
   0:   70 78                   jo     0x7a
112 121 ---
   0:   70 79                   jo     0x7b
112 122 ---
   0:   70 7a                   jo     0x7c
112 123 ---
   0:   70 7b                   jo     0x7d
112 124 ---
   0:   70 7c                   jo     0x7e
112 125 ---
   0:   70 7d                   jo     0x7f
112 126 ---
   0:   70 7e                   jo     0x80
113 32 ---
   0:   71 20                   jno    0x22
113 33 ---
   0:   71 21                   jno    0x23
113 34 ---
   0:   71 22                   jno    0x24
113 35 ---
   0:   71 23                   jno    0x25
113 36 ---
   0:   71 24                   jno    0x26
113 37 ---
   0:   71 25                   jno    0x27
113 38 ---
   0:   71 26                   jno    0x28
113 39 ---
   0:   71 27                   jno    0x29
113 40 ---
   0:   71 28                   jno    0x2a
113 41 ---
   0:   71 29                   jno    0x2b
113 42 ---
   0:   71 2a                   jno    0x2c
113 43 ---
   0:   71 2b                   jno    0x2d
113 44 ---
   0:   71 2c                   jno    0x2e
113 45 ---
   0:   71 2d                   jno    0x2f
113 46 ---
   0:   71 2e                   jno    0x30
113 47 ---
   0:   71 2f                   jno    0x31
113 48 ---
   0:   71 30                   jno    0x32
113 49 ---
   0:   71 31                   jno    0x33
113 50 ---
   0:   71 32                   jno    0x34
113 51 ---
   0:   71 33                   jno    0x35
113 52 ---
   0:   71 34                   jno    0x36
113 53 ---
   0:   71 35                   jno    0x37
113 54 ---
   0:   71 36                   jno    0x38
113 55 ---
   0:   71 37                   jno    0x39
113 56 ---
   0:   71 38                   jno    0x3a
113 57 ---
   0:   71 39                   jno    0x3b
113 58 ---
   0:   71 3a                   jno    0x3c
113 59 ---
   0:   71 3b                   jno    0x3d
113 60 ---
   0:   71 3c                   jno    0x3e
113 61 ---
   0:   71 3d                   jno    0x3f
113 62 ---
   0:   71 3e                   jno    0x40
113 63 ---
   0:   71 3f                   jno    0x41
113 64 ---
   0:   71 40                   jno    0x42
113 65 ---
   0:   71 41                   jno    0x43
113 66 ---
   0:   71 42                   jno    0x44
113 67 ---
   0:   71 43                   jno    0x45
113 68 ---
   0:   71 44                   jno    0x46
113 69 ---
   0:   71 45                   jno    0x47
113 70 ---
   0:   71 46                   jno    0x48
113 71 ---
   0:   71 47                   jno    0x49
113 72 ---
   0:   71 48                   jno    0x4a
113 73 ---
   0:   71 49                   jno    0x4b
113 74 ---
   0:   71 4a                   jno    0x4c
113 75 ---
   0:   71 4b                   jno    0x4d
113 76 ---
   0:   71 4c                   jno    0x4e
113 77 ---
   0:   71 4d                   jno    0x4f
113 78 ---
   0:   71 4e                   jno    0x50
113 79 ---
   0:   71 4f                   jno    0x51
113 80 ---
   0:   71 50                   jno    0x52
113 81 ---
   0:   71 51                   jno    0x53
113 82 ---
   0:   71 52                   jno    0x54
113 83 ---
   0:   71 53                   jno    0x55
113 84 ---
   0:   71 54                   jno    0x56
113 85 ---
   0:   71 55                   jno    0x57
113 86 ---
   0:   71 56                   jno    0x58
113 87 ---
   0:   71 57                   jno    0x59
113 88 ---
   0:   71 58                   jno    0x5a
113 89 ---
   0:   71 59                   jno    0x5b
113 90 ---
   0:   71 5a                   jno    0x5c
113 91 ---
   0:   71 5b                   jno    0x5d
113 92 ---
   0:   71 5c                   jno    0x5e
113 93 ---
   0:   71 5d                   jno    0x5f
113 94 ---
   0:   71 5e                   jno    0x60
113 95 ---
   0:   71 5f                   jno    0x61
113 96 ---
   0:   71 60                   jno    0x62
113 97 ---
   0:   71 61                   jno    0x63
113 98 ---
   0:   71 62                   jno    0x64
113 99 ---
   0:   71 63                   jno    0x65
113 100 ---
   0:   71 64                   jno    0x66
113 101 ---
   0:   71 65                   jno    0x67
113 102 ---
   0:   71 66                   jno    0x68
113 103 ---
   0:   71 67                   jno    0x69
113 104 ---
   0:   71 68                   jno    0x6a
113 105 ---
   0:   71 69                   jno    0x6b
113 106 ---
   0:   71 6a                   jno    0x6c
113 107 ---
   0:   71 6b                   jno    0x6d
113 108 ---
   0:   71 6c                   jno    0x6e
113 109 ---
   0:   71 6d                   jno    0x6f
113 110 ---
   0:   71 6e                   jno    0x70
113 111 ---
   0:   71 6f                   jno    0x71
113 112 ---
   0:   71 70                   jno    0x72
113 113 ---
   0:   71 71                   jno    0x73
113 114 ---
   0:   71 72                   jno    0x74
113 115 ---
   0:   71 73                   jno    0x75
113 116 ---
   0:   71 74                   jno    0x76
113 117 ---
   0:   71 75                   jno    0x77
113 118 ---
   0:   71 76                   jno    0x78
113 119 ---
   0:   71 77                   jno    0x79
113 120 ---
   0:   71 78                   jno    0x7a
113 121 ---
   0:   71 79                   jno    0x7b
113 122 ---
   0:   71 7a                   jno    0x7c
113 123 ---
   0:   71 7b                   jno    0x7d
113 124 ---
   0:   71 7c                   jno    0x7e
113 125 ---
   0:   71 7d                   jno    0x7f
113 126 ---
   0:   71 7e                   jno    0x80
114 32 ---
   0:   72 20                   jb     0x22
114 33 ---
   0:   72 21                   jb     0x23
114 34 ---
   0:   72 22                   jb     0x24
114 35 ---
   0:   72 23                   jb     0x25
114 36 ---
   0:   72 24                   jb     0x26
114 37 ---
   0:   72 25                   jb     0x27
114 38 ---
   0:   72 26                   jb     0x28
114 39 ---
   0:   72 27                   jb     0x29
114 40 ---
   0:   72 28                   jb     0x2a
114 41 ---
   0:   72 29                   jb     0x2b
114 42 ---
   0:   72 2a                   jb     0x2c
114 43 ---
   0:   72 2b                   jb     0x2d
114 44 ---
   0:   72 2c                   jb     0x2e
114 45 ---
   0:   72 2d                   jb     0x2f
114 46 ---
   0:   72 2e                   jb     0x30
114 47 ---
   0:   72 2f                   jb     0x31
114 48 ---
   0:   72 30                   jb     0x32
114 49 ---
   0:   72 31                   jb     0x33
114 50 ---
   0:   72 32                   jb     0x34
114 51 ---
   0:   72 33                   jb     0x35
114 52 ---
   0:   72 34                   jb     0x36
114 53 ---
   0:   72 35                   jb     0x37
114 54 ---
   0:   72 36                   jb     0x38
114 55 ---
   0:   72 37                   jb     0x39
114 56 ---
   0:   72 38                   jb     0x3a
114 57 ---
   0:   72 39                   jb     0x3b
114 58 ---
   0:   72 3a                   jb     0x3c
114 59 ---
   0:   72 3b                   jb     0x3d
114 60 ---
   0:   72 3c                   jb     0x3e
114 61 ---
   0:   72 3d                   jb     0x3f
114 62 ---
   0:   72 3e                   jb     0x40
114 63 ---
   0:   72 3f                   jb     0x41
114 64 ---
   0:   72 40                   jb     0x42
114 65 ---
   0:   72 41                   jb     0x43
114 66 ---
   0:   72 42                   jb     0x44
114 67 ---
   0:   72 43                   jb     0x45
114 68 ---
   0:   72 44                   jb     0x46
114 69 ---
   0:   72 45                   jb     0x47
114 70 ---
   0:   72 46                   jb     0x48
114 71 ---
   0:   72 47                   jb     0x49
114 72 ---
   0:   72 48                   jb     0x4a
114 73 ---
   0:   72 49                   jb     0x4b
114 74 ---
   0:   72 4a                   jb     0x4c
114 75 ---
   0:   72 4b                   jb     0x4d
114 76 ---
   0:   72 4c                   jb     0x4e
114 77 ---
   0:   72 4d                   jb     0x4f
114 78 ---
   0:   72 4e                   jb     0x50
114 79 ---
   0:   72 4f                   jb     0x51
114 80 ---
   0:   72 50                   jb     0x52
114 81 ---
   0:   72 51                   jb     0x53
114 82 ---
   0:   72 52                   jb     0x54
114 83 ---
   0:   72 53                   jb     0x55
114 84 ---
   0:   72 54                   jb     0x56
114 85 ---
   0:   72 55                   jb     0x57
114 86 ---
   0:   72 56                   jb     0x58
114 87 ---
   0:   72 57                   jb     0x59
114 88 ---
   0:   72 58                   jb     0x5a
114 89 ---
   0:   72 59                   jb     0x5b
114 90 ---
   0:   72 5a                   jb     0x5c
114 91 ---
   0:   72 5b                   jb     0x5d
114 92 ---
   0:   72 5c                   jb     0x5e
114 93 ---
   0:   72 5d                   jb     0x5f
114 94 ---
   0:   72 5e                   jb     0x60
114 95 ---
   0:   72 5f                   jb     0x61
114 96 ---
   0:   72 60                   jb     0x62
114 97 ---
   0:   72 61                   jb     0x63
114 98 ---
   0:   72 62                   jb     0x64
114 99 ---
   0:   72 63                   jb     0x65
114 100 ---
   0:   72 64                   jb     0x66
114 101 ---
   0:   72 65                   jb     0x67
114 102 ---
   0:   72 66                   jb     0x68
114 103 ---
   0:   72 67                   jb     0x69
114 104 ---
   0:   72 68                   jb     0x6a
114 105 ---
   0:   72 69                   jb     0x6b
114 106 ---
   0:   72 6a                   jb     0x6c
114 107 ---
   0:   72 6b                   jb     0x6d
114 108 ---
   0:   72 6c                   jb     0x6e
114 109 ---
   0:   72 6d                   jb     0x6f
114 110 ---
   0:   72 6e                   jb     0x70
114 111 ---
   0:   72 6f                   jb     0x71
114 112 ---
   0:   72 70                   jb     0x72
114 113 ---
   0:   72 71                   jb     0x73
114 114 ---
   0:   72 72                   jb     0x74
114 115 ---
   0:   72 73                   jb     0x75
114 116 ---
   0:   72 74                   jb     0x76
114 117 ---
   0:   72 75                   jb     0x77
114 118 ---
   0:   72 76                   jb     0x78
114 119 ---
   0:   72 77                   jb     0x79
114 120 ---
   0:   72 78                   jb     0x7a
114 121 ---
   0:   72 79                   jb     0x7b
114 122 ---
   0:   72 7a                   jb     0x7c
114 123 ---
   0:   72 7b                   jb     0x7d
114 124 ---
   0:   72 7c                   jb     0x7e
114 125 ---
   0:   72 7d                   jb     0x7f
114 126 ---
   0:   72 7e                   jb     0x80
115 32 ---
   0:   73 20                   jae    0x22
115 33 ---
   0:   73 21                   jae    0x23
115 34 ---
   0:   73 22                   jae    0x24
115 35 ---
   0:   73 23                   jae    0x25
115 36 ---
   0:   73 24                   jae    0x26
115 37 ---
   0:   73 25                   jae    0x27
115 38 ---
   0:   73 26                   jae    0x28
115 39 ---
   0:   73 27                   jae    0x29
115 40 ---
   0:   73 28                   jae    0x2a
115 41 ---
   0:   73 29                   jae    0x2b
115 42 ---
   0:   73 2a                   jae    0x2c
115 43 ---
   0:   73 2b                   jae    0x2d
115 44 ---
   0:   73 2c                   jae    0x2e
115 45 ---
   0:   73 2d                   jae    0x2f
115 46 ---
   0:   73 2e                   jae    0x30
115 47 ---
   0:   73 2f                   jae    0x31
115 48 ---
   0:   73 30                   jae    0x32
115 49 ---
   0:   73 31                   jae    0x33
115 50 ---
   0:   73 32                   jae    0x34
115 51 ---
   0:   73 33                   jae    0x35
115 52 ---
   0:   73 34                   jae    0x36
115 53 ---
   0:   73 35                   jae    0x37
115 54 ---
   0:   73 36                   jae    0x38
115 55 ---
   0:   73 37                   jae    0x39
115 56 ---
   0:   73 38                   jae    0x3a
115 57 ---
   0:   73 39                   jae    0x3b
115 58 ---
   0:   73 3a                   jae    0x3c
115 59 ---
   0:   73 3b                   jae    0x3d
115 60 ---
   0:   73 3c                   jae    0x3e
115 61 ---
   0:   73 3d                   jae    0x3f
115 62 ---
   0:   73 3e                   jae    0x40
115 63 ---
   0:   73 3f                   jae    0x41
115 64 ---
   0:   73 40                   jae    0x42
115 65 ---
   0:   73 41                   jae    0x43
115 66 ---
   0:   73 42                   jae    0x44
115 67 ---
   0:   73 43                   jae    0x45
115 68 ---
   0:   73 44                   jae    0x46
115 69 ---
   0:   73 45                   jae    0x47
115 70 ---
   0:   73 46                   jae    0x48
115 71 ---
   0:   73 47                   jae    0x49
115 72 ---
   0:   73 48                   jae    0x4a
115 73 ---
   0:   73 49                   jae    0x4b
115 74 ---
   0:   73 4a                   jae    0x4c
115 75 ---
   0:   73 4b                   jae    0x4d
115 76 ---
   0:   73 4c                   jae    0x4e
115 77 ---
   0:   73 4d                   jae    0x4f
115 78 ---
   0:   73 4e                   jae    0x50
115 79 ---
   0:   73 4f                   jae    0x51
115 80 ---
   0:   73 50                   jae    0x52
115 81 ---
   0:   73 51                   jae    0x53
115 82 ---
   0:   73 52                   jae    0x54
115 83 ---
   0:   73 53                   jae    0x55
115 84 ---
   0:   73 54                   jae    0x56
115 85 ---
   0:   73 55                   jae    0x57
115 86 ---
   0:   73 56                   jae    0x58
115 87 ---
   0:   73 57                   jae    0x59
115 88 ---
   0:   73 58                   jae    0x5a
115 89 ---
   0:   73 59                   jae    0x5b
115 90 ---
   0:   73 5a                   jae    0x5c
115 91 ---
   0:   73 5b                   jae    0x5d
115 92 ---
   0:   73 5c                   jae    0x5e
115 93 ---
   0:   73 5d                   jae    0x5f
115 94 ---
   0:   73 5e                   jae    0x60
115 95 ---
   0:   73 5f                   jae    0x61
115 96 ---
   0:   73 60                   jae    0x62
115 97 ---
   0:   73 61                   jae    0x63
115 98 ---
   0:   73 62                   jae    0x64
115 99 ---
   0:   73 63                   jae    0x65
115 100 ---
   0:   73 64                   jae    0x66
115 101 ---
   0:   73 65                   jae    0x67
115 102 ---
   0:   73 66                   jae    0x68
115 103 ---
   0:   73 67                   jae    0x69
115 104 ---
   0:   73 68                   jae    0x6a
115 105 ---
   0:   73 69                   jae    0x6b
115 106 ---
   0:   73 6a                   jae    0x6c
115 107 ---
   0:   73 6b                   jae    0x6d
115 108 ---
   0:   73 6c                   jae    0x6e
115 109 ---
   0:   73 6d                   jae    0x6f
115 110 ---
   0:   73 6e                   jae    0x70
115 111 ---
   0:   73 6f                   jae    0x71
115 112 ---
   0:   73 70                   jae    0x72
115 113 ---
   0:   73 71                   jae    0x73
115 114 ---
   0:   73 72                   jae    0x74
115 115 ---
   0:   73 73                   jae    0x75
115 116 ---
   0:   73 74                   jae    0x76
115 117 ---
   0:   73 75                   jae    0x77
115 118 ---
   0:   73 76                   jae    0x78
115 119 ---
   0:   73 77                   jae    0x79
115 120 ---
   0:   73 78                   jae    0x7a
115 121 ---
   0:   73 79                   jae    0x7b
115 122 ---
   0:   73 7a                   jae    0x7c
115 123 ---
   0:   73 7b                   jae    0x7d
115 124 ---
   0:   73 7c                   jae    0x7e
115 125 ---
   0:   73 7d                   jae    0x7f
115 126 ---
   0:   73 7e                   jae    0x80
116 32 ---
   0:   74 20                   je     0x22
116 33 ---
   0:   74 21                   je     0x23
116 34 ---
   0:   74 22                   je     0x24
116 35 ---
   0:   74 23                   je     0x25
116 36 ---
   0:   74 24                   je     0x26
116 37 ---
   0:   74 25                   je     0x27
116 38 ---
   0:   74 26                   je     0x28
116 39 ---
   0:   74 27                   je     0x29
116 40 ---
   0:   74 28                   je     0x2a
116 41 ---
   0:   74 29                   je     0x2b
116 42 ---
   0:   74 2a                   je     0x2c
116 43 ---
   0:   74 2b                   je     0x2d
116 44 ---
   0:   74 2c                   je     0x2e
116 45 ---
   0:   74 2d                   je     0x2f
116 46 ---
   0:   74 2e                   je     0x30
116 47 ---
   0:   74 2f                   je     0x31
116 48 ---
   0:   74 30                   je     0x32
116 49 ---
   0:   74 31                   je     0x33
116 50 ---
   0:   74 32                   je     0x34
116 51 ---
   0:   74 33                   je     0x35
116 52 ---
   0:   74 34                   je     0x36
116 53 ---
   0:   74 35                   je     0x37
116 54 ---
   0:   74 36                   je     0x38
116 55 ---
   0:   74 37                   je     0x39
116 56 ---
   0:   74 38                   je     0x3a
116 57 ---
   0:   74 39                   je     0x3b
116 58 ---
   0:   74 3a                   je     0x3c
116 59 ---
   0:   74 3b                   je     0x3d
116 60 ---
   0:   74 3c                   je     0x3e
116 61 ---
   0:   74 3d                   je     0x3f
116 62 ---
   0:   74 3e                   je     0x40
116 63 ---
   0:   74 3f                   je     0x41
116 64 ---
   0:   74 40                   je     0x42
116 65 ---
   0:   74 41                   je     0x43
116 66 ---
   0:   74 42                   je     0x44
116 67 ---
   0:   74 43                   je     0x45
116 68 ---
   0:   74 44                   je     0x46
116 69 ---
   0:   74 45                   je     0x47
116 70 ---
   0:   74 46                   je     0x48
116 71 ---
   0:   74 47                   je     0x49
116 72 ---
   0:   74 48                   je     0x4a
116 73 ---
   0:   74 49                   je     0x4b
116 74 ---
   0:   74 4a                   je     0x4c
116 75 ---
   0:   74 4b                   je     0x4d
116 76 ---
   0:   74 4c                   je     0x4e
116 77 ---
   0:   74 4d                   je     0x4f
116 78 ---
   0:   74 4e                   je     0x50
116 79 ---
   0:   74 4f                   je     0x51
116 80 ---
   0:   74 50                   je     0x52
116 81 ---
   0:   74 51                   je     0x53
116 82 ---
   0:   74 52                   je     0x54
116 83 ---
   0:   74 53                   je     0x55
116 84 ---
   0:   74 54                   je     0x56
116 85 ---
   0:   74 55                   je     0x57
116 86 ---
   0:   74 56                   je     0x58
116 87 ---
   0:   74 57                   je     0x59
116 88 ---
   0:   74 58                   je     0x5a
116 89 ---
   0:   74 59                   je     0x5b
116 90 ---
   0:   74 5a                   je     0x5c
116 91 ---
   0:   74 5b                   je     0x5d
116 92 ---
   0:   74 5c                   je     0x5e
116 93 ---
   0:   74 5d                   je     0x5f
116 94 ---
   0:   74 5e                   je     0x60
116 95 ---
   0:   74 5f                   je     0x61
116 96 ---
   0:   74 60                   je     0x62
116 97 ---
   0:   74 61                   je     0x63
116 98 ---
   0:   74 62                   je     0x64
116 99 ---
   0:   74 63                   je     0x65
116 100 ---
   0:   74 64                   je     0x66
116 101 ---
   0:   74 65                   je     0x67
116 102 ---
   0:   74 66                   je     0x68
116 103 ---
   0:   74 67                   je     0x69
116 104 ---
   0:   74 68                   je     0x6a
116 105 ---
   0:   74 69                   je     0x6b
116 106 ---
   0:   74 6a                   je     0x6c
116 107 ---
   0:   74 6b                   je     0x6d
116 108 ---
   0:   74 6c                   je     0x6e
116 109 ---
   0:   74 6d                   je     0x6f
116 110 ---
   0:   74 6e                   je     0x70
116 111 ---
   0:   74 6f                   je     0x71
116 112 ---
   0:   74 70                   je     0x72
116 113 ---
   0:   74 71                   je     0x73
116 114 ---
   0:   74 72                   je     0x74
116 115 ---
   0:   74 73                   je     0x75
116 116 ---
   0:   74 74                   je     0x76
116 117 ---
   0:   74 75                   je     0x77
116 118 ---
   0:   74 76                   je     0x78
116 119 ---
   0:   74 77                   je     0x79
116 120 ---
   0:   74 78                   je     0x7a
116 121 ---
   0:   74 79                   je     0x7b
116 122 ---
   0:   74 7a                   je     0x7c
116 123 ---
   0:   74 7b                   je     0x7d
116 124 ---
   0:   74 7c                   je     0x7e
116 125 ---
   0:   74 7d                   je     0x7f
116 126 ---
   0:   74 7e                   je     0x80
117 32 ---
   0:   75 20                   jne    0x22
117 33 ---
   0:   75 21                   jne    0x23
117 34 ---
   0:   75 22                   jne    0x24
117 35 ---
   0:   75 23                   jne    0x25
117 36 ---
   0:   75 24                   jne    0x26
117 37 ---
   0:   75 25                   jne    0x27
117 38 ---
   0:   75 26                   jne    0x28
117 39 ---
   0:   75 27                   jne    0x29
117 40 ---
   0:   75 28                   jne    0x2a
117 41 ---
   0:   75 29                   jne    0x2b
117 42 ---
   0:   75 2a                   jne    0x2c
117 43 ---
   0:   75 2b                   jne    0x2d
117 44 ---
   0:   75 2c                   jne    0x2e
117 45 ---
   0:   75 2d                   jne    0x2f
117 46 ---
   0:   75 2e                   jne    0x30
117 47 ---
   0:   75 2f                   jne    0x31
117 48 ---
   0:   75 30                   jne    0x32
117 49 ---
   0:   75 31                   jne    0x33
117 50 ---
   0:   75 32                   jne    0x34
117 51 ---
   0:   75 33                   jne    0x35
117 52 ---
   0:   75 34                   jne    0x36
117 53 ---
   0:   75 35                   jne    0x37
117 54 ---
   0:   75 36                   jne    0x38
117 55 ---
   0:   75 37                   jne    0x39
117 56 ---
   0:   75 38                   jne    0x3a
117 57 ---
   0:   75 39                   jne    0x3b
117 58 ---
   0:   75 3a                   jne    0x3c
117 59 ---
   0:   75 3b                   jne    0x3d
117 60 ---
   0:   75 3c                   jne    0x3e
117 61 ---
   0:   75 3d                   jne    0x3f
117 62 ---
   0:   75 3e                   jne    0x40
117 63 ---
   0:   75 3f                   jne    0x41
117 64 ---
   0:   75 40                   jne    0x42
117 65 ---
   0:   75 41                   jne    0x43
117 66 ---
   0:   75 42                   jne    0x44
117 67 ---
   0:   75 43                   jne    0x45
117 68 ---
   0:   75 44                   jne    0x46
117 69 ---
   0:   75 45                   jne    0x47
117 70 ---
   0:   75 46                   jne    0x48
117 71 ---
   0:   75 47                   jne    0x49
117 72 ---
   0:   75 48                   jne    0x4a
117 73 ---
   0:   75 49                   jne    0x4b
117 74 ---
   0:   75 4a                   jne    0x4c
117 75 ---
   0:   75 4b                   jne    0x4d
117 76 ---
   0:   75 4c                   jne    0x4e
117 77 ---
   0:   75 4d                   jne    0x4f
117 78 ---
   0:   75 4e                   jne    0x50
117 79 ---
   0:   75 4f                   jne    0x51
117 80 ---
   0:   75 50                   jne    0x52
117 81 ---
   0:   75 51                   jne    0x53
117 82 ---
   0:   75 52                   jne    0x54
117 83 ---
   0:   75 53                   jne    0x55
117 84 ---
   0:   75 54                   jne    0x56
117 85 ---
   0:   75 55                   jne    0x57
117 86 ---
   0:   75 56                   jne    0x58
117 87 ---
   0:   75 57                   jne    0x59
117 88 ---
   0:   75 58                   jne    0x5a
117 89 ---
   0:   75 59                   jne    0x5b
117 90 ---
   0:   75 5a                   jne    0x5c
117 91 ---
   0:   75 5b                   jne    0x5d
117 92 ---
   0:   75 5c                   jne    0x5e
117 93 ---
   0:   75 5d                   jne    0x5f
117 94 ---
   0:   75 5e                   jne    0x60
117 95 ---
   0:   75 5f                   jne    0x61
117 96 ---
   0:   75 60                   jne    0x62
117 97 ---
   0:   75 61                   jne    0x63
117 98 ---
   0:   75 62                   jne    0x64
117 99 ---
   0:   75 63                   jne    0x65
117 100 ---
   0:   75 64                   jne    0x66
117 101 ---
   0:   75 65                   jne    0x67
117 102 ---
   0:   75 66                   jne    0x68
117 103 ---
   0:   75 67                   jne    0x69
117 104 ---
   0:   75 68                   jne    0x6a
117 105 ---
   0:   75 69                   jne    0x6b
117 106 ---
   0:   75 6a                   jne    0x6c
117 107 ---
   0:   75 6b                   jne    0x6d
117 108 ---
   0:   75 6c                   jne    0x6e
117 109 ---
   0:   75 6d                   jne    0x6f
117 110 ---
   0:   75 6e                   jne    0x70
117 111 ---
   0:   75 6f                   jne    0x71
117 112 ---
   0:   75 70                   jne    0x72
117 113 ---
   0:   75 71                   jne    0x73
117 114 ---
   0:   75 72                   jne    0x74
117 115 ---
   0:   75 73                   jne    0x75
117 116 ---
   0:   75 74                   jne    0x76
117 117 ---
   0:   75 75                   jne    0x77
117 118 ---
   0:   75 76                   jne    0x78
117 119 ---
   0:   75 77                   jne    0x79
117 120 ---
   0:   75 78                   jne    0x7a
117 121 ---
   0:   75 79                   jne    0x7b
117 122 ---
   0:   75 7a                   jne    0x7c
117 123 ---
   0:   75 7b                   jne    0x7d
117 124 ---
   0:   75 7c                   jne    0x7e
117 125 ---
   0:   75 7d                   jne    0x7f
117 126 ---
   0:   75 7e                   jne    0x80
118 32 ---
   0:   76 20                   jbe    0x22
118 33 ---
   0:   76 21                   jbe    0x23
118 34 ---
   0:   76 22                   jbe    0x24
118 35 ---
   0:   76 23                   jbe    0x25
118 36 ---
   0:   76 24                   jbe    0x26
118 37 ---
   0:   76 25                   jbe    0x27
118 38 ---
   0:   76 26                   jbe    0x28
118 39 ---
   0:   76 27                   jbe    0x29
118 40 ---
   0:   76 28                   jbe    0x2a
118 41 ---
   0:   76 29                   jbe    0x2b
118 42 ---
   0:   76 2a                   jbe    0x2c
118 43 ---
   0:   76 2b                   jbe    0x2d
118 44 ---
   0:   76 2c                   jbe    0x2e
118 45 ---
   0:   76 2d                   jbe    0x2f
118 46 ---
   0:   76 2e                   jbe    0x30
118 47 ---
   0:   76 2f                   jbe    0x31
118 48 ---
   0:   76 30                   jbe    0x32
118 49 ---
   0:   76 31                   jbe    0x33
118 50 ---
   0:   76 32                   jbe    0x34
118 51 ---
   0:   76 33                   jbe    0x35
118 52 ---
   0:   76 34                   jbe    0x36
118 53 ---
   0:   76 35                   jbe    0x37
118 54 ---
   0:   76 36                   jbe    0x38
118 55 ---
   0:   76 37                   jbe    0x39
118 56 ---
   0:   76 38                   jbe    0x3a
118 57 ---
   0:   76 39                   jbe    0x3b
118 58 ---
   0:   76 3a                   jbe    0x3c
118 59 ---
   0:   76 3b                   jbe    0x3d
118 60 ---
   0:   76 3c                   jbe    0x3e
118 61 ---
   0:   76 3d                   jbe    0x3f
118 62 ---
   0:   76 3e                   jbe    0x40
118 63 ---
   0:   76 3f                   jbe    0x41
118 64 ---
   0:   76 40                   jbe    0x42
118 65 ---
   0:   76 41                   jbe    0x43
118 66 ---
   0:   76 42                   jbe    0x44
118 67 ---
   0:   76 43                   jbe    0x45
118 68 ---
   0:   76 44                   jbe    0x46
118 69 ---
   0:   76 45                   jbe    0x47
118 70 ---
   0:   76 46                   jbe    0x48
118 71 ---
   0:   76 47                   jbe    0x49
118 72 ---
   0:   76 48                   jbe    0x4a
118 73 ---
   0:   76 49                   jbe    0x4b
118 74 ---
   0:   76 4a                   jbe    0x4c
118 75 ---
   0:   76 4b                   jbe    0x4d
118 76 ---
   0:   76 4c                   jbe    0x4e
118 77 ---
   0:   76 4d                   jbe    0x4f
118 78 ---
   0:   76 4e                   jbe    0x50
118 79 ---
   0:   76 4f                   jbe    0x51
118 80 ---
   0:   76 50                   jbe    0x52
118 81 ---
   0:   76 51                   jbe    0x53
118 82 ---
   0:   76 52                   jbe    0x54
118 83 ---
   0:   76 53                   jbe    0x55
118 84 ---
   0:   76 54                   jbe    0x56
118 85 ---
   0:   76 55                   jbe    0x57
118 86 ---
   0:   76 56                   jbe    0x58
118 87 ---
   0:   76 57                   jbe    0x59
118 88 ---
   0:   76 58                   jbe    0x5a
118 89 ---
   0:   76 59                   jbe    0x5b
118 90 ---
   0:   76 5a                   jbe    0x5c
118 91 ---
   0:   76 5b                   jbe    0x5d
118 92 ---
   0:   76 5c                   jbe    0x5e
118 93 ---
   0:   76 5d                   jbe    0x5f
118 94 ---
   0:   76 5e                   jbe    0x60
118 95 ---
   0:   76 5f                   jbe    0x61
118 96 ---
   0:   76 60                   jbe    0x62
118 97 ---
   0:   76 61                   jbe    0x63
118 98 ---
   0:   76 62                   jbe    0x64
118 99 ---
   0:   76 63                   jbe    0x65
118 100 ---
   0:   76 64                   jbe    0x66
118 101 ---
   0:   76 65                   jbe    0x67
118 102 ---
   0:   76 66                   jbe    0x68
118 103 ---
   0:   76 67                   jbe    0x69
118 104 ---
   0:   76 68                   jbe    0x6a
118 105 ---
   0:   76 69                   jbe    0x6b
118 106 ---
   0:   76 6a                   jbe    0x6c
118 107 ---
   0:   76 6b                   jbe    0x6d
118 108 ---
   0:   76 6c                   jbe    0x6e
118 109 ---
   0:   76 6d                   jbe    0x6f
118 110 ---
   0:   76 6e                   jbe    0x70
118 111 ---
   0:   76 6f                   jbe    0x71
118 112 ---
   0:   76 70                   jbe    0x72
118 113 ---
   0:   76 71                   jbe    0x73
118 114 ---
   0:   76 72                   jbe    0x74
118 115 ---
   0:   76 73                   jbe    0x75
118 116 ---
   0:   76 74                   jbe    0x76
118 117 ---
   0:   76 75                   jbe    0x77
118 118 ---
   0:   76 76                   jbe    0x78
118 119 ---
   0:   76 77                   jbe    0x79
118 120 ---
   0:   76 78                   jbe    0x7a
118 121 ---
   0:   76 79                   jbe    0x7b
118 122 ---
   0:   76 7a                   jbe    0x7c
118 123 ---
   0:   76 7b                   jbe    0x7d
118 124 ---
   0:   76 7c                   jbe    0x7e
118 125 ---
   0:   76 7d                   jbe    0x7f
118 126 ---
   0:   76 7e                   jbe    0x80
119 32 ---
   0:   77 20                   ja     0x22
119 33 ---
   0:   77 21                   ja     0x23
119 34 ---
   0:   77 22                   ja     0x24
119 35 ---
   0:   77 23                   ja     0x25
119 36 ---
   0:   77 24                   ja     0x26
119 37 ---
   0:   77 25                   ja     0x27
119 38 ---
   0:   77 26                   ja     0x28
119 39 ---
   0:   77 27                   ja     0x29
119 40 ---
   0:   77 28                   ja     0x2a
119 41 ---
   0:   77 29                   ja     0x2b
119 42 ---
   0:   77 2a                   ja     0x2c
119 43 ---
   0:   77 2b                   ja     0x2d
119 44 ---
   0:   77 2c                   ja     0x2e
119 45 ---
   0:   77 2d                   ja     0x2f
119 46 ---
   0:   77 2e                   ja     0x30
119 47 ---
   0:   77 2f                   ja     0x31
119 48 ---
   0:   77 30                   ja     0x32
119 49 ---
   0:   77 31                   ja     0x33
119 50 ---
   0:   77 32                   ja     0x34
119 51 ---
   0:   77 33                   ja     0x35
119 52 ---
   0:   77 34                   ja     0x36
119 53 ---
   0:   77 35                   ja     0x37
119 54 ---
   0:   77 36                   ja     0x38
119 55 ---
   0:   77 37                   ja     0x39
119 56 ---
   0:   77 38                   ja     0x3a
119 57 ---
   0:   77 39                   ja     0x3b
119 58 ---
   0:   77 3a                   ja     0x3c
119 59 ---
   0:   77 3b                   ja     0x3d
119 60 ---
   0:   77 3c                   ja     0x3e
119 61 ---
   0:   77 3d                   ja     0x3f
119 62 ---
   0:   77 3e                   ja     0x40
119 63 ---
   0:   77 3f                   ja     0x41
119 64 ---
   0:   77 40                   ja     0x42
119 65 ---
   0:   77 41                   ja     0x43
119 66 ---
   0:   77 42                   ja     0x44
119 67 ---
   0:   77 43                   ja     0x45
119 68 ---
   0:   77 44                   ja     0x46
119 69 ---
   0:   77 45                   ja     0x47
119 70 ---
   0:   77 46                   ja     0x48
119 71 ---
   0:   77 47                   ja     0x49
119 72 ---
   0:   77 48                   ja     0x4a
119 73 ---
   0:   77 49                   ja     0x4b
119 74 ---
   0:   77 4a                   ja     0x4c
119 75 ---
   0:   77 4b                   ja     0x4d
119 76 ---
   0:   77 4c                   ja     0x4e
119 77 ---
   0:   77 4d                   ja     0x4f
119 78 ---
   0:   77 4e                   ja     0x50
119 79 ---
   0:   77 4f                   ja     0x51
119 80 ---
   0:   77 50                   ja     0x52
119 81 ---
   0:   77 51                   ja     0x53
119 82 ---
   0:   77 52                   ja     0x54
119 83 ---
   0:   77 53                   ja     0x55
119 84 ---
   0:   77 54                   ja     0x56
119 85 ---
   0:   77 55                   ja     0x57
119 86 ---
   0:   77 56                   ja     0x58
119 87 ---
   0:   77 57                   ja     0x59
119 88 ---
   0:   77 58                   ja     0x5a
119 89 ---
   0:   77 59                   ja     0x5b
119 90 ---
   0:   77 5a                   ja     0x5c
119 91 ---
   0:   77 5b                   ja     0x5d
119 92 ---
   0:   77 5c                   ja     0x5e
119 93 ---
   0:   77 5d                   ja     0x5f
119 94 ---
   0:   77 5e                   ja     0x60
119 95 ---
   0:   77 5f                   ja     0x61
119 96 ---
   0:   77 60                   ja     0x62
119 97 ---
   0:   77 61                   ja     0x63
119 98 ---
   0:   77 62                   ja     0x64
119 99 ---
   0:   77 63                   ja     0x65
119 100 ---
   0:   77 64                   ja     0x66
119 101 ---
   0:   77 65                   ja     0x67
119 102 ---
   0:   77 66                   ja     0x68
119 103 ---
   0:   77 67                   ja     0x69
119 104 ---
   0:   77 68                   ja     0x6a
119 105 ---
   0:   77 69                   ja     0x6b
119 106 ---
   0:   77 6a                   ja     0x6c
119 107 ---
   0:   77 6b                   ja     0x6d
119 108 ---
   0:   77 6c                   ja     0x6e
119 109 ---
   0:   77 6d                   ja     0x6f
119 110 ---
   0:   77 6e                   ja     0x70
119 111 ---
   0:   77 6f                   ja     0x71
119 112 ---
   0:   77 70                   ja     0x72
119 113 ---
   0:   77 71                   ja     0x73
119 114 ---
   0:   77 72                   ja     0x74
119 115 ---
   0:   77 73                   ja     0x75
119 116 ---
   0:   77 74                   ja     0x76
119 117 ---
   0:   77 75                   ja     0x77
119 118 ---
   0:   77 76                   ja     0x78
119 119 ---
   0:   77 77                   ja     0x79
119 120 ---
   0:   77 78                   ja     0x7a
119 121 ---
   0:   77 79                   ja     0x7b
119 122 ---
   0:   77 7a                   ja     0x7c
119 123 ---
   0:   77 7b                   ja     0x7d
119 124 ---
   0:   77 7c                   ja     0x7e
119 125 ---
   0:   77 7d                   ja     0x7f
119 126 ---
   0:   77 7e                   ja     0x80
120 32 ---
   0:   78 20                   js     0x22
120 33 ---
   0:   78 21                   js     0x23
120 34 ---
   0:   78 22                   js     0x24
120 35 ---
   0:   78 23                   js     0x25
120 36 ---
   0:   78 24                   js     0x26
120 37 ---
   0:   78 25                   js     0x27
120 38 ---
   0:   78 26                   js     0x28
120 39 ---
   0:   78 27                   js     0x29
120 40 ---
   0:   78 28                   js     0x2a
120 41 ---
   0:   78 29                   js     0x2b
120 42 ---
   0:   78 2a                   js     0x2c
120 43 ---
   0:   78 2b                   js     0x2d
120 44 ---
   0:   78 2c                   js     0x2e
120 45 ---
   0:   78 2d                   js     0x2f
120 46 ---
   0:   78 2e                   js     0x30
120 47 ---
   0:   78 2f                   js     0x31
120 48 ---
   0:   78 30                   js     0x32
120 49 ---
   0:   78 31                   js     0x33
120 50 ---
   0:   78 32                   js     0x34
120 51 ---
   0:   78 33                   js     0x35
120 52 ---
   0:   78 34                   js     0x36
120 53 ---
   0:   78 35                   js     0x37
120 54 ---
   0:   78 36                   js     0x38
120 55 ---
   0:   78 37                   js     0x39
120 56 ---
   0:   78 38                   js     0x3a
120 57 ---
   0:   78 39                   js     0x3b
120 58 ---
   0:   78 3a                   js     0x3c
120 59 ---
   0:   78 3b                   js     0x3d
120 60 ---
   0:   78 3c                   js     0x3e
120 61 ---
   0:   78 3d                   js     0x3f
120 62 ---
   0:   78 3e                   js     0x40
120 63 ---
   0:   78 3f                   js     0x41
120 64 ---
   0:   78 40                   js     0x42
120 65 ---
   0:   78 41                   js     0x43
120 66 ---
   0:   78 42                   js     0x44
120 67 ---
   0:   78 43                   js     0x45
120 68 ---
   0:   78 44                   js     0x46
120 69 ---
   0:   78 45                   js     0x47
120 70 ---
   0:   78 46                   js     0x48
120 71 ---
   0:   78 47                   js     0x49
120 72 ---
   0:   78 48                   js     0x4a
120 73 ---
   0:   78 49                   js     0x4b
120 74 ---
   0:   78 4a                   js     0x4c
120 75 ---
   0:   78 4b                   js     0x4d
120 76 ---
   0:   78 4c                   js     0x4e
120 77 ---
   0:   78 4d                   js     0x4f
120 78 ---
   0:   78 4e                   js     0x50
120 79 ---
   0:   78 4f                   js     0x51
120 80 ---
   0:   78 50                   js     0x52
120 81 ---
   0:   78 51                   js     0x53
120 82 ---
   0:   78 52                   js     0x54
120 83 ---
   0:   78 53                   js     0x55
120 84 ---
   0:   78 54                   js     0x56
120 85 ---
   0:   78 55                   js     0x57
120 86 ---
   0:   78 56                   js     0x58
120 87 ---
   0:   78 57                   js     0x59
120 88 ---
   0:   78 58                   js     0x5a
120 89 ---
   0:   78 59                   js     0x5b
120 90 ---
   0:   78 5a                   js     0x5c
120 91 ---
   0:   78 5b                   js     0x5d
120 92 ---
   0:   78 5c                   js     0x5e
120 93 ---
   0:   78 5d                   js     0x5f
120 94 ---
   0:   78 5e                   js     0x60
120 95 ---
   0:   78 5f                   js     0x61
120 96 ---
   0:   78 60                   js     0x62
120 97 ---
   0:   78 61                   js     0x63
120 98 ---
   0:   78 62                   js     0x64
120 99 ---
   0:   78 63                   js     0x65
120 100 ---
   0:   78 64                   js     0x66
120 101 ---
   0:   78 65                   js     0x67
120 102 ---
   0:   78 66                   js     0x68
120 103 ---
   0:   78 67                   js     0x69
120 104 ---
   0:   78 68                   js     0x6a
120 105 ---
   0:   78 69                   js     0x6b
120 106 ---
   0:   78 6a                   js     0x6c
120 107 ---
   0:   78 6b                   js     0x6d
120 108 ---
   0:   78 6c                   js     0x6e
120 109 ---
   0:   78 6d                   js     0x6f
120 110 ---
   0:   78 6e                   js     0x70
120 111 ---
   0:   78 6f                   js     0x71
120 112 ---
   0:   78 70                   js     0x72
120 113 ---
   0:   78 71                   js     0x73
120 114 ---
   0:   78 72                   js     0x74
120 115 ---
   0:   78 73                   js     0x75
120 116 ---
   0:   78 74                   js     0x76
120 117 ---
   0:   78 75                   js     0x77
120 118 ---
   0:   78 76                   js     0x78
120 119 ---
   0:   78 77                   js     0x79
120 120 ---
   0:   78 78                   js     0x7a
120 121 ---
   0:   78 79                   js     0x7b
120 122 ---
   0:   78 7a                   js     0x7c
120 123 ---
   0:   78 7b                   js     0x7d
120 124 ---
   0:   78 7c                   js     0x7e
120 125 ---
   0:   78 7d                   js     0x7f
120 126 ---
   0:   78 7e                   js     0x80
121 32 ---
   0:   79 20                   jns    0x22
121 33 ---
   0:   79 21                   jns    0x23
121 34 ---
   0:   79 22                   jns    0x24
121 35 ---
   0:   79 23                   jns    0x25
121 36 ---
   0:   79 24                   jns    0x26
121 37 ---
   0:   79 25                   jns    0x27
121 38 ---
   0:   79 26                   jns    0x28
121 39 ---
   0:   79 27                   jns    0x29
121 40 ---
   0:   79 28                   jns    0x2a
121 41 ---
   0:   79 29                   jns    0x2b
121 42 ---
   0:   79 2a                   jns    0x2c
121 43 ---
   0:   79 2b                   jns    0x2d
121 44 ---
   0:   79 2c                   jns    0x2e
121 45 ---
   0:   79 2d                   jns    0x2f
121 46 ---
   0:   79 2e                   jns    0x30
121 47 ---
   0:   79 2f                   jns    0x31
121 48 ---
   0:   79 30                   jns    0x32
121 49 ---
   0:   79 31                   jns    0x33
121 50 ---
   0:   79 32                   jns    0x34
121 51 ---
   0:   79 33                   jns    0x35
121 52 ---
   0:   79 34                   jns    0x36
121 53 ---
   0:   79 35                   jns    0x37
121 54 ---
   0:   79 36                   jns    0x38
121 55 ---
   0:   79 37                   jns    0x39
121 56 ---
   0:   79 38                   jns    0x3a
121 57 ---
   0:   79 39                   jns    0x3b
121 58 ---
   0:   79 3a                   jns    0x3c
121 59 ---
   0:   79 3b                   jns    0x3d
121 60 ---
   0:   79 3c                   jns    0x3e
121 61 ---
   0:   79 3d                   jns    0x3f
121 62 ---
   0:   79 3e                   jns    0x40
121 63 ---
   0:   79 3f                   jns    0x41
121 64 ---
   0:   79 40                   jns    0x42
121 65 ---
   0:   79 41                   jns    0x43
121 66 ---
   0:   79 42                   jns    0x44
121 67 ---
   0:   79 43                   jns    0x45
121 68 ---
   0:   79 44                   jns    0x46
121 69 ---
   0:   79 45                   jns    0x47
121 70 ---
   0:   79 46                   jns    0x48
121 71 ---
   0:   79 47                   jns    0x49
121 72 ---
   0:   79 48                   jns    0x4a
121 73 ---
   0:   79 49                   jns    0x4b
121 74 ---
   0:   79 4a                   jns    0x4c
121 75 ---
   0:   79 4b                   jns    0x4d
121 76 ---
   0:   79 4c                   jns    0x4e
121 77 ---
   0:   79 4d                   jns    0x4f
121 78 ---
   0:   79 4e                   jns    0x50
121 79 ---
   0:   79 4f                   jns    0x51
121 80 ---
   0:   79 50                   jns    0x52
121 81 ---
   0:   79 51                   jns    0x53
121 82 ---
   0:   79 52                   jns    0x54
121 83 ---
   0:   79 53                   jns    0x55
121 84 ---
   0:   79 54                   jns    0x56
121 85 ---
   0:   79 55                   jns    0x57
121 86 ---
   0:   79 56                   jns    0x58
121 87 ---
   0:   79 57                   jns    0x59
121 88 ---
   0:   79 58                   jns    0x5a
121 89 ---
   0:   79 59                   jns    0x5b
121 90 ---
   0:   79 5a                   jns    0x5c
121 91 ---
   0:   79 5b                   jns    0x5d
121 92 ---
   0:   79 5c                   jns    0x5e
121 93 ---
   0:   79 5d                   jns    0x5f
121 94 ---
   0:   79 5e                   jns    0x60
121 95 ---
   0:   79 5f                   jns    0x61
121 96 ---
   0:   79 60                   jns    0x62
121 97 ---
   0:   79 61                   jns    0x63
121 98 ---
   0:   79 62                   jns    0x64
121 99 ---
   0:   79 63                   jns    0x65
121 100 ---
   0:   79 64                   jns    0x66
121 101 ---
   0:   79 65                   jns    0x67
121 102 ---
   0:   79 66                   jns    0x68
121 103 ---
   0:   79 67                   jns    0x69
121 104 ---
   0:   79 68                   jns    0x6a
121 105 ---
   0:   79 69                   jns    0x6b
121 106 ---
   0:   79 6a                   jns    0x6c
121 107 ---
   0:   79 6b                   jns    0x6d
121 108 ---
   0:   79 6c                   jns    0x6e
121 109 ---
   0:   79 6d                   jns    0x6f
121 110 ---
   0:   79 6e                   jns    0x70
121 111 ---
   0:   79 6f                   jns    0x71
121 112 ---
   0:   79 70                   jns    0x72
121 113 ---
   0:   79 71                   jns    0x73
121 114 ---
   0:   79 72                   jns    0x74
121 115 ---
   0:   79 73                   jns    0x75
121 116 ---
   0:   79 74                   jns    0x76
121 117 ---
   0:   79 75                   jns    0x77
121 118 ---
   0:   79 76                   jns    0x78
121 119 ---
   0:   79 77                   jns    0x79
121 120 ---
   0:   79 78                   jns    0x7a
121 121 ---
   0:   79 79                   jns    0x7b
121 122 ---
   0:   79 7a                   jns    0x7c
121 123 ---
   0:   79 7b                   jns    0x7d
121 124 ---
   0:   79 7c                   jns    0x7e
121 125 ---
   0:   79 7d                   jns    0x7f
121 126 ---
   0:   79 7e                   jns    0x80
122 32 ---
   0:   7a 20                   jp     0x22
122 33 ---
   0:   7a 21                   jp     0x23
122 34 ---
   0:   7a 22                   jp     0x24
122 35 ---
   0:   7a 23                   jp     0x25
122 36 ---
   0:   7a 24                   jp     0x26
122 37 ---
   0:   7a 25                   jp     0x27
122 38 ---
   0:   7a 26                   jp     0x28
122 39 ---
   0:   7a 27                   jp     0x29
122 40 ---
   0:   7a 28                   jp     0x2a
122 41 ---
   0:   7a 29                   jp     0x2b
122 42 ---
   0:   7a 2a                   jp     0x2c
122 43 ---
   0:   7a 2b                   jp     0x2d
122 44 ---
   0:   7a 2c                   jp     0x2e
122 45 ---
   0:   7a 2d                   jp     0x2f
122 46 ---
   0:   7a 2e                   jp     0x30
122 47 ---
   0:   7a 2f                   jp     0x31
122 48 ---
   0:   7a 30                   jp     0x32
122 49 ---
   0:   7a 31                   jp     0x33
122 50 ---
   0:   7a 32                   jp     0x34
122 51 ---
   0:   7a 33                   jp     0x35
122 52 ---
   0:   7a 34                   jp     0x36
122 53 ---
   0:   7a 35                   jp     0x37
122 54 ---
   0:   7a 36                   jp     0x38
122 55 ---
   0:   7a 37                   jp     0x39
122 56 ---
   0:   7a 38                   jp     0x3a
122 57 ---
   0:   7a 39                   jp     0x3b
122 58 ---
   0:   7a 3a                   jp     0x3c
122 59 ---
   0:   7a 3b                   jp     0x3d
122 60 ---
   0:   7a 3c                   jp     0x3e
122 61 ---
   0:   7a 3d                   jp     0x3f
122 62 ---
   0:   7a 3e                   jp     0x40
122 63 ---
   0:   7a 3f                   jp     0x41
122 64 ---
   0:   7a 40                   jp     0x42
122 65 ---
   0:   7a 41                   jp     0x43
122 66 ---
   0:   7a 42                   jp     0x44
122 67 ---
   0:   7a 43                   jp     0x45
122 68 ---
   0:   7a 44                   jp     0x46
122 69 ---
   0:   7a 45                   jp     0x47
122 70 ---
   0:   7a 46                   jp     0x48
122 71 ---
   0:   7a 47                   jp     0x49
122 72 ---
   0:   7a 48                   jp     0x4a
122 73 ---
   0:   7a 49                   jp     0x4b
122 74 ---
   0:   7a 4a                   jp     0x4c
122 75 ---
   0:   7a 4b                   jp     0x4d
122 76 ---
   0:   7a 4c                   jp     0x4e
122 77 ---
   0:   7a 4d                   jp     0x4f
122 78 ---
   0:   7a 4e                   jp     0x50
122 79 ---
   0:   7a 4f                   jp     0x51
122 80 ---
   0:   7a 50                   jp     0x52
122 81 ---
   0:   7a 51                   jp     0x53
122 82 ---
   0:   7a 52                   jp     0x54
122 83 ---
   0:   7a 53                   jp     0x55
122 84 ---
   0:   7a 54                   jp     0x56
122 85 ---
   0:   7a 55                   jp     0x57
122 86 ---
   0:   7a 56                   jp     0x58
122 87 ---
   0:   7a 57                   jp     0x59
122 88 ---
   0:   7a 58                   jp     0x5a
122 89 ---
   0:   7a 59                   jp     0x5b
122 90 ---
   0:   7a 5a                   jp     0x5c
122 91 ---
   0:   7a 5b                   jp     0x5d
122 92 ---
   0:   7a 5c                   jp     0x5e
122 93 ---
   0:   7a 5d                   jp     0x5f
122 94 ---
   0:   7a 5e                   jp     0x60
122 95 ---
   0:   7a 5f                   jp     0x61
122 96 ---
   0:   7a 60                   jp     0x62
122 97 ---
   0:   7a 61                   jp     0x63
122 98 ---
   0:   7a 62                   jp     0x64
122 99 ---
   0:   7a 63                   jp     0x65
122 100 ---
   0:   7a 64                   jp     0x66
122 101 ---
   0:   7a 65                   jp     0x67
122 102 ---
   0:   7a 66                   jp     0x68
122 103 ---
   0:   7a 67                   jp     0x69
122 104 ---
   0:   7a 68                   jp     0x6a
122 105 ---
   0:   7a 69                   jp     0x6b
122 106 ---
   0:   7a 6a                   jp     0x6c
122 107 ---
   0:   7a 6b                   jp     0x6d
122 108 ---
   0:   7a 6c                   jp     0x6e
122 109 ---
   0:   7a 6d                   jp     0x6f
122 110 ---
   0:   7a 6e                   jp     0x70
122 111 ---
   0:   7a 6f                   jp     0x71
122 112 ---
   0:   7a 70                   jp     0x72
122 113 ---
   0:   7a 71                   jp     0x73
122 114 ---
   0:   7a 72                   jp     0x74
122 115 ---
   0:   7a 73                   jp     0x75
122 116 ---
   0:   7a 74                   jp     0x76
122 117 ---
   0:   7a 75                   jp     0x77
122 118 ---
   0:   7a 76                   jp     0x78
122 119 ---
   0:   7a 77                   jp     0x79
122 120 ---
   0:   7a 78                   jp     0x7a
122 121 ---
   0:   7a 79                   jp     0x7b
122 122 ---
   0:   7a 7a                   jp     0x7c
122 123 ---
   0:   7a 7b                   jp     0x7d
122 124 ---
   0:   7a 7c                   jp     0x7e
122 125 ---
   0:   7a 7d                   jp     0x7f
122 126 ---
   0:   7a 7e                   jp     0x80
123 32 ---
   0:   7b 20                   jnp    0x22
123 33 ---
   0:   7b 21                   jnp    0x23
123 34 ---
   0:   7b 22                   jnp    0x24
123 35 ---
   0:   7b 23                   jnp    0x25
123 36 ---
   0:   7b 24                   jnp    0x26
123 37 ---
   0:   7b 25                   jnp    0x27
123 38 ---
   0:   7b 26                   jnp    0x28
123 39 ---
   0:   7b 27                   jnp    0x29
123 40 ---
   0:   7b 28                   jnp    0x2a
123 41 ---
   0:   7b 29                   jnp    0x2b
123 42 ---
   0:   7b 2a                   jnp    0x2c
123 43 ---
   0:   7b 2b                   jnp    0x2d
123 44 ---
   0:   7b 2c                   jnp    0x2e
123 45 ---
   0:   7b 2d                   jnp    0x2f
123 46 ---
   0:   7b 2e                   jnp    0x30
123 47 ---
   0:   7b 2f                   jnp    0x31
123 48 ---
   0:   7b 30                   jnp    0x32
123 49 ---
   0:   7b 31                   jnp    0x33
123 50 ---
   0:   7b 32                   jnp    0x34
123 51 ---
   0:   7b 33                   jnp    0x35
123 52 ---
   0:   7b 34                   jnp    0x36
123 53 ---
   0:   7b 35                   jnp    0x37
123 54 ---
   0:   7b 36                   jnp    0x38
123 55 ---
   0:   7b 37                   jnp    0x39
123 56 ---
   0:   7b 38                   jnp    0x3a
123 57 ---
   0:   7b 39                   jnp    0x3b
123 58 ---
   0:   7b 3a                   jnp    0x3c
123 59 ---
   0:   7b 3b                   jnp    0x3d
123 60 ---
   0:   7b 3c                   jnp    0x3e
123 61 ---
   0:   7b 3d                   jnp    0x3f
123 62 ---
   0:   7b 3e                   jnp    0x40
123 63 ---
   0:   7b 3f                   jnp    0x41
123 64 ---
   0:   7b 40                   jnp    0x42
123 65 ---
   0:   7b 41                   jnp    0x43
123 66 ---
   0:   7b 42                   jnp    0x44
123 67 ---
   0:   7b 43                   jnp    0x45
123 68 ---
   0:   7b 44                   jnp    0x46
123 69 ---
   0:   7b 45                   jnp    0x47
123 70 ---
   0:   7b 46                   jnp    0x48
123 71 ---
   0:   7b 47                   jnp    0x49
123 72 ---
   0:   7b 48                   jnp    0x4a
123 73 ---
   0:   7b 49                   jnp    0x4b
123 74 ---
   0:   7b 4a                   jnp    0x4c
123 75 ---
   0:   7b 4b                   jnp    0x4d
123 76 ---
   0:   7b 4c                   jnp    0x4e
123 77 ---
   0:   7b 4d                   jnp    0x4f
123 78 ---
   0:   7b 4e                   jnp    0x50
123 79 ---
   0:   7b 4f                   jnp    0x51
123 80 ---
   0:   7b 50                   jnp    0x52
123 81 ---
   0:   7b 51                   jnp    0x53
123 82 ---
   0:   7b 52                   jnp    0x54
123 83 ---
   0:   7b 53                   jnp    0x55
123 84 ---
   0:   7b 54                   jnp    0x56
123 85 ---
   0:   7b 55                   jnp    0x57
123 86 ---
   0:   7b 56                   jnp    0x58
123 87 ---
   0:   7b 57                   jnp    0x59
123 88 ---
   0:   7b 58                   jnp    0x5a
123 89 ---
   0:   7b 59                   jnp    0x5b
123 90 ---
   0:   7b 5a                   jnp    0x5c
123 91 ---
   0:   7b 5b                   jnp    0x5d
123 92 ---
   0:   7b 5c                   jnp    0x5e
123 93 ---
   0:   7b 5d                   jnp    0x5f
123 94 ---
   0:   7b 5e                   jnp    0x60
123 95 ---
   0:   7b 5f                   jnp    0x61
123 96 ---
   0:   7b 60                   jnp    0x62
123 97 ---
   0:   7b 61                   jnp    0x63
123 98 ---
   0:   7b 62                   jnp    0x64
123 99 ---
   0:   7b 63                   jnp    0x65
123 100 ---
   0:   7b 64                   jnp    0x66
123 101 ---
   0:   7b 65                   jnp    0x67
123 102 ---
   0:   7b 66                   jnp    0x68
123 103 ---
   0:   7b 67                   jnp    0x69
123 104 ---
   0:   7b 68                   jnp    0x6a
123 105 ---
   0:   7b 69                   jnp    0x6b
123 106 ---
   0:   7b 6a                   jnp    0x6c
123 107 ---
   0:   7b 6b                   jnp    0x6d
123 108 ---
   0:   7b 6c                   jnp    0x6e
123 109 ---
   0:   7b 6d                   jnp    0x6f
123 110 ---
   0:   7b 6e                   jnp    0x70
123 111 ---
   0:   7b 6f                   jnp    0x71
123 112 ---
   0:   7b 70                   jnp    0x72
123 113 ---
   0:   7b 71                   jnp    0x73
123 114 ---
   0:   7b 72                   jnp    0x74
123 115 ---
   0:   7b 73                   jnp    0x75
123 116 ---
   0:   7b 74                   jnp    0x76
123 117 ---
   0:   7b 75                   jnp    0x77
123 118 ---
   0:   7b 76                   jnp    0x78
123 119 ---
   0:   7b 77                   jnp    0x79
123 120 ---
   0:   7b 78                   jnp    0x7a
123 121 ---
   0:   7b 79                   jnp    0x7b
123 122 ---
   0:   7b 7a                   jnp    0x7c
123 123 ---
   0:   7b 7b                   jnp    0x7d
123 124 ---
   0:   7b 7c                   jnp    0x7e
123 125 ---
   0:   7b 7d                   jnp    0x7f
123 126 ---
   0:   7b 7e                   jnp    0x80
124 32 ---
   0:   7c 20                   jl     0x22
124 33 ---
   0:   7c 21                   jl     0x23
124 34 ---
   0:   7c 22                   jl     0x24
124 35 ---
   0:   7c 23                   jl     0x25
124 36 ---
   0:   7c 24                   jl     0x26
124 37 ---
   0:   7c 25                   jl     0x27
124 38 ---
   0:   7c 26                   jl     0x28
124 39 ---
   0:   7c 27                   jl     0x29
124 40 ---
   0:   7c 28                   jl     0x2a
124 41 ---
   0:   7c 29                   jl     0x2b
124 42 ---
   0:   7c 2a                   jl     0x2c
124 43 ---
   0:   7c 2b                   jl     0x2d
124 44 ---
   0:   7c 2c                   jl     0x2e
124 45 ---
   0:   7c 2d                   jl     0x2f
124 46 ---
   0:   7c 2e                   jl     0x30
124 47 ---
   0:   7c 2f                   jl     0x31
124 48 ---
   0:   7c 30                   jl     0x32
124 49 ---
   0:   7c 31                   jl     0x33
124 50 ---
   0:   7c 32                   jl     0x34
124 51 ---
   0:   7c 33                   jl     0x35
124 52 ---
   0:   7c 34                   jl     0x36
124 53 ---
   0:   7c 35                   jl     0x37
124 54 ---
   0:   7c 36                   jl     0x38
124 55 ---
   0:   7c 37                   jl     0x39
124 56 ---
   0:   7c 38                   jl     0x3a
124 57 ---
   0:   7c 39                   jl     0x3b
124 58 ---
   0:   7c 3a                   jl     0x3c
124 59 ---
   0:   7c 3b                   jl     0x3d
124 60 ---
   0:   7c 3c                   jl     0x3e
124 61 ---
   0:   7c 3d                   jl     0x3f
124 62 ---
   0:   7c 3e                   jl     0x40
124 63 ---
   0:   7c 3f                   jl     0x41
124 64 ---
   0:   7c 40                   jl     0x42
124 65 ---
   0:   7c 41                   jl     0x43
124 66 ---
   0:   7c 42                   jl     0x44
124 67 ---
   0:   7c 43                   jl     0x45
124 68 ---
   0:   7c 44                   jl     0x46
124 69 ---
   0:   7c 45                   jl     0x47
124 70 ---
   0:   7c 46                   jl     0x48
124 71 ---
   0:   7c 47                   jl     0x49
124 72 ---
   0:   7c 48                   jl     0x4a
124 73 ---
   0:   7c 49                   jl     0x4b
124 74 ---
   0:   7c 4a                   jl     0x4c
124 75 ---
   0:   7c 4b                   jl     0x4d
124 76 ---
   0:   7c 4c                   jl     0x4e
124 77 ---
   0:   7c 4d                   jl     0x4f
124 78 ---
   0:   7c 4e                   jl     0x50
124 79 ---
   0:   7c 4f                   jl     0x51
124 80 ---
   0:   7c 50                   jl     0x52
124 81 ---
   0:   7c 51                   jl     0x53
124 82 ---
   0:   7c 52                   jl     0x54
124 83 ---
   0:   7c 53                   jl     0x55
124 84 ---
   0:   7c 54                   jl     0x56
124 85 ---
   0:   7c 55                   jl     0x57
124 86 ---
   0:   7c 56                   jl     0x58
124 87 ---
   0:   7c 57                   jl     0x59
124 88 ---
   0:   7c 58                   jl     0x5a
124 89 ---
   0:   7c 59                   jl     0x5b
124 90 ---
   0:   7c 5a                   jl     0x5c
124 91 ---
   0:   7c 5b                   jl     0x5d
124 92 ---
   0:   7c 5c                   jl     0x5e
124 93 ---
   0:   7c 5d                   jl     0x5f
124 94 ---
   0:   7c 5e                   jl     0x60
124 95 ---
   0:   7c 5f                   jl     0x61
124 96 ---
   0:   7c 60                   jl     0x62
124 97 ---
   0:   7c 61                   jl     0x63
124 98 ---
   0:   7c 62                   jl     0x64
124 99 ---
   0:   7c 63                   jl     0x65
124 100 ---
   0:   7c 64                   jl     0x66
124 101 ---
   0:   7c 65                   jl     0x67
124 102 ---
   0:   7c 66                   jl     0x68
124 103 ---
   0:   7c 67                   jl     0x69
124 104 ---
   0:   7c 68                   jl     0x6a
124 105 ---
   0:   7c 69                   jl     0x6b
124 106 ---
   0:   7c 6a                   jl     0x6c
124 107 ---
   0:   7c 6b                   jl     0x6d
124 108 ---
   0:   7c 6c                   jl     0x6e
124 109 ---
   0:   7c 6d                   jl     0x6f
124 110 ---
   0:   7c 6e                   jl     0x70
124 111 ---
   0:   7c 6f                   jl     0x71
124 112 ---
   0:   7c 70                   jl     0x72
124 113 ---
   0:   7c 71                   jl     0x73
124 114 ---
   0:   7c 72                   jl     0x74
124 115 ---
   0:   7c 73                   jl     0x75
124 116 ---
   0:   7c 74                   jl     0x76
124 117 ---
   0:   7c 75                   jl     0x77
124 118 ---
   0:   7c 76                   jl     0x78
124 119 ---
   0:   7c 77                   jl     0x79
124 120 ---
   0:   7c 78                   jl     0x7a
124 121 ---
   0:   7c 79                   jl     0x7b
124 122 ---
   0:   7c 7a                   jl     0x7c
124 123 ---
   0:   7c 7b                   jl     0x7d
124 124 ---
   0:   7c 7c                   jl     0x7e
124 125 ---
   0:   7c 7d                   jl     0x7f
124 126 ---
   0:   7c 7e                   jl     0x80
125 32 ---
   0:   7d 20                   jge    0x22
125 33 ---
   0:   7d 21                   jge    0x23
125 34 ---
   0:   7d 22                   jge    0x24
125 35 ---
   0:   7d 23                   jge    0x25
125 36 ---
   0:   7d 24                   jge    0x26
125 37 ---
   0:   7d 25                   jge    0x27
125 38 ---
   0:   7d 26                   jge    0x28
125 39 ---
   0:   7d 27                   jge    0x29
125 40 ---
   0:   7d 28                   jge    0x2a
125 41 ---
   0:   7d 29                   jge    0x2b
125 42 ---
   0:   7d 2a                   jge    0x2c
125 43 ---
   0:   7d 2b                   jge    0x2d
125 44 ---
   0:   7d 2c                   jge    0x2e
125 45 ---
   0:   7d 2d                   jge    0x2f
125 46 ---
   0:   7d 2e                   jge    0x30
125 47 ---
   0:   7d 2f                   jge    0x31
125 48 ---
   0:   7d 30                   jge    0x32
125 49 ---
   0:   7d 31                   jge    0x33
125 50 ---
   0:   7d 32                   jge    0x34
125 51 ---
   0:   7d 33                   jge    0x35
125 52 ---
   0:   7d 34                   jge    0x36
125 53 ---
   0:   7d 35                   jge    0x37
125 54 ---
   0:   7d 36                   jge    0x38
125 55 ---
   0:   7d 37                   jge    0x39
125 56 ---
   0:   7d 38                   jge    0x3a
125 57 ---
   0:   7d 39                   jge    0x3b
125 58 ---
   0:   7d 3a                   jge    0x3c
125 59 ---
   0:   7d 3b                   jge    0x3d
125 60 ---
   0:   7d 3c                   jge    0x3e
125 61 ---
   0:   7d 3d                   jge    0x3f
125 62 ---
   0:   7d 3e                   jge    0x40
125 63 ---
   0:   7d 3f                   jge    0x41
125 64 ---
   0:   7d 40                   jge    0x42
125 65 ---
   0:   7d 41                   jge    0x43
125 66 ---
   0:   7d 42                   jge    0x44
125 67 ---
   0:   7d 43                   jge    0x45
125 68 ---
   0:   7d 44                   jge    0x46
125 69 ---
   0:   7d 45                   jge    0x47
125 70 ---
   0:   7d 46                   jge    0x48
125 71 ---
   0:   7d 47                   jge    0x49
125 72 ---
   0:   7d 48                   jge    0x4a
125 73 ---
   0:   7d 49                   jge    0x4b
125 74 ---
   0:   7d 4a                   jge    0x4c
125 75 ---
   0:   7d 4b                   jge    0x4d
125 76 ---
   0:   7d 4c                   jge    0x4e
125 77 ---
   0:   7d 4d                   jge    0x4f
125 78 ---
   0:   7d 4e                   jge    0x50
125 79 ---
   0:   7d 4f                   jge    0x51
125 80 ---
   0:   7d 50                   jge    0x52
125 81 ---
   0:   7d 51                   jge    0x53
125 82 ---
   0:   7d 52                   jge    0x54
125 83 ---
   0:   7d 53                   jge    0x55
125 84 ---
   0:   7d 54                   jge    0x56
125 85 ---
   0:   7d 55                   jge    0x57
125 86 ---
   0:   7d 56                   jge    0x58
125 87 ---
   0:   7d 57                   jge    0x59
125 88 ---
   0:   7d 58                   jge    0x5a
125 89 ---
   0:   7d 59                   jge    0x5b
125 90 ---
   0:   7d 5a                   jge    0x5c
125 91 ---
   0:   7d 5b                   jge    0x5d
125 92 ---
   0:   7d 5c                   jge    0x5e
125 93 ---
   0:   7d 5d                   jge    0x5f
125 94 ---
   0:   7d 5e                   jge    0x60
125 95 ---
   0:   7d 5f                   jge    0x61
125 96 ---
   0:   7d 60                   jge    0x62
125 97 ---
   0:   7d 61                   jge    0x63
125 98 ---
   0:   7d 62                   jge    0x64
125 99 ---
   0:   7d 63                   jge    0x65
125 100 ---
   0:   7d 64                   jge    0x66
125 101 ---
   0:   7d 65                   jge    0x67
125 102 ---
   0:   7d 66                   jge    0x68
125 103 ---
   0:   7d 67                   jge    0x69
125 104 ---
   0:   7d 68                   jge    0x6a
125 105 ---
   0:   7d 69                   jge    0x6b
125 106 ---
   0:   7d 6a                   jge    0x6c
125 107 ---
   0:   7d 6b                   jge    0x6d
125 108 ---
   0:   7d 6c                   jge    0x6e
125 109 ---
   0:   7d 6d                   jge    0x6f
125 110 ---
   0:   7d 6e                   jge    0x70
125 111 ---
   0:   7d 6f                   jge    0x71
125 112 ---
   0:   7d 70                   jge    0x72
125 113 ---
   0:   7d 71                   jge    0x73
125 114 ---
   0:   7d 72                   jge    0x74
125 115 ---
   0:   7d 73                   jge    0x75
125 116 ---
   0:   7d 74                   jge    0x76
125 117 ---
   0:   7d 75                   jge    0x77
125 118 ---
   0:   7d 76                   jge    0x78
125 119 ---
   0:   7d 77                   jge    0x79
125 120 ---
   0:   7d 78                   jge    0x7a
125 121 ---
   0:   7d 79                   jge    0x7b
125 122 ---
   0:   7d 7a                   jge    0x7c
125 123 ---
   0:   7d 7b                   jge    0x7d
125 124 ---
   0:   7d 7c                   jge    0x7e
125 125 ---
   0:   7d 7d                   jge    0x7f
125 126 ---
   0:   7d 7e                   jge    0x80
126 32 ---
   0:   7e 20                   jle    0x22
126 33 ---
   0:   7e 21                   jle    0x23
126 34 ---
   0:   7e 22                   jle    0x24
126 35 ---
   0:   7e 23                   jle    0x25
126 36 ---
   0:   7e 24                   jle    0x26
126 37 ---
   0:   7e 25                   jle    0x27
126 38 ---
   0:   7e 26                   jle    0x28
126 39 ---
   0:   7e 27                   jle    0x29
126 40 ---
   0:   7e 28                   jle    0x2a
126 41 ---
   0:   7e 29                   jle    0x2b
126 42 ---
   0:   7e 2a                   jle    0x2c
126 43 ---
   0:   7e 2b                   jle    0x2d
126 44 ---
   0:   7e 2c                   jle    0x2e
126 45 ---
   0:   7e 2d                   jle    0x2f
126 46 ---
   0:   7e 2e                   jle    0x30
126 47 ---
   0:   7e 2f                   jle    0x31
126 48 ---
   0:   7e 30                   jle    0x32
126 49 ---
   0:   7e 31                   jle    0x33
126 50 ---
   0:   7e 32                   jle    0x34
126 51 ---
   0:   7e 33                   jle    0x35
126 52 ---
   0:   7e 34                   jle    0x36
126 53 ---
   0:   7e 35                   jle    0x37
126 54 ---
   0:   7e 36                   jle    0x38
126 55 ---
   0:   7e 37                   jle    0x39
126 56 ---
   0:   7e 38                   jle    0x3a
126 57 ---
   0:   7e 39                   jle    0x3b
126 58 ---
   0:   7e 3a                   jle    0x3c
126 59 ---
   0:   7e 3b                   jle    0x3d
126 60 ---
   0:   7e 3c                   jle    0x3e
126 61 ---
   0:   7e 3d                   jle    0x3f
126 62 ---
   0:   7e 3e                   jle    0x40
126 63 ---
   0:   7e 3f                   jle    0x41
126 64 ---
   0:   7e 40                   jle    0x42
126 65 ---
   0:   7e 41                   jle    0x43
126 66 ---
   0:   7e 42                   jle    0x44
126 67 ---
   0:   7e 43                   jle    0x45
126 68 ---
   0:   7e 44                   jle    0x46
126 69 ---
   0:   7e 45                   jle    0x47
126 70 ---
   0:   7e 46                   jle    0x48
126 71 ---
   0:   7e 47                   jle    0x49
126 72 ---
   0:   7e 48                   jle    0x4a
126 73 ---
   0:   7e 49                   jle    0x4b
126 74 ---
   0:   7e 4a                   jle    0x4c
126 75 ---
   0:   7e 4b                   jle    0x4d
126 76 ---
   0:   7e 4c                   jle    0x4e
126 77 ---
   0:   7e 4d                   jle    0x4f
126 78 ---
   0:   7e 4e                   jle    0x50
126 79 ---
   0:   7e 4f                   jle    0x51
126 80 ---
   0:   7e 50                   jle    0x52
126 81 ---
   0:   7e 51                   jle    0x53
126 82 ---
   0:   7e 52                   jle    0x54
126 83 ---
   0:   7e 53                   jle    0x55
126 84 ---
   0:   7e 54                   jle    0x56
126 85 ---
   0:   7e 55                   jle    0x57
126 86 ---
   0:   7e 56                   jle    0x58
126 87 ---
   0:   7e 57                   jle    0x59
126 88 ---
   0:   7e 58                   jle    0x5a
126 89 ---
   0:   7e 59                   jle    0x5b
126 90 ---
   0:   7e 5a                   jle    0x5c
126 91 ---
   0:   7e 5b                   jle    0x5d
126 92 ---
   0:   7e 5c                   jle    0x5e
126 93 ---
   0:   7e 5d                   jle    0x5f
126 94 ---
   0:   7e 5e                   jle    0x60
126 95 ---
   0:   7e 5f                   jle    0x61
126 96 ---
   0:   7e 60                   jle    0x62
126 97 ---
   0:   7e 61                   jle    0x63
126 98 ---
   0:   7e 62                   jle    0x64
126 99 ---
   0:   7e 63                   jle    0x65
126 100 ---
   0:   7e 64                   jle    0x66
126 101 ---
   0:   7e 65                   jle    0x67
126 102 ---
   0:   7e 66                   jle    0x68
126 103 ---
   0:   7e 67                   jle    0x69
126 104 ---
   0:   7e 68                   jle    0x6a
126 105 ---
   0:   7e 69                   jle    0x6b
126 106 ---
   0:   7e 6a                   jle    0x6c
126 107 ---
   0:   7e 6b                   jle    0x6d
126 108 ---
   0:   7e 6c                   jle    0x6e
126 109 ---
   0:   7e 6d                   jle    0x6f
126 110 ---
   0:   7e 6e                   jle    0x70
126 111 ---
   0:   7e 6f                   jle    0x71
126 112 ---
   0:   7e 70                   jle    0x72
126 113 ---
   0:   7e 71                   jle    0x73
126 114 ---
   0:   7e 72                   jle    0x74
126 115 ---
   0:   7e 73                   jle    0x75
126 116 ---
   0:   7e 74                   jle    0x76
126 117 ---
   0:   7e 75                   jle    0x77
126 118 ---
   0:   7e 76                   jle    0x78
126 119 ---
   0:   7e 77                   jle    0x79
126 120 ---
   0:   7e 78                   jle    0x7a
126 121 ---
   0:   7e 79                   jle    0x7b
126 122 ---
   0:   7e 7a                   jle    0x7c
126 123 ---
   0:   7e 7b                   jle    0x7d
126 124 ---
   0:   7e 7c                   jle    0x7e
126 125 ---
   0:   7e 7d                   jle    0x7f
126 126 ---
   0:   7e 7e                   jle    0x80
