
no:     file format elf32-i386


Disassembly of section .init:

080482cc <_init>:
 80482cc:	53                   	push   ebx
 80482cd:	83 ec 08             	sub    esp,0x8
 80482d0:	e8 ab 00 00 00       	call   8048380 <__x86.get_pc_thunk.bx>
 80482d5:	81 c3 87 14 00 00    	add    ebx,0x1487
 80482db:	8b 83 fc ff ff ff    	mov    eax,DWORD PTR [ebx-0x4]
 80482e1:	85 c0                	test   eax,eax
 80482e3:	74 05                	je     80482ea <_init+0x1e>
 80482e5:	e8 56 00 00 00       	call   8048340 <write@plt+0x10>
 80482ea:	83 c4 08             	add    esp,0x8
 80482ed:	5b                   	pop    ebx
 80482ee:	c3                   	ret    

Disassembly of section .plt:

080482f0 <read@plt-0x10>:
 80482f0:	ff 35 60 97 04 08    	push   DWORD PTR ds:0x8049760
 80482f6:	ff 25 64 97 04 08    	jmp    DWORD PTR ds:0x8049764
 80482fc:	00 00                	add    BYTE PTR [eax],al
	...

08048300 <read@plt>:
 8048300:	ff 25 68 97 04 08    	jmp    DWORD PTR ds:0x8049768
 8048306:	68 00 00 00 00       	push   0x0
 804830b:	e9 e0 ff ff ff       	jmp    80482f0 <_init+0x24>

08048310 <memcpy@plt>:
 8048310:	ff 25 6c 97 04 08    	jmp    DWORD PTR ds:0x804976c
 8048316:	68 08 00 00 00       	push   0x8
 804831b:	e9 d0 ff ff ff       	jmp    80482f0 <_init+0x24>

08048320 <__libc_start_main@plt>:
 8048320:	ff 25 70 97 04 08    	jmp    DWORD PTR ds:0x8049770
 8048326:	68 10 00 00 00       	push   0x10
 804832b:	e9 c0 ff ff ff       	jmp    80482f0 <_init+0x24>

08048330 <write@plt>:
 8048330:	ff 25 74 97 04 08    	jmp    DWORD PTR ds:0x8049774
 8048336:	68 18 00 00 00       	push   0x18
 804833b:	e9 b0 ff ff ff       	jmp    80482f0 <_init+0x24>

Disassembly of section .plt.got:

08048340 <.plt.got>:
 8048340:	ff 25 58 97 04 08    	jmp    DWORD PTR ds:0x8049758
 8048346:	66 90                	xchg   ax,ax

Disassembly of section .text:

08048350 <_start>:
 8048350:	31 ed                	xor    ebp,ebp
 8048352:	5e                   	pop    esi
 8048353:	89 e1                	mov    ecx,esp
 8048355:	83 e4 f0             	and    esp,0xfffffff0
 8048358:	50                   	push   eax
 8048359:	54                   	push   esp
 804835a:	52                   	push   edx
 804835b:	68 20 85 04 08       	push   0x8048520
 8048360:	68 c0 84 04 08       	push   0x80484c0
 8048365:	51                   	push   ecx
 8048366:	56                   	push   esi
 8048367:	68 68 84 04 08       	push   0x8048468
 804836c:	e8 af ff ff ff       	call   8048320 <__libc_start_main@plt>
 8048371:	f4                   	hlt    
 8048372:	66 90                	xchg   ax,ax
 8048374:	66 90                	xchg   ax,ax
 8048376:	66 90                	xchg   ax,ax
 8048378:	66 90                	xchg   ax,ax
 804837a:	66 90                	xchg   ax,ax
 804837c:	66 90                	xchg   ax,ax
 804837e:	66 90                	xchg   ax,ax

08048380 <__x86.get_pc_thunk.bx>:
 8048380:	8b 1c 24             	mov    ebx,DWORD PTR [esp]
 8048383:	c3                   	ret    
 8048384:	66 90                	xchg   ax,ax
 8048386:	66 90                	xchg   ax,ax
 8048388:	66 90                	xchg   ax,ax
 804838a:	66 90                	xchg   ax,ax
 804838c:	66 90                	xchg   ax,ax
 804838e:	66 90                	xchg   ax,ax

08048390 <deregister_tm_clones>:
 8048390:	b8 83 97 04 08       	mov    eax,0x8049783
 8048395:	2d 80 97 04 08       	sub    eax,0x8049780
 804839a:	83 f8 06             	cmp    eax,0x6
 804839d:	76 1a                	jbe    80483b9 <deregister_tm_clones+0x29>
 804839f:	b8 00 00 00 00       	mov    eax,0x0
 80483a4:	85 c0                	test   eax,eax
 80483a6:	74 11                	je     80483b9 <deregister_tm_clones+0x29>
 80483a8:	55                   	push   ebp
 80483a9:	89 e5                	mov    ebp,esp
 80483ab:	83 ec 14             	sub    esp,0x14
 80483ae:	68 80 97 04 08       	push   0x8049780
 80483b3:	ff d0                	call   eax
 80483b5:	83 c4 10             	add    esp,0x10
 80483b8:	c9                   	leave  
 80483b9:	f3 c3                	repz ret 
 80483bb:	90                   	nop
 80483bc:	8d 74 26 00          	lea    esi,[esi+eiz*1+0x0]

080483c0 <register_tm_clones>:
 80483c0:	b8 80 97 04 08       	mov    eax,0x8049780
 80483c5:	2d 80 97 04 08       	sub    eax,0x8049780
 80483ca:	c1 f8 02             	sar    eax,0x2
 80483cd:	89 c2                	mov    edx,eax
 80483cf:	c1 ea 1f             	shr    edx,0x1f
 80483d2:	01 d0                	add    eax,edx
 80483d4:	d1 f8                	sar    eax,1
 80483d6:	74 1b                	je     80483f3 <register_tm_clones+0x33>
 80483d8:	ba 00 00 00 00       	mov    edx,0x0
 80483dd:	85 d2                	test   edx,edx
 80483df:	74 12                	je     80483f3 <register_tm_clones+0x33>
 80483e1:	55                   	push   ebp
 80483e2:	89 e5                	mov    ebp,esp
 80483e4:	83 ec 10             	sub    esp,0x10
 80483e7:	50                   	push   eax
 80483e8:	68 80 97 04 08       	push   0x8049780
 80483ed:	ff d2                	call   edx
 80483ef:	83 c4 10             	add    esp,0x10
 80483f2:	c9                   	leave  
 80483f3:	f3 c3                	repz ret 
 80483f5:	8d 74 26 00          	lea    esi,[esi+eiz*1+0x0]
 80483f9:	8d bc 27 00 00 00 00 	lea    edi,[edi+eiz*1+0x0]

08048400 <__do_global_dtors_aux>:
 8048400:	80 3d 80 97 04 08 00 	cmp    BYTE PTR ds:0x8049780,0x0
 8048407:	75 13                	jne    804841c <__do_global_dtors_aux+0x1c>
 8048409:	55                   	push   ebp
 804840a:	89 e5                	mov    ebp,esp
 804840c:	83 ec 08             	sub    esp,0x8
 804840f:	e8 7c ff ff ff       	call   8048390 <deregister_tm_clones>
 8048414:	c6 05 80 97 04 08 01 	mov    BYTE PTR ds:0x8049780,0x1
 804841b:	c9                   	leave  
 804841c:	f3 c3                	repz ret 
 804841e:	66 90                	xchg   ax,ax

08048420 <frame_dummy>:
 8048420:	b8 6c 96 04 08       	mov    eax,0x804966c
 8048425:	8b 10                	mov    edx,DWORD PTR [eax]
 8048427:	85 d2                	test   edx,edx
 8048429:	75 05                	jne    8048430 <frame_dummy+0x10>
 804842b:	eb 93                	jmp    80483c0 <register_tm_clones>
 804842d:	8d 76 00             	lea    esi,[esi+0x0]
 8048430:	ba 00 00 00 00       	mov    edx,0x0
 8048435:	85 d2                	test   edx,edx
 8048437:	74 f2                	je     804842b <frame_dummy+0xb>
 8048439:	55                   	push   ebp
 804843a:	89 e5                	mov    ebp,esp
 804843c:	83 ec 14             	sub    esp,0x14
 804843f:	50                   	push   eax
 8048440:	ff d2                	call   edx
 8048442:	83 c4 10             	add    esp,0x10
 8048445:	c9                   	leave  
 8048446:	e9 75 ff ff ff       	jmp    80483c0 <register_tm_clones>

0804844b <jizz>:
 804844b:	55                   	push   ebp
 804844c:	89 e5                	mov    ebp,esp
 804844e:	83 ec 08             	sub    esp,0x8
 8048451:	83 ec 04             	sub    esp,0x4
 8048454:	6a 01                	push   0x1
 8048456:	68 40 85 04 08       	push   0x8048540
 804845b:	6a 01                	push   0x1
 804845d:	e8 ce fe ff ff       	call   8048330 <write@plt>
 8048462:	83 c4 10             	add    esp,0x10
 8048465:	90                   	nop
 8048466:	c9                   	leave  
 8048467:	c3                   	ret    

08048468 <main>:
 8048468:	8d 4c 24 04          	lea    ecx,[esp+0x4]
 804846c:	83 e4 f0             	and    esp,0xfffffff0
 804846f:	ff 71 fc             	push   DWORD PTR [ecx-0x4]
 8048472:	55                   	push   ebp
 8048473:	89 e5                	mov    ebp,esp
 8048475:	51                   	push   ecx
 8048476:	83 ec 14             	sub    esp,0x14
 8048479:	83 ec 04             	sub    esp,0x4
 804847c:	68 40 42 0f 00       	push   0xf4240
 8048481:	68 a0 97 04 08       	push   0x80497a0
 8048486:	6a 00                	push   0x0
 8048488:	e8 73 fe ff ff       	call   8048300 <read@plt>
 804848d:	83 c4 10             	add    esp,0x10
 8048490:	89 45 f4             	mov    DWORD PTR [ebp-0xc],eax
 8048493:	8b 45 f4             	mov    eax,DWORD PTR [ebp-0xc]
 8048496:	83 ec 04             	sub    esp,0x4
 8048499:	50                   	push   eax
 804849a:	68 a0 97 04 08       	push   0x80497a0
 804849f:	8d 45 ea             	lea    eax,[ebp-0x16]
 80484a2:	50                   	push   eax
 80484a3:	e8 68 fe ff ff       	call   8048310 <memcpy@plt>
 80484a8:	83 c4 10             	add    esp,0x10
 80484ab:	b8 00 00 00 00       	mov    eax,0x0
 80484b0:	8b 4d fc             	mov    ecx,DWORD PTR [ebp-0x4]
 80484b3:	c9                   	leave  
 80484b4:	8d 61 fc             	lea    esp,[ecx-0x4]
 80484b7:	c3                   	ret    
 80484b8:	66 90                	xchg   ax,ax
 80484ba:	66 90                	xchg   ax,ax
 80484bc:	66 90                	xchg   ax,ax
 80484be:	66 90                	xchg   ax,ax

080484c0 <__libc_csu_init>:
 80484c0:	55                   	push   ebp
 80484c1:	57                   	push   edi
 80484c2:	56                   	push   esi
 80484c3:	53                   	push   ebx
 80484c4:	e8 b7 fe ff ff       	call   8048380 <__x86.get_pc_thunk.bx>
 80484c9:	81 c3 93 12 00 00    	add    ebx,0x1293
 80484cf:	83 ec 0c             	sub    esp,0xc
 80484d2:	8b 6c 24 20          	mov    ebp,DWORD PTR [esp+0x20]
 80484d6:	8d b3 0c ff ff ff    	lea    esi,[ebx-0xf4]
 80484dc:	e8 eb fd ff ff       	call   80482cc <_init>
 80484e1:	8d 83 08 ff ff ff    	lea    eax,[ebx-0xf8]
 80484e7:	29 c6                	sub    esi,eax
 80484e9:	c1 fe 02             	sar    esi,0x2
 80484ec:	85 f6                	test   esi,esi
 80484ee:	74 25                	je     8048515 <__libc_csu_init+0x55>
 80484f0:	31 ff                	xor    edi,edi
 80484f2:	8d b6 00 00 00 00    	lea    esi,[esi+0x0]
 80484f8:	83 ec 04             	sub    esp,0x4
 80484fb:	ff 74 24 2c          	push   DWORD PTR [esp+0x2c]
 80484ff:	ff 74 24 2c          	push   DWORD PTR [esp+0x2c]
 8048503:	55                   	push   ebp
 8048504:	ff 94 bb 08 ff ff ff 	call   DWORD PTR [ebx+edi*4-0xf8]
 804850b:	83 c7 01             	add    edi,0x1
 804850e:	83 c4 10             	add    esp,0x10
 8048511:	39 f7                	cmp    edi,esi
 8048513:	75 e3                	jne    80484f8 <__libc_csu_init+0x38>
 8048515:	83 c4 0c             	add    esp,0xc
 8048518:	5b                   	pop    ebx
 8048519:	5e                   	pop    esi
 804851a:	5f                   	pop    edi
 804851b:	5d                   	pop    ebp
 804851c:	c3                   	ret    
 804851d:	8d 76 00             	lea    esi,[esi+0x0]

08048520 <__libc_csu_fini>:
 8048520:	f3 c3                	repz ret 

Disassembly of section .fini:

08048524 <_fini>:
 8048524:	53                   	push   ebx
 8048525:	83 ec 08             	sub    esp,0x8
 8048528:	e8 53 fe ff ff       	call   8048380 <__x86.get_pc_thunk.bx>
 804852d:	81 c3 2f 12 00 00    	add    ebx,0x122f
 8048533:	83 c4 08             	add    esp,0x8
 8048536:	5b                   	pop    ebx
 8048537:	c3                   	ret    
