
/home/unexploitable/unexploitable:     file format elf64-x86-64


Disassembly of section .init:

0000000000400400 <_init>:
  400400:	48 83 ec 08          	sub    $0x8,%rsp
  400404:	e8 83 00 00 00       	callq  40048c <call_gmon_start>
  400409:	e8 12 01 00 00       	callq  400520 <frame_dummy>
  40040e:	e8 0d 02 00 00       	callq  400620 <__do_global_ctors_aux>
  400413:	48 83 c4 08          	add    $0x8,%rsp
  400417:	c3                   	retq   

Disassembly of section .plt:

0000000000400420 <read@plt-0x10>:
  400420:	ff 35 ca 0b 20 00    	pushq  0x200bca(%rip)        # 600ff0 <_GLOBAL_OFFSET_TABLE_+0x8>
  400426:	ff 25 cc 0b 20 00    	jmpq   *0x200bcc(%rip)        # 600ff8 <_GLOBAL_OFFSET_TABLE_+0x10>
  40042c:	0f 1f 40 00          	nopl   0x0(%rax)

0000000000400430 <read@plt>:
  400430:	ff 25 ca 0b 20 00    	jmpq   *0x200bca(%rip)        # 601000 <_GLOBAL_OFFSET_TABLE_+0x18>
  400436:	68 00 00 00 00       	pushq  $0x0
  40043b:	e9 e0 ff ff ff       	jmpq   400420 <_init+0x20>

0000000000400440 <__libc_start_main@plt>:
  400440:	ff 25 c2 0b 20 00    	jmpq   *0x200bc2(%rip)        # 601008 <_GLOBAL_OFFSET_TABLE_+0x20>
  400446:	68 01 00 00 00       	pushq  $0x1
  40044b:	e9 d0 ff ff ff       	jmpq   400420 <_init+0x20>

0000000000400450 <sleep@plt>:
  400450:	ff 25 ba 0b 20 00    	jmpq   *0x200bba(%rip)        # 601010 <_GLOBAL_OFFSET_TABLE_+0x28>
  400456:	68 02 00 00 00       	pushq  $0x2
  40045b:	e9 c0 ff ff ff       	jmpq   400420 <_init+0x20>

Disassembly of section .text:

0000000000400460 <_start>:
  400460:	31 ed                	xor    %ebp,%ebp
  400462:	49 89 d1             	mov    %rdx,%r9
  400465:	5e                   	pop    %rsi
  400466:	48 89 e2             	mov    %rsp,%rdx
  400469:	48 83 e4 f0          	and    $0xfffffffffffffff0,%rsp
  40046d:	50                   	push   %rax
  40046e:	54                   	push   %rsp
  40046f:	49 c7 c0 10 06 40 00 	mov    $0x400610,%r8
  400476:	48 c7 c1 80 05 40 00 	mov    $0x400580,%rcx
  40047d:	48 c7 c7 44 05 40 00 	mov    $0x400544,%rdi
  400484:	e8 b7 ff ff ff       	callq  400440 <__libc_start_main@plt>
  400489:	f4                   	hlt    
  40048a:	90                   	nop
  40048b:	90                   	nop

000000000040048c <call_gmon_start>:
  40048c:	48 83 ec 08          	sub    $0x8,%rsp
  400490:	48 8b 05 49 0b 20 00 	mov    0x200b49(%rip),%rax        # 600fe0 <_DYNAMIC+0x190>
  400497:	48 85 c0             	test   %rax,%rax
  40049a:	74 02                	je     40049e <call_gmon_start+0x12>
  40049c:	ff d0                	callq  *%rax
  40049e:	48 83 c4 08          	add    $0x8,%rsp
  4004a2:	c3                   	retq   
  4004a3:	90                   	nop
  4004a4:	90                   	nop
  4004a5:	90                   	nop
  4004a6:	90                   	nop
  4004a7:	90                   	nop
  4004a8:	90                   	nop
  4004a9:	90                   	nop
  4004aa:	90                   	nop
  4004ab:	90                   	nop
  4004ac:	90                   	nop
  4004ad:	90                   	nop
  4004ae:	90                   	nop
  4004af:	90                   	nop

00000000004004b0 <__do_global_dtors_aux>:
  4004b0:	55                   	push   %rbp
  4004b1:	48 89 e5             	mov    %rsp,%rbp
  4004b4:	53                   	push   %rbx
  4004b5:	48 83 ec 08          	sub    $0x8,%rsp
  4004b9:	80 3d 68 0b 20 00 00 	cmpb   $0x0,0x200b68(%rip)        # 601028 <__bss_start>
  4004c0:	75 4b                	jne    40050d <__do_global_dtors_aux+0x5d>
  4004c2:	bb 40 0e 60 00       	mov    $0x600e40,%ebx
  4004c7:	48 8b 05 62 0b 20 00 	mov    0x200b62(%rip),%rax        # 601030 <dtor_idx.6533>
  4004ce:	48 81 eb 38 0e 60 00 	sub    $0x600e38,%rbx
  4004d5:	48 c1 fb 03          	sar    $0x3,%rbx
  4004d9:	48 83 eb 01          	sub    $0x1,%rbx
  4004dd:	48 39 d8             	cmp    %rbx,%rax
  4004e0:	73 24                	jae    400506 <__do_global_dtors_aux+0x56>
  4004e2:	66 0f 1f 44 00 00    	nopw   0x0(%rax,%rax,1)
  4004e8:	48 83 c0 01          	add    $0x1,%rax
  4004ec:	48 89 05 3d 0b 20 00 	mov    %rax,0x200b3d(%rip)        # 601030 <dtor_idx.6533>
  4004f3:	ff 14 c5 38 0e 60 00 	callq  *0x600e38(,%rax,8)
  4004fa:	48 8b 05 2f 0b 20 00 	mov    0x200b2f(%rip),%rax        # 601030 <dtor_idx.6533>
  400501:	48 39 d8             	cmp    %rbx,%rax
  400504:	72 e2                	jb     4004e8 <__do_global_dtors_aux+0x38>
  400506:	c6 05 1b 0b 20 00 01 	movb   $0x1,0x200b1b(%rip)        # 601028 <__bss_start>
  40050d:	48 83 c4 08          	add    $0x8,%rsp
  400511:	5b                   	pop    %rbx
  400512:	5d                   	pop    %rbp
  400513:	c3                   	retq   
  400514:	66 66 66 2e 0f 1f 84 	data16 data16 nopw %cs:0x0(%rax,%rax,1)
  40051b:	00 00 00 00 00 

0000000000400520 <frame_dummy>:
  400520:	48 83 3d 20 09 20 00 	cmpq   $0x0,0x200920(%rip)        # 600e48 <__JCR_END__>
  400527:	00 
  400528:	55                   	push   %rbp
  400529:	48 89 e5             	mov    %rsp,%rbp
  40052c:	74 12                	je     400540 <frame_dummy+0x20>
  40052e:	b8 00 00 00 00       	mov    $0x0,%eax
  400533:	48 85 c0             	test   %rax,%rax
  400536:	74 08                	je     400540 <frame_dummy+0x20>
  400538:	5d                   	pop    %rbp
  400539:	bf 48 0e 60 00       	mov    $0x600e48,%edi
  40053e:	ff e0                	jmpq   *%rax
  400540:	5d                   	pop    %rbp
  400541:	c3                   	retq   
  400542:	90                   	nop
  400543:	90                   	nop

0000000000400544 <main>:
  400544:	55                   	push   %rbp
  400545:	48 89 e5             	mov    %rsp,%rbp
  400548:	48 83 ec 10          	sub    $0x10,%rsp
  40054c:	bf 03 00 00 00       	mov    $0x3,%edi
  400551:	b8 00 00 00 00       	mov    $0x0,%eax
  400556:	e8 f5 fe ff ff       	callq  400450 <sleep@plt>
  40055b:	48 8d 45 f0          	lea    -0x10(%rbp),%rax
  40055f:	ba 0f 05 00 00       	mov    $0x50f,%edx
  400564:	48 89 c6             	mov    %rax,%rsi
  400567:	bf 00 00 00 00       	mov    $0x0,%edi
  40056c:	b8 00 00 00 00       	mov    $0x0,%eax
  400571:	e8 ba fe ff ff       	callq  400430 <read@plt>
  400576:	c9                   	leaveq 
  400577:	c3                   	retq   
  400578:	90                   	nop
  400579:	90                   	nop
  40057a:	90                   	nop
  40057b:	90                   	nop
  40057c:	90                   	nop
  40057d:	90                   	nop
  40057e:	90                   	nop
  40057f:	90                   	nop

0000000000400580 <__libc_csu_init>:
  400580:	48 89 6c 24 d8       	mov    %rbp,-0x28(%rsp)
  400585:	4c 89 64 24 e0       	mov    %r12,-0x20(%rsp)
  40058a:	48 8d 2d 93 08 20 00 	lea    0x200893(%rip),%rbp        # 600e24 <__init_array_end>
  400591:	4c 8d 25 8c 08 20 00 	lea    0x20088c(%rip),%r12        # 600e24 <__init_array_end>
  400598:	4c 89 6c 24 e8       	mov    %r13,-0x18(%rsp)
  40059d:	4c 89 74 24 f0       	mov    %r14,-0x10(%rsp)
  4005a2:	4c 89 7c 24 f8       	mov    %r15,-0x8(%rsp)
  4005a7:	48 89 5c 24 d0       	mov    %rbx,-0x30(%rsp)
  4005ac:	48 83 ec 38          	sub    $0x38,%rsp
  4005b0:	4c 29 e5             	sub    %r12,%rbp
  4005b3:	41 89 fd             	mov    %edi,%r13d
  4005b6:	49 89 f6             	mov    %rsi,%r14
  4005b9:	48 c1 fd 03          	sar    $0x3,%rbp
  4005bd:	49 89 d7             	mov    %rdx,%r15
  4005c0:	e8 3b fe ff ff       	callq  400400 <_init>
  4005c5:	48 85 ed             	test   %rbp,%rbp
  4005c8:	74 1c                	je     4005e6 <__libc_csu_init+0x66>
  4005ca:	31 db                	xor    %ebx,%ebx
  4005cc:	0f 1f 40 00          	nopl   0x0(%rax)
  4005d0:	4c 89 fa             	mov    %r15,%rdx
  4005d3:	4c 89 f6             	mov    %r14,%rsi
  4005d6:	44 89 ef             	mov    %r13d,%edi
  4005d9:	41 ff 14 dc          	callq  *(%r12,%rbx,8)
  4005dd:	48 83 c3 01          	add    $0x1,%rbx
  4005e1:	48 39 eb             	cmp    %rbp,%rbx
  4005e4:	75 ea                	jne    4005d0 <__libc_csu_init+0x50>
  4005e6:	48 8b 5c 24 08       	mov    0x8(%rsp),%rbx
  4005eb:	48 8b 6c 24 10       	mov    0x10(%rsp),%rbp
  4005f0:	4c 8b 64 24 18       	mov    0x18(%rsp),%r12
  4005f5:	4c 8b 6c 24 20       	mov    0x20(%rsp),%r13
  4005fa:	4c 8b 74 24 28       	mov    0x28(%rsp),%r14
  4005ff:	4c 8b 7c 24 30       	mov    0x30(%rsp),%r15
  400604:	48 83 c4 38          	add    $0x38,%rsp
  400608:	c3                   	retq   
  400609:	0f 1f 80 00 00 00 00 	nopl   0x0(%rax)

0000000000400610 <__libc_csu_fini>:
  400610:	f3 c3                	repz retq 
  400612:	90                   	nop
  400613:	90                   	nop
  400614:	90                   	nop
  400615:	90                   	nop
  400616:	90                   	nop
  400617:	90                   	nop
  400618:	90                   	nop
  400619:	90                   	nop
  40061a:	90                   	nop
  40061b:	90                   	nop
  40061c:	90                   	nop
  40061d:	90                   	nop
  40061e:	90                   	nop
  40061f:	90                   	nop

0000000000400620 <__do_global_ctors_aux>:
  400620:	55                   	push   %rbp
  400621:	48 89 e5             	mov    %rsp,%rbp
  400624:	53                   	push   %rbx
  400625:	48 83 ec 08          	sub    $0x8,%rsp
  400629:	48 8b 05 f8 07 20 00 	mov    0x2007f8(%rip),%rax        # 600e28 <__CTOR_LIST__>
  400630:	48 83 f8 ff          	cmp    $0xffffffffffffffff,%rax
  400634:	74 19                	je     40064f <__do_global_ctors_aux+0x2f>
  400636:	bb 28 0e 60 00       	mov    $0x600e28,%ebx
  40063b:	0f 1f 44 00 00       	nopl   0x0(%rax,%rax,1)
  400640:	48 83 eb 08          	sub    $0x8,%rbx
  400644:	ff d0                	callq  *%rax
  400646:	48 8b 03             	mov    (%rbx),%rax
  400649:	48 83 f8 ff          	cmp    $0xffffffffffffffff,%rax
  40064d:	75 f1                	jne    400640 <__do_global_ctors_aux+0x20>
  40064f:	48 83 c4 08          	add    $0x8,%rsp
  400653:	5b                   	pop    %rbx
  400654:	5d                   	pop    %rbp
  400655:	c3                   	retq   
  400656:	90                   	nop
  400657:	90                   	nop

Disassembly of section .fini:

0000000000400658 <_fini>:
  400658:	48 83 ec 08          	sub    $0x8,%rsp
  40065c:	e8 4f fe ff ff       	callq  4004b0 <__do_global_dtors_aux>
  400661:	48 83 c4 08          	add    $0x8,%rsp
  400665:	c3                   	retq   
